 e-dream

 Timestamp is 662fd082 (Mon Apr 29 18:53:22 2024)

 Preferred load address is 0000000140000000

 Start         Length     Name                   Class
 0001:00000000 00000710H .text$di                CODE
 0001:00000710 000da7e0H .text$mn                CODE
 0001:000daef0 00000040H .text$mn$00             CODE
 0001:000daf30 00000be0H .text$mn$21             CODE
 0001:000dbb10 00006990H .text$x                 CODE
 0001:000e24a0 00000c9cH .text$yd                CODE
 0002:00000000 00000960H .idata$5                DATA
 0002:00000960 00000038H .00cfg                  DATA
 0002:00000998 00000008H .CRT$XCA                DATA
 0002:000009a0 00000008H .CRT$XCAA               DATA
 0002:000009a8 00000038H .CRT$XCC                DATA
 0002:000009e0 00000010H .CRT$XCL                DATA
 0002:000009f0 00000110H .CRT$XCU                DATA
 0002:00000b00 00000008H .CRT$XCZ                DATA
 0002:00000b08 00000008H .CRT$XIA                DATA
 0002:00000b10 00000008H .CRT$XIAA               DATA
 0002:00000b18 00000008H .CRT$XIAC               DATA
 0002:00000b20 00000030H .CRT$XIC                DATA
 0002:00000b50 00000008H .CRT$XIZ                DATA
 0002:00000b58 00000008H .CRT$XLA                DATA
 0002:00000b60 00000008H .CRT$XLZ                DATA
 0002:00000b68 00000008H .CRT$XPA                DATA
 0002:00000b70 00000010H .CRT$XPX                DATA
 0002:00000b80 00000008H .CRT$XPXA               DATA
 0002:00000b88 00000008H .CRT$XPZ                DATA
 0002:00000b90 00000008H .CRT$XTA                DATA
 0002:00000b98 00000008H .CRT$XTZ                DATA
 0002:00000ba0 00000000H .gehcont$y              DATA
 0002:00000ba0 00000000H .gfids$y                DATA
 0002:00000ba0 00000000H .giats$y                DATA
 0002:00000ba0 00021810H .rdata                  DATA
 0002:000223b0 000001d0H .rdata$00               DATA
 0002:00022580 00000000H .rdata$CastGuardVftablesA DATA
 0002:00022580 00000000H .rdata$CastGuardVftablesC DATA
 0002:00022580 00000030H .rdata$T                DATA
 0002:000225b0 00008ce4H .rdata$r                DATA
 0002:0002b294 00001698H .rdata$voltmd           DATA
 0002:0002c92c 00000534H .rdata$zzzdbg           DATA
 0002:0002ce60 00000008H .rtc$IAA                DATA
 0002:0002ce68 00000008H .rtc$IZZ                DATA
 0002:0002ce70 00000008H .rtc$TAA                DATA
 0002:0002ce78 00000008H .rtc$TZZ                DATA
 0002:0002ce80 00000004H .tls                    DATA
 0002:0002ce84 00000004H .tls$                   DATA
 0002:0002ce88 00000008H .tls$ZZZ                DATA
 0002:0002ce90 0000f610H .xdata                  DATA
 0002:0003c4a0 00000e6cH .xdata$x                DATA
 0002:0003d30c 00000040H .didat$2                DATA
 0002:0003d34c 00000024H .didat$3                DATA
 0002:0003d370 00000030H .didat$4                DATA
 0002:0003d3a0 00000018H .didat$6                DATA
 0002:0003d3b8 00000134H .didat$7                DATA
 0002:0003d4ec 00000000H .edata                  DATA
 0002:0003d4ec 00000118H .idata$2                DATA
 0002:0003d604 00000014H .idata$3                DATA
 0002:0003d618 00000960H .idata$4                DATA
 0002:0003df78 00001c18H .idata$6                DATA
 0003:00000000 00001260H .data                   DATA
 0003:00001260 00001520H .data$r                 DATA
 0003:00002780 000047a8H .data$rs                DATA
 0003:00006f28 00000058H .didat$5                DATA
 0003:00006f80 00002f04H .bss                    DATA
 0004:00000000 00009348H .pdata                  DATA
 0005:00000000 00000340H .rsrc$01                DATA
 0005:00000340 00015a38H .rsrc$02                DATA

  Address         Publics by Value              Rva+Base               Lib:Object

 0000:00000000       __AbsoluteZero             0000000000000000     <absolute>
 0000:00000000       ___safe_se_handler_count   0000000000000000     <absolute>
 0000:00000000       ___safe_se_handler_table   0000000000000000     <absolute>
 0000:00000000       __arm64x_extra_rfe_table   0000000000000000     <absolute>
 0000:00000000       __arm64x_extra_rfe_table_size 0000000000000000     <absolute>
 0000:00000000       __arm64x_native_entrypoint 0000000000000000     <absolute>
 0000:00000000       __arm64x_redirection_metadata 0000000000000000     <absolute>
 0000:00000000       __arm64x_redirection_metadata_count 0000000000000000     <absolute>
 0000:00000000       __dynamic_value_reloc_table 0000000000000000     <absolute>
 0000:00000000       __enclave_config           0000000000000000     <absolute>
 0000:00000000       __guard_check_icall_a64n_fptr 0000000000000000     <absolute>
 0000:00000000       __guard_eh_cont_count      0000000000000000     <absolute>
 0000:00000000       __guard_eh_cont_table      0000000000000000     <absolute>
 0000:00000000       __guard_fids_count         0000000000000000     <absolute>
 0000:00000000       __guard_fids_table         0000000000000000     <absolute>
 0000:00000000       __guard_iat_count          0000000000000000     <absolute>
 0000:00000000       __guard_iat_table          0000000000000000     <absolute>
 0000:00000000       __guard_longjmp_count      0000000000000000     <absolute>
 0000:00000000       __guard_longjmp_table      0000000000000000     <absolute>
 0000:00000000       __hybrid_auxiliary_delayload_iat 0000000000000000     <absolute>
 0000:00000000       __hybrid_auxiliary_delayload_iat_copy 0000000000000000     <absolute>
 0000:00000000       __hybrid_auxiliary_iat     0000000000000000     <absolute>
 0000:00000000       __hybrid_auxiliary_iat_copy 0000000000000000     <absolute>
 0000:00000000       __hybrid_code_map          0000000000000000     <absolute>
 0000:00000000       __hybrid_code_map_count    0000000000000000     <absolute>
 0000:00000000       __hybrid_image_info_bitfield 0000000000000000     <absolute>
 0000:00000000       __x64_code_ranges_to_entry_points 0000000000000000     <absolute>
 0000:00000000       __x64_code_ranges_to_entry_points_count 0000000000000000     <absolute>
 0000:00000100       __guard_flags              0000000000000100     <absolute>
 0000:00000000       __ImageBase                0000000140000000     <linker-defined>
 0001:00000710       ??0exception@std@@QEAA@AEBV01@@Z 0000000140001710 f i StringFormat.obj
 0001:00000750       ?what@exception@std@@UEBAPEBDXZ 0000000140001750 f i StringFormat.obj
 0001:00000770       ??_E__non_rtti_object@std@@UEAAPEAXI@Z 0000000140001770 f i libvcruntime:rtti.obj
 0001:00000770       ??_Ebad_alloc@std@@UEAAPEAXI@Z 0000000140001770 f i * CIL library *:* CIL module *
 0001:00000770       ??_Ebad_array_new_length@std@@UEAAPEAXI@Z 0000000140001770 f i * CIL library *:* CIL module *
 0001:00000770       ??_Ebad_cast@std@@UEAAPEAXI@Z 0000000140001770 f i * CIL library *:* CIL module *
 0001:00000770       ??_Ebad_day_of_month@gregorian@boost@@UEAAPEAXI@Z 0000000140001770 f i * CIL library *:* CIL module *
 0001:00000770       ??_Ebad_exception@std@@UEAAPEAXI@Z 0000000140001770 f i * CIL library *:* CIL module *
 0001:00000770       ??_Ebad_function_call@std@@UEAAPEAXI@Z 0000000140001770 f i libcpmt:xthrow.obj
 0001:00000770       ??_Ebad_month@gregorian@boost@@UEAAPEAXI@Z 0000000140001770 f i * CIL library *:* CIL module *
 0001:00000770       ??_Ebad_typeid@std@@UEAAPEAXI@Z 0000000140001770 f i libvcruntime:rtti.obj
 0001:00000770       ??_Ebad_year@gregorian@boost@@UEAAPEAXI@Z 0000000140001770 f i * CIL library *:* CIL module *
 0001:00000770       ??_Eexception@std@@UEAAPEAXI@Z 0000000140001770 f i * CIL library *:* CIL module *
 0001:00000770       ??_Elength_error@std@@UEAAPEAXI@Z 0000000140001770 f i libcpmt:xthrow.obj
 0001:00000770       ??_Elogic_error@std@@UEAAPEAXI@Z 0000000140001770 f i * CIL library *:* CIL module *
 0001:00000770       ??_Eout_of_range@std@@UEAAPEAXI@Z 0000000140001770 f i * CIL library *:* CIL module *
 0001:00000770       ??_Eruntime_error@std@@UEAAPEAXI@Z 0000000140001770 f i * CIL library *:* CIL module *
 0001:00000770       ??_G__non_rtti_object@std@@UEAAPEAXI@Z 0000000140001770 f i libvcruntime:rtti.obj
 0001:00000770       ??_Gbad_alloc@std@@UEAAPEAXI@Z 0000000140001770 f i StringFormat.obj
 0001:00000770       ??_Gbad_array_new_length@std@@UEAAPEAXI@Z 0000000140001770 f i StringFormat.obj
 0001:00000770       ??_Gbad_cast@std@@UEAAPEAXI@Z 0000000140001770 f i Dream.obj
 0001:00000770       ??_Gbad_day_of_month@gregorian@boost@@UEAAPEAXI@Z 0000000140001770 f i SheepDownloader.obj
 0001:00000770       ??_Gbad_exception@std@@UEAAPEAXI@Z 0000000140001770 f i Clip.obj
 0001:00000770       ??_Gbad_function_call@std@@UEAAPEAXI@Z 0000000140001770 f i libcpmt:xthrow.obj
 0001:00000770       ??_Gbad_month@gregorian@boost@@UEAAPEAXI@Z 0000000140001770 f i SheepDownloader.obj
 0001:00000770       ??_Gbad_typeid@std@@UEAAPEAXI@Z 0000000140001770 f i libvcruntime:rtti.obj
 0001:00000770       ??_Gbad_year@gregorian@boost@@UEAAPEAXI@Z 0000000140001770 f i SheepDownloader.obj
 0001:00000770       ??_Gexception@std@@UEAAPEAXI@Z 0000000140001770 f i StringFormat.obj
 0001:00000770       ??_Glength_error@std@@UEAAPEAXI@Z 0000000140001770 f i libcpmt:xthrow.obj
 0001:00000770       ??_Glogic_error@std@@UEAAPEAXI@Z 0000000140001770 f i SheepDownloader.obj
 0001:00000770       ??_Gout_of_range@std@@UEAAPEAXI@Z 0000000140001770 f i SheepDownloader.obj
 0001:00000770       ??_Gruntime_error@std@@UEAAPEAXI@Z 0000000140001770 f i StringFormat.obj
 0001:000007c0       ??1__non_rtti_object@std@@UEAA@XZ 00000001400017c0 f i libvcruntime:rtti.obj
 0001:000007c0       ??1bad_alloc@std@@UEAA@XZ  00000001400017c0 f i StringFormat.obj
 0001:000007c0       ??1bad_array_new_length@std@@UEAA@XZ 00000001400017c0 f i StringFormat.obj
 0001:000007c0       ??1bad_cast@std@@UEAA@XZ   00000001400017c0 f i Dream.obj
 0001:000007c0       ??1bad_day_of_month@gregorian@boost@@UEAA@XZ 00000001400017c0 f i SheepDownloader.obj
 0001:000007c0       ??1bad_exception@std@@UEAA@XZ 00000001400017c0 f i Clip.obj
 0001:000007c0       ??1bad_function_call@std@@UEAA@XZ 00000001400017c0 f i libcpmt:xthrow.obj
 0001:000007c0       ??1bad_month@gregorian@boost@@UEAA@XZ 00000001400017c0 f i SheepDownloader.obj
 0001:000007c0       ??1bad_year@gregorian@boost@@UEAA@XZ 00000001400017c0 f i SheepDownloader.obj
 0001:000007c0       ??1failure@ios_base@std@@UEAA@XZ 00000001400017c0 f i Dream.obj
 0001:000007c0       ??1length_error@std@@UEAA@XZ 00000001400017c0 f i libcpmt:xthrow.obj
 0001:000007c0       ??1lock_error@boost@@UEAA@XZ 00000001400017c0 f i main.obj
 0001:000007c0       ??1out_of_range@std@@UEAA@XZ 00000001400017c0 f i SheepDownloader.obj
 0001:000007c0       ??1runtime_error@std@@UEAA@XZ 00000001400017c0 f i StringFormat.obj
 0001:000007c0       ??1system_error@std@@UEAA@XZ 00000001400017c0 f i Dream.obj
 0001:000007c0       ??1system_error@system@boost@@UEAA@XZ 00000001400017c0 f i Clip.obj
 0001:000007c0       ??1thread_resource_error@boost@@UEAA@XZ 00000001400017c0 f i Clip.obj
 0001:000007e0       ??0bad_array_new_length@std@@QEAA@XZ 00000001400017e0 f i StringFormat.obj
 0001:00000810       __local_stdio_printf_options 0000000140001810 f i StringFormat.obj
 0001:00000820       ?_Throw_bad_array_new_length@std@@YAXXZ 0000000140001820 f i StringFormat.obj
 0001:00000820       ?__scrt_throw_std_bad_array_new_length@@YAXXZ 0000000140001820 f i LIBCMT:throw_bad_alloc.obj
 0001:00000840       ??0bad_array_new_length@std@@QEAA@AEBV01@@Z 0000000140001840 f i StringFormat.obj
 0001:00000880       ??0bad_alloc@std@@QEAA@AEBV01@@Z 0000000140001880 f i StringFormat.obj
 0001:000008c0       ?_Xlen_string@std@@YAXXZ   00000001400018c0 f i StringFormat.obj
 0001:000008e0       ??0runtime_error@std@@QEAA@PEBD@Z 00000001400018e0 f i StringFormat.obj
 0001:00000930       ??0runtime_error@std@@QEAA@AEBV01@@Z 0000000140001930 f i StringFormat.obj
 0001:00000970       ??1?$unique_ptr@$$BY0A@DU?$default_delete@$$BY0A@D@std@@@std@@QEAA@XZ 0000000140001970 f i StringFormat.obj
 0001:00000980       ??1?$basic_string@DU?$char_traits@D@std@@V?$allocator@D@2@@std@@QEAA@XZ 0000000140001980 f i StringFormat.obj
 0001:00000980       ??1?$pair@V?$basic_string@DU?$char_traits@D@std@@V?$allocator@D@2@@std@@W4eUniformType@DisplayOutput@@@std@@QEAA@XZ 0000000140001980 f i Clip.obj
 0001:00000980       ??1?$tuple@V?$basic_string@DU?$char_traits@D@std@@V?$allocator@D@2@@std@@@std@@QEAA@XZ 0000000140001980 f i EDreamClient.obj
 0001:00000980       ??1VotingInfo@CVote@@QEAA@XZ 0000000140001980 f i Voting.obj
 0001:00000980       ?_Tidy_deallocate@?$basic_string@DU?$char_traits@D@std@@V?$allocator@D@2@@std@@AEAAXXZ 0000000140001980 f i StringFormat.obj
 0001:000009e0       ?_Deallocate_for_capacity@?$basic_string@DU?$char_traits@D@std@@V?$allocator@D@2@@std@@CAXAEAV?$allocator@D@2@QEAD_K@Z 00000001400019e0 f i StringFormat.obj
 0001:00000a20       ?deallocate@?$allocator@D@std@@QEAAXQEAD_K@Z 0000000140001a20 f i StringFormat.obj
 0001:00000a60       ??$?0PEAD$0A@@?$basic_string@DU?$char_traits@D@std@@V?$allocator@D@2@@std@@QEAA@PEAD0AEBV?$allocator@D@1@@Z 0000000140001a60 f i StringFormat.obj
 0001:00000ba0       ??$_Allocate_for_capacity@$0A@@?$basic_string@DU?$char_traits@D@std@@V?$allocator@D@2@@std@@CAPEADAEAV?$allocator@D@1@AEA_K@Z 0000000140001ba0 f i StringFormat.obj
 0001:00000c10       ??$_Allocate_manually_vector_aligned@U_Default_allocate_traits@std@@@std@@YAPEAX_K@Z 0000000140001c10 f i StringFormat.obj
 0001:00000c50       ??0bad_exception@std@@QEAA@XZ 0000000140001c50 f i Clip.obj
 0001:00000c80       ??0bad_alloc@std@@QEAA@XZ  0000000140001c80 f i Clip.obj
 0001:00000cb0       printf                     0000000140001cb0 f i Clip.obj
 0001:00000d00       snprintf                   0000000140001d00 f i Clip.obj
 0001:00000d60       ?_Decref@_Ref_count_base@std@@QEAAXXZ 0000000140001d60 f i Clip.obj
 0001:00000db0       ?GetTextureTargetType@CRenderer@DisplayOutput@@UEAA?AW4eTextureTargetType@2@XZ 0000000140001db0 f i RendererDX.obj
 0001:00000db0       ?StartAtFrame@CFrameDisplay@@UEBAIXZ 0000000140001db0 f i Clip.obj
 0001:00000db0       ?Type@CKeyEvent@DisplayOutput@@UEAA?AW4eEventType@CEvent@2@XZ 0000000140001db0 f i DisplayDX.obj
 0001:00000db0       ?Type@CRendererDX@DisplayOutput@@UEBA?AW4eRenderType@2@XZ 0000000140001db0 f i RendererDX.obj
 0001:00000db0       ?_Get_deleter@_Ref_count_base@std@@UEBAPEAXAEBVtype_info@@@Z 0000000140001db0 f i Clip.obj
 0001:00000db0       ?get_deleter@?$sp_counted_impl_p@V?$clone_impl@Ubad_alloc_@exception_detail@boost@@@exception_detail@boost@@@detail@boost@@UEAAPEAXAEBVtype_info@@@Z 0000000140001db0 f i Clip.obj
 0001:00000db0       ?get_deleter@?$sp_counted_impl_p@V?$clone_impl@Ubad_exception_@exception_detail@boost@@@exception_detail@boost@@@detail@boost@@UEAAPEAXAEBVtype_info@@@Z 0000000140001db0 f i Clip.obj
 0001:00000db0       ?get_local_deleter@?$sp_counted_impl_p@V?$clone_impl@Ubad_alloc_@exception_detail@boost@@@exception_detail@boost@@@detail@boost@@UEAAPEAXAEBVtype_info@@@Z 0000000140001db0 f i Clip.obj
 0001:00000db0       ?get_local_deleter@?$sp_counted_impl_p@V?$clone_impl@Ubad_exception_@exception_detail@boost@@@exception_detail@boost@@@detail@boost@@UEAAPEAXAEBVtype_info@@@Z 0000000140001db0 f i Clip.obj
 0001:00000db0       ?get_untyped_deleter@?$sp_counted_impl_p@V?$clone_impl@Ubad_alloc_@exception_detail@boost@@@exception_detail@boost@@@detail@boost@@UEAAPEAXXZ 0000000140001db0 f i Clip.obj
 0001:00000db0       ?get_untyped_deleter@?$sp_counted_impl_p@V?$clone_impl@Ubad_exception_@exception_detail@boost@@@exception_detail@boost@@@detail@boost@@UEAAPEAXXZ 0000000140001db0 f i Clip.obj
 0001:00000db0       ?showmanyc@?$basic_streambuf@DU?$char_traits@D@std@@@std@@MEAA_JXZ 0000000140001db0 f i Dream.obj
 0001:00000db0       ?sync@?$basic_streambuf@DU?$char_traits@D@std@@@std@@MEAAHXZ 0000000140001db0 f i Dream.obj
 0001:00000db0       __scrt_exe_initialize_mta  0000000140001db0 f i LIBCMT:utility_desktop.obj
 0001:00000db0       __scrt_initialize_winrt    0000000140001db0 f i LIBCMT:utility_desktop.obj
 0001:00000db0       __scrt_stub_for_initialize_mta 0000000140001db0 f i LIBCMT:utility_desktop.obj
 0001:00000db0       _get_startup_commit_mode   0000000140001db0 f i LIBCMT:commit_mode.obj
 0001:00000db0       _get_startup_new_mode      0000000140001db0 f i LIBCMT:new_mode.obj
 0001:00000db0       _get_startup_thread_locale_mode 0000000140001db0 f i LIBCMT:thread_locale.obj
 0001:00000db0       _matherr                   0000000140001db0 f i LIBCMT:matherr.obj
 0001:00000dc0       ?to_string@source_location@boost@@QEBA?AV?$basic_string@DU?$char_traits@D@std@@V?$allocator@D@2@@std@@XZ 0000000140001dc0 f i Clip.obj
 0001:000010f0       ??1clone_base@exception_detail@boost@@UEAA@XZ 00000001400020f0 f i Clip.obj
 0001:00001100       ??_Eclone_base@exception_detail@boost@@UEAAPEAXI@Z 0000000140002100 f i * CIL library *:* CIL module *
 0001:00001100       ??_Gclone_base@exception_detail@boost@@UEAAPEAXI@Z 0000000140002100 f i Clip.obj
 0001:00001130       ?copy_boost_exception@exception_detail@boost@@YAXPEAVexception@2@PEBV32@@Z 0000000140002130 f i Clip.obj
 0001:000011f0       ??$checked_delete@V?$clone_impl@Ubad_alloc_@exception_detail@boost@@@exception_detail@boost@@@boost@@YAXPEAV?$clone_impl@Ubad_alloc_@exception_detail@boost@@@exception_detail@0@@Z 00000001400021f0 f i Clip.obj
 0001:000011f0       ??$checked_delete@V?$clone_impl@Ubad_exception_@exception_detail@boost@@@exception_detail@boost@@@boost@@YAXPEAV?$clone_impl@Ubad_exception_@exception_detail@boost@@@exception_detail@0@@Z 00000001400021f0 f i Clip.obj
 0001:000011f0       ?destroy@sp_counted_base@detail@boost@@UEAAXXZ 00000001400021f0 f i Clip.obj
 0001:00001210       ??_Esp_counted_base@detail@boost@@UEAAPEAXI@Z 0000000140002210 f i * CIL library *:* CIL module *
 0001:00001210       ??_Gsp_counted_base@detail@boost@@UEAAPEAXI@Z 0000000140002210 f i Clip.obj
 0001:00001240       ??1shared_count@detail@boost@@QEAA@XZ 0000000140002240 f i Clip.obj
 0001:00001290       ?sp_enable_shared_from_this@detail@boost@@YAXZZ 0000000140002290 f i Clip.obj
 0001:000012b0       ?failed@error_category@system@boost@@UEBA_NH@Z 00000001400022b0 f i Clip.obj
 0001:000012c0       ?name@_Generic_error_category@std@@UEBAPEBDXZ 00000001400022c0 f i Shepherd.obj
 0001:000012c0       ?name@generic_error_category@detail@system@boost@@UEBAPEBDXZ 00000001400022c0 f i Clip.obj
 0001:000012d0       ?message@generic_error_category@detail@system@boost@@UEBAPEBDHPEAD_K@Z 00000001400022d0 f i Clip.obj
 0001:00001340       ?message@generic_error_category@detail@system@boost@@UEBA?AV?$basic_string@DU?$char_traits@D@std@@V?$allocator@D@2@@std@@H@Z 0000000140002340 f i Clip.obj
 0001:000013a0       ?snprintf@detail@system@boost@@YAXPEAD_KPEBDZZ 00000001400023a0 f i Clip.obj
 0001:00001400       ?append_int@detail@system@boost@@YAXAEAV?$basic_string@DU?$char_traits@D@std@@V?$allocator@D@2@@std@@H@Z 0000000140002400 f i Clip.obj
 0001:000014c0       ??1local_free@detail@system@boost@@QEAA@XZ 00000001400024c0 f i Clip.obj
 0001:000014d0       ?unknown_message_win32@detail@system@boost@@YA?AV?$basic_string@DU?$char_traits@D@std@@V?$allocator@D@2@@std@@H@Z 00000001400024d0 f i Clip.obj
 0001:00001560       ?system_category_message_win32@detail@system@boost@@YA?AV?$basic_string@DU?$char_traits@D@std@@V?$allocator@D@2@@std@@H@Z 0000000140002560 f i Clip.obj
 0001:00001780       ?value@error_code@system@boost@@QEBAHXZ 0000000140002780 f i Clip.obj
 0001:000017d0       ?what@error_code@system@boost@@QEBA?AV?$basic_string@DU?$char_traits@D@std@@V?$allocator@D@2@@std@@XZ 00000001400027d0 f i Clip.obj
 0001:00001bc0       ?default_error_condition@error_category@std@@UEBA?AVerror_condition@2@H@Z 0000000140002bc0 f i Dream.obj
 0001:00001bc0       ?default_error_condition@error_category@system@boost@@UEBA?AVerror_condition@23@H@Z 0000000140002bc0 f i Clip.obj
 0001:00001bd0       ?equivalent@error_category@system@boost@@UEBA_NHAEBVerror_condition@23@@Z 0000000140002bd0 f i Clip.obj
 0001:00001c60       ?equivalent@error_category@system@boost@@UEBA_NAEBVerror_code@23@H@Z 0000000140002c60 f i Clip.obj
 0001:00001ce0       ??0system_error@system@boost@@QEAA@AEBVerror_code@12@PEBD@Z 0000000140002ce0 f i Clip.obj
 0001:00001f80       ??_Elock_error@boost@@UEAAPEAXI@Z 0000000140002f80 f i * CIL library *:* CIL module *
 0001:00001f80       ??_Esystem_error@system@boost@@UEAAPEAXI@Z 0000000140002f80 f i * CIL library *:* CIL module *
 0001:00001f80       ??_Ethread_exception@boost@@UEAAPEAXI@Z 0000000140002f80 f i * CIL library *:* CIL module *
 0001:00001f80       ??_Ethread_resource_error@boost@@UEAAPEAXI@Z 0000000140002f80 f i * CIL library *:* CIL module *
 0001:00001f80       ??_Glock_error@boost@@UEAAPEAXI@Z 0000000140002f80 f i main.obj
 0001:00001f80       ??_Gsystem_error@system@boost@@UEAAPEAXI@Z 0000000140002f80 f i Clip.obj
 0001:00001f80       ??_Gthread_exception@boost@@UEAAPEAXI@Z 0000000140002f80 f i Clip.obj
 0001:00001f80       ??_Gthread_resource_error@boost@@UEAAPEAXI@Z 0000000140002f80 f i Clip.obj
 0001:00001fd0       ??0thread_exception@boost@@QEAA@HPEBD@Z 0000000140002fd0 f i Clip.obj
 0001:00002070       ??0thread_resource_error@boost@@QEAA@XZ 0000000140003070 f i Clip.obj
 0001:00002110       ?get_event@basic_timed_mutex@detail@boost@@AEAAPEAXXZ 0000000140003110 f i Clip.obj
 0001:00002180       ??1bad_alloc_@exception_detail@boost@@UEAA@XZ 0000000140003180 f i Clip.obj
 0001:000021e0       ??_Ebad_alloc_@exception_detail@boost@@UEAAPEAXI@Z 00000001400031e0 f i * CIL library *:* CIL module *
 0001:000021e0       ??_Gbad_alloc_@exception_detail@boost@@UEAAPEAXI@Z 00000001400031e0 f i Clip.obj
 0001:00002260       ??1bad_exception_@exception_detail@boost@@UEAA@XZ 0000000140003260 f i Clip.obj
 0001:000022c0       ??_Ebad_exception_@exception_detail@boost@@UEAAPEAXI@Z 00000001400032c0 f i * CIL library *:* CIL module *
 0001:000022c0       ??_Gbad_exception_@exception_detail@boost@@UEAAPEAXI@Z 00000001400032c0 f i Clip.obj
 0001:00002340       ??0exception@boost@@QEAA@AEBV01@@Z 0000000140003340 f i Clip.obj
 0001:000023a0       ?Description@CLog@Base@@UEAAPEBDXZ 00000001400033a0 f i Clip.obj
 0001:000023b0       ?Instance@CLog@Base@@SAPEAV12@PEBDI0@Z 00000001400033b0 f i Clip.obj
 0001:000024d0       ?Description@CSettings@@UEAAPEBDXZ 00000001400034d0 f i Clip.obj
 0001:000024e0       ?Shutdown@CSettings@@UEAA_NXZ 00000001400034e0 f i Clip.obj
 0001:00002540       ?Get@CSettings@@QEAA_NV?$basic_string_view@DU?$char_traits@D@std@@@std@@_N@Z 0000000140003540 f i Clip.obj
 0001:000025e0       ?Get@CSettings@@QEAAHV?$basic_string_view@DU?$char_traits@D@std@@@std@@H@Z 00000001400035e0 f i Clip.obj
 0001:00002680       ??_ECSettings@@EEAAPEAXI@Z 0000000140003680 f i * CIL library *:* CIL module *
 0001:00002680       ??_GCSettings@@EEAAPEAXI@Z 0000000140003680 f i Clip.obj
 0001:000026b0       ?g_Settings@@YA?AV?$CSyncPtr@VCSettings@@V?$CSyncAccessRep@VCSettings@@@Base@@V?$CSyncAccess@VCSettings@@@3@@Base@@XZ 00000001400036b0 f i Clip.obj
 0001:00002790       ??1sFrameMetadata@ContentDecoder@@QEAA@XZ 0000000140003790 f i Clip.obj
 0001:00002890       ??_EITimer@Base@@UEAAPEAXI@Z 0000000140003890 f i * CIL library *:* CIL module *
 0001:00002890       ??_GITimer@Base@@UEAAPEAXI@Z 0000000140003890 f i Clip.obj
 0001:000028c0       ?Reset@CWTimer@Base@@UEAAXXZ 00000001400038c0 f i Clip.obj
 0001:00002900       ?Time@CWTimer@Base@@UEAANXZ 0000000140003900 f i Clip.obj
 0001:00002950       ?Delta@CWTimer@Base@@UEAANXZ 0000000140003950 f i Clip.obj
 0001:00002990       ?Resolution@CWTimer@Base@@UEAANXZ 0000000140003990 f i Clip.obj
 0001:000029b0       ??_ECWTimer@Base@@UEAAPEAXI@Z 00000001400039b0 f i * CIL library *:* CIL module *
 0001:000029b0       ??_GCWTimer@Base@@UEAAPEAXI@Z 00000001400039b0 f i Clip.obj
 0001:000029e0       ??1CWTimer@Base@@UEAA@XZ   00000001400039e0 f i Clip.obj
 0001:000029f0       ??0CFrameDisplay@@QEAA@V?$shared_ptr@VCRenderer@DisplayOutput@@@std@@@Z 00000001400039f0 f i Clip.obj
 0001:00002d10       ?RequestTargetTexture@CFrameDisplay@@UEAAAEAV?$shared_ptr@VCTextureFlat@DisplayOutput@@@std@@XZ 0000000140003d10 f i Clip.obj
 0001:00002d20       ?Draw@CFrameDisplay@@UEAA_NV?$shared_ptr@VCRenderer@DisplayOutput@@@std@@MN@Z 0000000140003d20 f i Clip.obj
 0001:00002f20       ?GetFps@CCubicFrameDisplay@@UEAANNN@Z 0000000140003f20 f i Clip.obj
 0001:00002f20       ?GetFps@CFrameDisplay@@UEAANNN@Z 0000000140003f20 f i Clip.obj
 0001:00002f20       ?GetFps@CLinearFrameDisplay@@UEAANNN@Z 0000000140003f20 f i Clip.obj
 0001:00002f30       ?ScrollVideoForNonMatchingAspectRatio@CFrameDisplay@@UEAAXAEBVCRect@Math@Base@@@Z 0000000140003f30 f i Clip.obj
 0001:00003170       ??0?$shared_ptr@VCTextureFlat@DisplayOutput@@@std@@QEAA@XZ 0000000140004170 f i Clip.obj
 0001:00003180       ?MitchellNetravali@CCubicFrameDisplay@@AEAAMMMM@Z 0000000140004180 f i Clip.obj
 0001:000032f0       ??0CCubicFrameDisplay@@QEAA@V?$shared_ptr@VCRenderer@DisplayOutput@@@std@@@Z 00000001400042f0 f i Clip.obj
 0001:000036a0       ?RequestTargetTexture@CCubicFrameDisplay@@UEAAAEAV?$shared_ptr@VCTextureFlat@DisplayOutput@@@std@@XZ 00000001400046a0 f i Clip.obj
 0001:000036f0       ?StartAtFrame@CCubicFrameDisplay@@UEBAIXZ 00000001400046f0 f i Clip.obj
 0001:000036f0       ?Type@CEvent@DisplayOutput@@UEAA?AW4eEventType@12@XZ 00000001400046f0 f i DisplayDX.obj
 0001:00003700       ?Draw@CCubicFrameDisplay@@UEAA_NV?$shared_ptr@VCRenderer@DisplayOutput@@@std@@MN@Z 0000000140004700 f i Clip.obj
 0001:00003b10       ??_ECCubicFrameDisplay@@UEAAPEAXI@Z 0000000140004b10 f i * CIL library *:* CIL module *
 0001:00003b10       ??_GCCubicFrameDisplay@@UEAAPEAXI@Z 0000000140004b10 f i Clip.obj
 0001:00003bc0       ??1CFrameDisplay@@QEAA@XZ  0000000140004bc0 f i Clip.obj
 0001:00003c70       ??0CLinearFrameDisplay@@QEAA@V?$shared_ptr@VCRenderer@DisplayOutput@@@std@@@Z 0000000140004c70 f i Clip.obj
 0001:00004000       ?RequestTargetTexture@CLinearFrameDisplay@@UEAAAEAV?$shared_ptr@VCTextureFlat@DisplayOutput@@@std@@XZ 0000000140005000 f i Clip.obj
 0001:00004020       ?GetNumMonitors@CDisplayOutput@DisplayOutput@@UEAAKXZ 0000000140005020 f i DisplayOutput.obj
 0001:00004020       ?StartAtFrame@CLinearFrameDisplay@@UEBAIXZ 0000000140005020 f i Clip.obj
 0001:00004020       ?Type@CMouseEvent@DisplayOutput@@UEAA?AW4eEventType@CEvent@2@XZ 0000000140005020 f i DisplayDX.obj
 0001:00004020       ?do_encoding@codecvt_base@std@@MEBAHXZ 0000000140005020 f i SheepDownloader.obj
 0001:00004020       ?do_max_length@codecvt_base@std@@MEBAHXZ 0000000140005020 f i SheepDownloader.obj
 0001:00004020       _get_startup_argv_mode     0000000140005020 f i LIBCMT:argv_mode.obj
 0001:00004030       ?Draw@CLinearFrameDisplay@@UEAA_NV?$shared_ptr@VCRenderer@DisplayOutput@@@std@@MN@Z 0000000140005030 f i Clip.obj
 0001:000043d0       ??_ECLinearFrameDisplay@@UEAAPEAXI@Z 00000001400053d0 f i * CIL library *:* CIL module *
 0001:000043d0       ??_GCLinearFrameDisplay@@UEAAPEAXI@Z 00000001400053d0 f i Clip.obj
 0001:00004480       ??0sDreamMetadata@ContentDownloader@@QEAA@AEBU01@@Z 0000000140005480 f i Clip.obj
 0001:00004550       ??1sClipMetadata@ContentDecoder@@QEAA@XZ 0000000140005550 f i Clip.obj
 0001:000045c0       ??1sDreamMetadata@ContentDownloader@@QEAA@XZ 00000001400055c0 f i Clip.obj
 0001:000047c0       ?DrawLine@CRenderer@DisplayOutput@@UEAAXAEBVCVector2_x86@Math@Base@45@0AEBVCVector4_x86@4545@M@Z 00000001400057c0 f i Renderer.obj
 0001:000047c0       ?DrawQuad@CRenderer@DisplayOutput@@UEAAXAEBVCRect@Math@Base@@AEBVCVector4_x86@4545@0@Z 00000001400057c0 f i Renderer.obj
 0001:000047c0       ?DrawQuad@CRenderer@DisplayOutput@@UEAAXAEBVCRect@Math@Base@@AEBVCVector4_x86@4545@@Z 00000001400057c0 f i Renderer.obj
 0001:000047c0       ?DrawRect@CRenderer@DisplayOutput@@UEAAXAEBVCRect@Math@Base@@AEBVCVector4_x86@4545@M@Z 00000001400057c0 f i Renderer.obj
 0001:000047c0       ?DrawSoftQuad@CRenderer@DisplayOutput@@UEAAXAEBVCRect@Math@Base@@AEBVCVector4_x86@4545@M@Z 00000001400057c0 f i Renderer.obj
 0001:000047c0       ?Reupload@CBaseFont@DisplayOutput@@UEAAXXZ 00000001400057c0 f i FontDX.obj
 0001:000047c0       ?_Lock@?$basic_streambuf@DU?$char_traits@D@std@@@std@@UEAAXXZ 00000001400057c0 f i Dream.obj
 0001:000047c0       ?_Unlock@?$basic_streambuf@DU?$char_traits@D@std@@@std@@UEAAXXZ 00000001400057c0 f i Dream.obj
 0001:000047c0       ?__empty_global_delete@@YAXPEAX_K@Z 00000001400057c0 f i Clip.obj
 0001:000047c0       ?__global_delete@@YAXPEAX_K@Z 00000001400057c0 f i * CIL library *:* CIL module *
 0001:000047c0       ?do_close@?$messages@D@std@@MEBAXH@Z 00000001400057c0 f i libcpmt:xlocale.obj
 0001:000047c0       ?do_close@?$messages@G@std@@MEBAXH@Z 00000001400057c0 f i libcpmt:wlocale.obj
 0001:000047c0       ?do_close@?$messages@_W@std@@MEBAXH@Z 00000001400057c0 f i libcpmt:wlocale.obj
 0001:000047c0       ?imbue@?$basic_streambuf@DU?$char_traits@D@std@@@std@@MEAAXAEBVlocale@2@@Z 00000001400057c0 f i Dream.obj
 0001:000047c0       __sanitizer_annotate_contiguous_container 00000001400057c0 f i libcpmt:asan_noop.obj
 0001:000047c0       __sanitizer_annotate_contiguous_container_default 00000001400057c0 f i libcpmt:asan_noop.obj
 0001:000047c0       _initialize_denormal_control 00000001400057c0 f i LIBCMT:denormal_control.obj
 0001:000047c0       _initialize_invalid_parameter_handler 00000001400057c0 f i LIBCMT:invalid_parameter_handler.obj
 0001:000047d0       ??1?$shared_lock@Vshared_mutex@std@@@std@@QEAA@XZ 00000001400057d0 f i Clip.obj
 0001:000047e0       ??1?$unique_lock@Vshared_mutex@std@@@std@@QEAA@XZ 00000001400057e0 f i Clip.obj
 0001:000047f0       ??1?$shared_ptr@UDisplayUnit@CPlayer@@@std@@QEAA@XZ 00000001400057f0 f i Player.obj
 0001:000047f0       ??1?$shared_ptr@VCAlignedBuffer@Base@@@std@@QEAA@XZ 00000001400057f0 f i Clip.obj
 0001:000047f0       ??1?$shared_ptr@VCBaseFont@DisplayOutput@@@std@@QEAA@XZ 00000001400057f0 f i main.obj
 0001:000047f0       ??1?$shared_ptr@VCBaseText@DisplayOutput@@@std@@QEAA@XZ 00000001400057f0 f i main.obj
 0001:000047f0       ??1?$shared_ptr@VCBlend@DisplayOutput@@@std@@QEAA@XZ 00000001400057f0 f i RendererDX.obj
 0001:000047f0       ??1?$shared_ptr@VCClip@ContentDecoder@@@std@@QEAA@XZ 00000001400057f0 f i Player.obj
 0001:000047f0       ??1?$shared_ptr@VCContentDecoder@ContentDecoder@@@std@@QEAA@XZ 00000001400057f0 f i Clip.obj
 0001:000047f0       ??1?$shared_ptr@VCCrossFade@Hud@@@std@@QEAA@XZ 00000001400057f0 f i main.obj
 0001:000047f0       ??1?$shared_ptr@VCDelayedDispatch@@@std@@QEAA@XZ 00000001400057f0 f i main.obj
 0001:000047f0       ??1?$shared_ptr@VCDisplayOutput@DisplayOutput@@@std@@QEAA@XZ 00000001400057f0 f i main.obj
 0001:000047f0       ??1?$shared_ptr@VCDreamPlaylist@ContentDecoder@@@std@@QEAA@XZ 00000001400057f0 f i Player.obj
 0001:000047f0       ??1?$shared_ptr@VCEvent@DisplayOutput@@@std@@QEAA@XZ 00000001400057f0 f i main.obj
 0001:000047f0       ??1?$shared_ptr@VCFileDownloader@Network@@@std@@QEAA@XZ 00000001400057f0 f i SheepDownloader.obj
 0001:000047f0       ??1?$shared_ptr@VCFontDX@DisplayOutput@@@std@@QEAA@XZ 00000001400057f0 f i RendererDX.obj
 0001:000047f0       ??1?$shared_ptr@VCFrameDisplay@@@std@@QEAA@XZ 00000001400057f0 f i Clip.obj
 0001:000047f0       ??1?$shared_ptr@VCHudEntry@Hud@@@std@@QEAA@XZ 00000001400057f0 f i Hud.obj
 0001:000047f0       ??1?$shared_ptr@VCHudManager@Hud@@@std@@QEAA@XZ 00000001400057f0 f i main.obj
 0001:000047f0       ??1?$shared_ptr@VCImage@DisplayOutput@@@std@@QEAA@XZ 00000001400057f0 f i Clip.obj
 0001:000047f0       ??1?$shared_ptr@VCKeyEvent@DisplayOutput@@@std@@QEAA@XZ 00000001400057f0 f i main.obj
 0001:000047f0       ??1?$shared_ptr@VCMessageBody@ContentDownloader@@@std@@QEAA@XZ 00000001400057f0 f i Shepherd.obj
 0001:000047f0       ??1?$shared_ptr@VCOSD@Hud@@@std@@QEAA@XZ 00000001400057f0 f i main.obj
 0001:000047f0       ??1?$shared_ptr@VCRenderer@DisplayOutput@@@std@@QEAA@XZ 00000001400057f0 f i Clip.obj
 0001:000047f0       ??1?$shared_ptr@VCServerMessage@Hud@@@std@@QEAA@XZ 00000001400057f0 f i main.obj
 0001:000047f0       ??1?$shared_ptr@VCShader@DisplayOutput@@@std@@QEAA@XZ 00000001400057f0 f i Clip.obj
 0001:000047f0       ??1?$shared_ptr@VCShaderUniform@DisplayOutput@@@std@@QEAA@XZ 00000001400057f0 f i Clip.obj
 0001:000047f0       ??1?$shared_ptr@VCShaderUniformDX@DisplayOutput@@@std@@QEAA@XZ 00000001400057f0 f i ShaderDX.obj
 0001:000047f0       ??1?$shared_ptr@VCSplash@Hud@@@std@@QEAA@XZ 00000001400057f0 f i main.obj
 0001:000047f0       ??1?$shared_ptr@VCSplashImage@Hud@@@std@@QEAA@XZ 00000001400057f0 f i main.obj
 0001:000047f0       ??1?$shared_ptr@VCStartupScreen@Hud@@@std@@QEAA@XZ 00000001400057f0 f i main.obj
 0001:000047f0       ??1?$shared_ptr@VCStatsConsole@Hud@@@std@@QEAA@XZ 00000001400057f0 f i main.obj
 0001:000047f0       ??1?$shared_ptr@VCTexture@DisplayOutput@@@std@@QEAA@XZ 00000001400057f0 f i Clip.obj
 0001:000047f0       ??1?$shared_ptr@VCTextureFlat@DisplayOutput@@@std@@QEAA@XZ 00000001400057f0 f i Clip.obj
 0001:000047f0       ??1?$shared_ptr@VCTimedMessageBody@ContentDownloader@@@std@@QEAA@XZ 00000001400057f0 f i SheepDownloader.obj
 0001:000047f0       ??1?$shared_ptr@VCVideoFrame@ContentDecoder@@@std@@QEAA@XZ 00000001400057f0 f i Clip.obj
 0001:00004840       ??$?4VCShaderUniformDX@DisplayOutput@@$0A@@?$shared_ptr@VCShaderUniform@DisplayOutput@@@std@@QEAAAEAV01@$$QEAV?$shared_ptr@VCShaderUniformDX@DisplayOutput@@@1@@Z 0000000140005840 f i ShaderDX.obj
 0001:00004840       ??4?$shared_ptr@UDisplayUnit@CPlayer@@@std@@QEAAAEAV01@$$QEAV01@@Z 0000000140005840 f i Player.obj
 0001:00004840       ??4?$shared_ptr@VCAlignedBuffer@Base@@@std@@QEAAAEAV01@$$QEAV01@@Z 0000000140005840 f i ContentDecoder.obj
 0001:00004840       ??4?$shared_ptr@VCBaseFont@DisplayOutput@@@std@@QEAAAEAV01@$$QEAV01@@Z 0000000140005840 f i main.obj
 0001:00004840       ??4?$shared_ptr@VCBaseText@DisplayOutput@@@std@@QEAAAEAV01@$$QEAV01@@Z 0000000140005840 f i main.obj
 0001:00004840       ??4?$shared_ptr@VCCrossFade@Hud@@@std@@QEAAAEAV01@$$QEAV01@@Z 0000000140005840 f i main.obj
 0001:00004840       ??4?$shared_ptr@VCDreamPlaylist@ContentDecoder@@@std@@QEAAAEAV01@$$QEAV01@@Z 0000000140005840 f i Player.obj
 0001:00004840       ??4?$shared_ptr@VCFileDownloader@Network@@@std@@QEAAAEAV01@$$QEAV01@@Z 0000000140005840 f i SheepDownloader.obj
 0001:00004840       ??4?$shared_ptr@VCHudManager@Hud@@@std@@QEAAAEAV01@$$QEAV01@@Z 0000000140005840 f i main.obj
 0001:00004840       ??4?$shared_ptr@VCImage@DisplayOutput@@@std@@QEAAAEAV01@$$QEAV01@@Z 0000000140005840 f i Clip.obj
 0001:00004840       ??4?$shared_ptr@VCSplash@Hud@@@std@@QEAAAEAV01@$$QEAV01@@Z 0000000140005840 f i main.obj
 0001:00004840       ??4?$shared_ptr@VCSplashImage@Hud@@@std@@QEAAAEAV01@$$QEAV01@@Z 0000000140005840 f i main.obj
 0001:00004840       ??4?$shared_ptr@VCStartupScreen@Hud@@@std@@QEAAAEAV01@$$QEAV01@@Z 0000000140005840 f i main.obj
 0001:00004840       ??4?$shared_ptr@VCTextureFlat@DisplayOutput@@@std@@QEAAAEAV01@$$QEAV01@@Z 0000000140005840 f i Clip.obj
 0001:000048c0       ??0?$vector@U?$pair@V?$basic_string@DU?$char_traits@D@std@@V?$allocator@D@2@@std@@W4eUniformType@DisplayOutput@@@std@@V?$allocator@U?$pair@V?$basic_string@DU?$char_traits@D@std@@V?$allocator@D@2@@std@@W4eUniformType@DisplayOutput@@@std@@@2@@std@@QEAA@V?$initializer_list@U?$pair@V?$basic_string@DU?$char_traits@D@std@@V?$allocator@D@2@@std@@W4eUniformType@DisplayOutput@@@std@@@1@AEBV?$allocator@U?$pair@V?$basic_string@DU?$char_traits@D@std@@V?$allocator@D@2@@std@@W4eUniformType@DisplayOutput@@@std@@@1@@Z 00000001400058c0 f i Clip.obj
 0001:000049f0       ??$?0VCTextureFlat@DisplayOutput@@$0A@@?$shared_ptr@VCTexture@DisplayOutput@@@std@@QEAA@AEBV?$shared_ptr@VCTextureFlat@DisplayOutput@@@1@@Z 00000001400059f0 f i Clip.obj
 0001:000049f0       ??0?$shared_ptr@VCImage@DisplayOutput@@@std@@QEAA@AEBV01@@Z 00000001400059f0 f i Clip.obj
 0001:00004a20       ??4?$shared_ptr@VCAlignedBuffer@Base@@@std@@QEAAAEAV01@AEBV01@@Z 0000000140005a20 f i Clip.obj
 0001:00004a20       ??4?$shared_ptr@VCBlend@DisplayOutput@@@std@@QEAAAEAV01@AEBV01@@Z 0000000140005a20 f i RendererDX.obj
 0001:00004a20       ??4?$shared_ptr@VCDisplayOutput@DisplayOutput@@@std@@QEAAAEAV01@AEBV01@@Z 0000000140005a20 f i Player.obj
 0001:00004a20       ??4?$shared_ptr@VCShader@DisplayOutput@@@std@@QEAAAEAV01@AEBV01@@Z 0000000140005a20 f i Renderer.obj
 0001:00004a20       ??4?$shared_ptr@VCTexture@DisplayOutput@@@std@@QEAAAEAV01@AEBV01@@Z 0000000140005a20 f i Renderer.obj
 0001:00004ab0       ??1?$CSyncPtr@VCSettings@@V?$CSyncAccessRep@VCSettings@@@Base@@V?$CSyncAccess@VCSettings@@@3@@Base@@QEAA@XZ 0000000140005ab0 f i Clip.obj
 0001:00004b10       ??1?$unique_lock@Vmutex@boost@@@boost@@QEAA@XZ 0000000140005b10 f i Clip.obj
 0001:00004b60       ??1?$refcount_ptr@Uerror_info_container@exception_detail@boost@@@exception_detail@boost@@QEAA@XZ 0000000140005b60 f i Clip.obj
 0001:00004b90       ?resize@?$basic_string@DU?$char_traits@D@std@@V?$allocator@D@2@@std@@QEAAX_KD@Z 0000000140005b90 f i Clip.obj
 0001:00004c30       ?c_str@?$basic_string@DU?$char_traits@D@std@@V?$allocator@D@2@@std@@QEBAPEBDXZ 0000000140005c30 f i Clip.obj
 0001:00004c40       ?push_back@?$basic_string@DU?$char_traits@D@std@@V?$allocator@D@2@@std@@QEAAXD@Z 0000000140005c40 f i Clip.obj
 0001:00004c80       ??0?$basic_string@DU?$char_traits@D@std@@V?$allocator@D@2@@std@@QEAA@$$QEAV01@@Z 0000000140005c80 f i Clip.obj
 0001:00004cb0       ??0?$basic_string@DU?$char_traits@D@std@@V?$allocator@D@2@@std@@QEAA@_KD@Z 0000000140005cb0 f i Clip.obj
 0001:00004de0       ??0?$basic_string@DU?$char_traits@D@std@@V?$allocator@D@2@@std@@QEAA@QEBD@Z 0000000140005de0 f i Clip.obj
 0001:00004e20       ??0?$basic_string@DU?$char_traits@D@std@@V?$allocator@D@2@@std@@QEAA@AEBV01@@Z 0000000140005e20 f i Clip.obj
 0001:00004f40       ??_E?$CSingleton@VCSettings@@@Base@@UEAAPEAXI@Z 0000000140005f40 f i * CIL library *:* CIL module *
 0001:00004f40       ??_G?$CSingleton@VCSettings@@@Base@@UEAAPEAXI@Z 0000000140005f40 f i Clip.obj
 0001:00004f70       ??0clone_base@exception_detail@boost@@QEAA@AEBV012@@Z 0000000140005f70 f i Clip.obj
 0001:00004f80       ?_Tidy@?$vector@U?$pair@V?$basic_string@DU?$char_traits@D@std@@V?$allocator@D@2@@std@@W4eUniformType@DisplayOutput@@@std@@V?$allocator@U?$pair@V?$basic_string@DU?$char_traits@D@std@@V?$allocator@D@2@@std@@W4eUniformType@DisplayOutput@@@std@@@2@@std@@AEAAXXZ 0000000140005f80 f i Clip.obj
 0001:00005000       ?_Eos@?$basic_string@DU?$char_traits@D@std@@V?$allocator@D@2@@std@@AEAAX_K@Z 0000000140006000 f i Clip.obj
 0001:00005020       ?assign@?$basic_string@DU?$char_traits@D@std@@V?$allocator@D@2@@std@@QEAAAEAV12@QEBD_K@Z 0000000140006020 f i Clip.obj
 0001:00005190       ?append@?$basic_string@DU?$char_traits@D@std@@V?$allocator@D@2@@std@@QEAAAEAV12@_KD@Z 0000000140006190 f i Clip.obj
 0001:00005220       ?append@?$basic_string@DU?$char_traits@D@std@@V?$allocator@D@2@@std@@QEAAAEAV12@QEBD_K@Z 0000000140006220 f i Clip.obj
 0001:000052b0       ??$throw_exception@Vthread_resource_error@boost@@@boost@@YAXAEBVthread_resource_error@0@@Z 00000001400062b0 f i Clip.obj
 0001:000052e0       ??1?$CSyncAccess@VCSettings@@@Base@@QEAA@XZ 00000001400062e0 f i Clip.obj
 0001:00005300       ??C?$CSyncAccess@VCSettings@@@Base@@QEAAPEAVCSettings@@XZ 0000000140006300 f i Clip.obj
 0001:00005340       ??$_Reallocate_grow_by@V<lambda_1>@?1??push_back@?$basic_string@DU?$char_traits@D@std@@V?$allocator@D@2@@std@@QEAAXD@Z@D@?$basic_string@DU?$char_traits@D@std@@V?$allocator@D@2@@std@@AEAAAEAV01@_KV<lambda_1>@?1??push_back@01@QEAAXD@Z@D@Z 0000000140006340 f i Clip.obj
 0001:000054b0       ??$_Construct@$0A@D@?$basic_string@DU?$char_traits@D@std@@V?$allocator@D@2@@std@@AEAAXD_K@Z 00000001400064b0 f i Clip.obj
 0001:000055c0       ??$_Construct@$00PEBD@?$basic_string@DU?$char_traits@D@std@@V?$allocator@D@2@@std@@AEAAXQEBD_K@Z 00000001400065c0 f i Clip.obj
 0001:000056d0       ??$_Construct@$01PEBD@?$basic_string@DU?$char_traits@D@std@@V?$allocator@D@2@@std@@AEAAXQEBD_K@Z 00000001400066d0 f i Clip.obj
 0001:000057d0       ??$_Destroy_range@V?$allocator@U?$pair@V?$basic_string@DU?$char_traits@D@std@@V?$allocator@D@2@@std@@W4eUniformType@DisplayOutput@@@std@@@std@@@std@@YAXPEAU?$pair@V?$basic_string@DU?$char_traits@D@std@@V?$allocator@D@2@@std@@W4eUniformType@DisplayOutput@@@0@QEAU10@AEAV?$allocator@U?$pair@V?$basic_string@DU?$char_traits@D@std@@V?$allocator@D@2@@std@@W4eUniformType@DisplayOutput@@@std@@@0@@Z 00000001400067d0 f i Clip.obj
 0001:00005860       ??$_Reallocate_grow_by@V<lambda_1>@?1??append@?$basic_string@DU?$char_traits@D@std@@V?$allocator@D@2@@std@@QEAAAEAV34@_KD@Z@_KD@?$basic_string@DU?$char_traits@D@std@@V?$allocator@D@2@@std@@AEAAAEAV01@_KV<lambda_1>@?1??append@01@QEAAAEAV01@0D@Z@_KD@Z 0000000140006860 f i Clip.obj
 0001:000059f0       ??$_Reallocate_grow_by@V<lambda_1>@?1??append@?$basic_string@DU?$char_traits@D@std@@V?$allocator@D@2@@std@@QEAAAEAV34@QEBD_K@Z@PEBD_K@?$basic_string@DU?$char_traits@D@std@@V?$allocator@D@2@@std@@AEAAAEAV01@_KV<lambda_1>@?1??append@01@QEAAAEAV01@QEBD0@Z@PEBD_K@Z 00000001400069f0 f i Clip.obj
 0001:00005b80       ??1?$wrapexcept@Vlock_error@boost@@@boost@@UEAA@XZ 0000000140006b80 f i main.obj
 0001:00005b80       ??1?$wrapexcept@Vsystem_error@system@boost@@@boost@@UEAA@XZ 0000000140006b80 f i EDreamClient.obj
 0001:00005b80       ??1?$wrapexcept@Vthread_resource_error@boost@@@boost@@UEAA@XZ 0000000140006b80 f i Clip.obj
 0001:00005be0       ??0?$wrapexcept@Vthread_resource_error@boost@@@boost@@QEAA@AEBU01@@Z 0000000140006be0 f i Clip.obj
 0001:00005cb0       ??0thread_resource_error@boost@@QEAA@AEBV01@@Z 0000000140006cb0 f i Clip.obj
 0001:00005d20       ??0thread_exception@boost@@QEAA@AEBV01@@Z 0000000140006d20 f i Clip.obj
 0001:00005d90       ??0system_error@system@boost@@QEAA@AEBV012@@Z 0000000140006d90 f i Clip.obj
 0001:00005df0       ??0bad_exception@std@@QEAA@AEBV01@@Z 0000000140006df0 f i Clip.obj
 0001:00005e30       ??_E?$wrapexcept@Vlock_error@boost@@@boost@@UEAAPEAXI@Z 0000000140006e30 f i * CIL library *:* CIL module *
 0001:00005e30       ??_E?$wrapexcept@Vsystem_error@system@boost@@@boost@@UEAAPEAXI@Z 0000000140006e30 f i * CIL library *:* CIL module *
 0001:00005e30       ??_E?$wrapexcept@Vthread_resource_error@boost@@@boost@@UEAAPEAXI@Z 0000000140006e30 f i * CIL library *:* CIL module *
 0001:00005e30       ??_G?$wrapexcept@Vlock_error@boost@@@boost@@UEAAPEAXI@Z 0000000140006e30 f i main.obj
 0001:00005e30       ??_G?$wrapexcept@Vsystem_error@system@boost@@@boost@@UEAAPEAXI@Z 0000000140006e30 f i EDreamClient.obj
 0001:00005e30       ??_G?$wrapexcept@Vthread_resource_error@boost@@@boost@@UEAAPEAXI@Z 0000000140006e30 f i Clip.obj
 0001:00005eb0       ??1?$_Tidy_guard@V?$vector@U?$pair@V?$basic_string@DU?$char_traits@D@std@@V?$allocator@D@2@@std@@W4eUniformType@DisplayOutput@@@std@@V?$allocator@U?$pair@V?$basic_string@DU?$char_traits@D@std@@V?$allocator@D@2@@std@@W4eUniformType@DisplayOutput@@@std@@@2@@std@@@std@@QEAA@XZ 0000000140006eb0 f i Clip.obj
 0001:00005ec0       ?_Delete_this@?$_Ref_count@VCAlignedBuffer@Base@@@std@@EEAAXXZ 0000000140006ec0 f i ContentDecoder.obj
 0001:00005ec0       ?_Delete_this@?$_Ref_count@VCBlend@DisplayOutput@@@std@@EEAAXXZ 0000000140006ec0 f i Renderer.obj
 0001:00005ec0       ?_Delete_this@?$_Ref_count@VCImage@DisplayOutput@@@std@@EEAAXXZ 0000000140006ec0 f i main.obj
 0001:00005ec0       ?_Delete_this@?$_Ref_count@VCMessageBody@ContentDownloader@@@std@@EEAAXXZ 0000000140006ec0 f i Shepherd.obj
 0001:00005ec0       ?_Delete_this@?$_Ref_count@VCTimedMessageBody@ContentDownloader@@@std@@EEAAXXZ 0000000140006ec0 f i SheepDownloader.obj
 0001:00005ec0       ?_Delete_this@?$_Ref_count@VCVideoFrame@ContentDecoder@@@std@@EEAAXXZ 0000000140006ec0 f i ContentDecoder.obj
 0001:00005ec0       ?_Delete_this@?$_Ref_count@Vdo_init@openssl_init_base@detail@ssl@asio@boost@@@std@@EEAAXXZ 0000000140006ec0 f i EDreamClient.obj
 0001:00005ec0       ?_Delete_this@?$_Ref_count_obj2@UDisplayUnit@CPlayer@@@std@@EEAAXXZ 0000000140006ec0 f i Player.obj
 0001:00005ec0       ?_Delete_this@?$_Ref_count_obj2@VCAlignedBuffer@Base@@@std@@EEAAXXZ 0000000140006ec0 f i ContentDecoder.obj
 0001:00005ec0       ?_Delete_this@?$_Ref_count_obj2@VCClip@ContentDecoder@@@std@@EEAAXXZ 0000000140006ec0 f i Player.obj
 0001:00005ec0       ?_Delete_this@?$_Ref_count_obj2@VCContentDecoder@ContentDecoder@@@std@@EEAAXXZ 0000000140006ec0 f i Clip.obj
 0001:00005ec0       ?_Delete_this@?$_Ref_count_obj2@VCCrossFade@Hud@@@std@@EEAAXXZ 0000000140006ec0 f i main.obj
 0001:00005ec0       ?_Delete_this@?$_Ref_count_obj2@VCCubicFrameDisplay@@@std@@EEAAXXZ 0000000140006ec0 f i Clip.obj
 0001:00005ec0       ?_Delete_this@?$_Ref_count_obj2@VCDelayedDispatch@@@std@@EEAAXXZ 0000000140006ec0 f i main.obj
 0001:00005ec0       ?_Delete_this@?$_Ref_count_obj2@VCDreamPlaylist@ContentDecoder@@@std@@EEAAXXZ 0000000140006ec0 f i Player.obj
 0001:00005ec0       ?_Delete_this@?$_Ref_count_obj2@VCFileDownloader@Network@@@std@@EEAAXXZ 0000000140006ec0 f i SheepDownloader.obj
 0001:00005ec0       ?_Delete_this@?$_Ref_count_obj2@VCFrameDisplay@@@std@@EEAAXXZ 0000000140006ec0 f i Clip.obj
 0001:00005ec0       ?_Delete_this@?$_Ref_count_obj2@VCHudManager@Hud@@@std@@EEAAXXZ 0000000140006ec0 f i main.obj
 0001:00005ec0       ?_Delete_this@?$_Ref_count_obj2@VCImage@DisplayOutput@@@std@@EEAAXXZ 0000000140006ec0 f i Clip.obj
 0001:00005ec0       ?_Delete_this@?$_Ref_count_obj2@VCLinearFrameDisplay@@@std@@EEAAXXZ 0000000140006ec0 f i Clip.obj
 0001:00005ec0       ?_Delete_this@?$_Ref_count_obj2@VCOSD@Hud@@@std@@EEAAXXZ 0000000140006ec0 f i main.obj
 0001:00005ec0       ?_Delete_this@?$_Ref_count_obj2@VCServerMessage@Hud@@@std@@EEAAXXZ 0000000140006ec0 f i main.obj
 0001:00005ec0       ?_Delete_this@?$_Ref_count_obj2@VCShaderUniformDX@DisplayOutput@@@std@@EEAAXXZ 0000000140006ec0 f i ShaderDX.obj
 0001:00005ec0       ?_Delete_this@?$_Ref_count_obj2@VCSplash@Hud@@@std@@EEAAXXZ 0000000140006ec0 f i main.obj
 0001:00005ec0       ?_Delete_this@?$_Ref_count_obj2@VCSplashImage@Hud@@@std@@EEAAXXZ 0000000140006ec0 f i main.obj
 0001:00005ec0       ?_Delete_this@?$_Ref_count_obj2@VCStartupScreen@Hud@@@std@@EEAAXXZ 0000000140006ec0 f i main.obj
 0001:00005ec0       ?_Delete_this@?$_Ref_count_obj2@VCStatsConsole@Hud@@@std@@EEAAXXZ 0000000140006ec0 f i main.obj
 0001:00005ee0       ?_Destroy@?$_Ref_count_obj2@VCImage@DisplayOutput@@@std@@EEAAXXZ 0000000140006ee0 f i Clip.obj
 0001:00005f30       ?_Destroy@?$_Ref_count_obj2@VCContentDecoder@ContentDecoder@@@std@@EEAAXXZ 0000000140006f30 f i Clip.obj
 0001:00005f30       ?_Destroy@?$_Ref_count_obj2@VCCrossFade@Hud@@@std@@EEAAXXZ 0000000140006f30 f i main.obj
 0001:00005f30       ?_Destroy@?$_Ref_count_obj2@VCDreamPlaylist@ContentDecoder@@@std@@EEAAXXZ 0000000140006f30 f i Player.obj
 0001:00005f30       ?_Destroy@?$_Ref_count_obj2@VCFileDownloader@Network@@@std@@EEAAXXZ 0000000140006f30 f i SheepDownloader.obj
 0001:00005f30       ?_Destroy@?$_Ref_count_obj2@VCOSD@Hud@@@std@@EEAAXXZ 0000000140006f30 f i main.obj
 0001:00005f30       ?_Destroy@?$_Ref_count_obj2@VCServerMessage@Hud@@@std@@EEAAXXZ 0000000140006f30 f i main.obj
 0001:00005f30       ?_Destroy@?$_Ref_count_obj2@VCShaderUniformDX@DisplayOutput@@@std@@EEAAXXZ 0000000140006f30 f i ShaderDX.obj
 0001:00005f30       ?_Destroy@?$_Ref_count_obj2@VCSplash@Hud@@@std@@EEAAXXZ 0000000140006f30 f i main.obj
 0001:00005f30       ?_Destroy@?$_Ref_count_obj2@VCSplashImage@Hud@@@std@@EEAAXXZ 0000000140006f30 f i main.obj
 0001:00005f30       ?_Destroy@?$_Ref_count_obj2@VCStartupScreen@Hud@@@std@@EEAAXXZ 0000000140006f30 f i main.obj
 0001:00005f30       ?_Destroy@?$_Ref_count_obj2@VCStatsConsole@Hud@@@std@@EEAAXXZ 0000000140006f30 f i main.obj
 0001:00005f40       ?_Destroy@?$_Ref_count_obj2@VCFrameDisplay@@@std@@EEAAXXZ 0000000140006f40 f i Clip.obj
 0001:00005f50       ?_Destroy@?$_Ref_count_obj2@VCCubicFrameDisplay@@@std@@EEAAXXZ 0000000140006f50 f i Clip.obj
 0001:00005f50       ?_Destroy@?$_Ref_count_obj2@VCLinearFrameDisplay@@@std@@EEAAXXZ 0000000140006f50 f i Clip.obj
 0001:00005f60       ?rethrow@?$wrapexcept@Vthread_resource_error@boost@@@boost@@UEBAXXZ 0000000140006f60 f i Clip.obj
 0001:00005f90       ?clone@?$wrapexcept@Vthread_resource_error@boost@@@boost@@UEBAPEBVclone_base@exception_detail@2@XZ 0000000140006f90 f i Clip.obj
 0001:00005ff0       ??0?$wrapexcept@Vthread_resource_error@boost@@@boost@@QEAA@AEBVthread_resource_error@1@@Z 0000000140006ff0 f i Clip.obj
 0001:00006090       ?_Incref@?$_Ptr_base@VCImage@DisplayOutput@@@std@@IEBAXXZ 0000000140007090 f i Clip.obj
 0001:000060a0       ??0?$basic_string@DU?$char_traits@D@std@@V?$allocator@D@2@@std@@QEAA@U_String_constructor_concat_tag@1@AEAV01@1@Z 00000001400070a0 f i Clip.obj
 0001:000062a0       ??_E?$_Ref_count_obj2@VCImage@DisplayOutput@@@std@@UEAAPEAXI@Z 00000001400072a0 f i * CIL library *:* CIL module *
 0001:000062a0       ??_G?$_Ref_count_obj2@VCImage@DisplayOutput@@@std@@UEAAPEAXI@Z 00000001400072a0 f i Clip.obj
 0001:000062d0       ??_E?$_Ref_count_obj2@VCContentDecoder@ContentDecoder@@@std@@UEAAPEAXI@Z 00000001400072d0 f i * CIL library *:* CIL module *
 0001:000062d0       ??_G?$_Ref_count_obj2@VCContentDecoder@ContentDecoder@@@std@@UEAAPEAXI@Z 00000001400072d0 f i Clip.obj
 0001:00006300       ??_E?$_Ref_count_obj2@VCFrameDisplay@@@std@@UEAAPEAXI@Z 0000000140007300 f i * CIL library *:* CIL module *
 0001:00006300       ??_G?$_Ref_count_obj2@VCFrameDisplay@@@std@@UEAAPEAXI@Z 0000000140007300 f i Clip.obj
 0001:00006330       ??_E?$_Ref_count_obj2@VCLinearFrameDisplay@@@std@@UEAAPEAXI@Z 0000000140007330 f i * CIL library *:* CIL module *
 0001:00006330       ??_G?$_Ref_count_obj2@VCLinearFrameDisplay@@@std@@UEAAPEAXI@Z 0000000140007330 f i Clip.obj
 0001:00006360       ??_E?$_Ref_count_obj2@VCCubicFrameDisplay@@@std@@UEAAPEAXI@Z 0000000140007360 f i * CIL library *:* CIL module *
 0001:00006360       ??_G?$_Ref_count_obj2@VCCubicFrameDisplay@@@std@@UEAAPEAXI@Z 0000000140007360 f i Clip.obj
 0001:00006390       ??1deleter@?$wrapexcept@Ubad_day_of_month@gregorian@boost@@@boost@@QEAA@XZ 0000000140007390 f i SheepDownloader.obj
 0001:00006390       ??1deleter@?$wrapexcept@Ubad_month@gregorian@boost@@@boost@@QEAA@XZ 0000000140007390 f i SheepDownloader.obj
 0001:00006390       ??1deleter@?$wrapexcept@Ubad_year@gregorian@boost@@@boost@@QEAA@XZ 0000000140007390 f i SheepDownloader.obj
 0001:00006390       ??1deleter@?$wrapexcept@Vbad_alloc@std@@@boost@@QEAA@XZ 0000000140007390 f i ContentDownloader.obj
 0001:00006390       ??1deleter@?$wrapexcept@Vlock_error@boost@@@boost@@QEAA@XZ 0000000140007390 f i main.obj
 0001:00006390       ??1deleter@?$wrapexcept@Vruntime_error@std@@@boost@@QEAA@XZ 0000000140007390 f i SheepDownloader.obj
 0001:00006390       ??1deleter@?$wrapexcept@Vsystem_error@system@boost@@@boost@@QEAA@XZ 0000000140007390 f i EDreamClient.obj
 0001:00006390       ??1deleter@?$wrapexcept@Vthread_resource_error@boost@@@boost@@QEAA@XZ 0000000140007390 f i Clip.obj
 0001:000063b0       ?_Xlength@?$vector@IV?$allocator@I@std@@@std@@CAXXZ 00000001400073b0 f i Voting.obj
 0001:000063b0       ?_Xlength@?$vector@PEAUsDreamMetadata@ContentDownloader@@V?$allocator@PEAUsDreamMetadata@ContentDownloader@@@std@@@std@@CAXXZ 00000001400073b0 f i SheepDownloader.obj
 0001:000063b0       ?_Xlength@?$vector@U?$pair@PEAVcondition_variable@boost@@PEAVmutex@2@@std@@V?$allocator@U?$pair@PEAVcondition_variable@boost@@PEAVmutex@2@@std@@@2@@std@@CAXXZ 00000001400073b0 f i ContentDownloader.obj
 0001:000063b0       ?_Xlength@?$vector@U?$pair@V?$basic_string@DU?$char_traits@D@std@@V?$allocator@D@2@@std@@UStatText@CStatsConsole@Hud@@@std@@V?$allocator@U?$pair@V?$basic_string@DU?$char_traits@D@std@@V?$allocator@D@2@@std@@UStatText@CStatsConsole@Hud@@@std@@@2@@std@@CAXXZ 00000001400073b0 f i main.obj
 0001:000063b0       ?_Xlength@?$vector@U?$pair@V?$basic_string@DU?$char_traits@D@std@@V?$allocator@D@2@@std@@W4eUniformType@DisplayOutput@@@std@@V?$allocator@U?$pair@V?$basic_string@DU?$char_traits@D@std@@V?$allocator@D@2@@std@@W4eUniformType@DisplayOutput@@@std@@@2@@std@@CAXXZ 00000001400073b0 f i Clip.obj
 0001:000063b0       ?_Xlength@?$vector@V?$basic_string@DU?$char_traits@D@std@@V?$allocator@D@2@@std@@V?$allocator@V?$basic_string@DU?$char_traits@D@std@@V?$allocator@D@2@@std@@@2@@std@@CAXXZ 00000001400073b0 f i Common.obj
 0001:000063b0       ?_Xlength@?$vector@V?$intrusive_ptr@Vbasic_cv_list_entry@detail@boost@@@boost@@V?$allocator@V?$intrusive_ptr@Vbasic_cv_list_entry@detail@boost@@@boost@@@std@@@std@@CAXXZ 00000001400073b0 f i Shepherd.obj
 0001:000063b0       ?_Xlength@?$vector@V?$shared_ptr@UDisplayUnit@CPlayer@@@std@@V?$allocator@V?$shared_ptr@UDisplayUnit@CPlayer@@@std@@@2@@std@@CAXXZ 00000001400073b0 f i Player.obj
 0001:000063b0       ?_Xlength@?$vector@V?$shared_ptr@VCClip@ContentDecoder@@@std@@V?$allocator@V?$shared_ptr@VCClip@ContentDecoder@@@std@@@2@@std@@CAXXZ 00000001400073b0 f i Player.obj
 0001:000063b0       ?_Xlength@?$vector@V?$shared_ptr@VCTimedMessageBody@ContentDownloader@@@std@@V?$allocator@V?$shared_ptr@VCTimedMessageBody@ContentDownloader@@@std@@@2@@std@@CAXXZ 00000001400073b0 f i SheepDownloader.obj
 0001:000063b0       ?_Xlength@?$vector@Vpath@filesystem@boost@@V?$allocator@Vpath@filesystem@boost@@@std@@@std@@CAXXZ 00000001400073b0 f i Shepherd.obj
 0001:000063d0       ??$get_static_exception_object@Ubad_alloc_@exception_detail@boost@@@exception_detail@boost@@YA?AVexception_ptr@1@XZ 00000001400073d0 f i Clip.obj
 0001:00006850       ??$get_static_exception_object@Ubad_exception_@exception_detail@boost@@@exception_detail@boost@@YA?AVexception_ptr@1@XZ 0000000140007850 f i Clip.obj
 0001:00006cd0       ??_D?$clone_impl@Ubad_alloc_@exception_detail@boost@@@exception_detail@boost@@QEAAXXZ 0000000140007cd0 f i Clip.obj
 0001:00006d70       ??0?$clone_impl@Ubad_alloc_@exception_detail@boost@@@exception_detail@boost@@QEAA@AEBV012@@Z 0000000140007d70 f i Clip.obj
 0001:00006df0       ??_D?$clone_impl@Ubad_exception_@exception_detail@boost@@@exception_detail@boost@@QEAAXXZ 0000000140007df0 f i Clip.obj
 0001:00006e90       ??0?$clone_impl@Ubad_exception_@exception_detail@boost@@@exception_detail@boost@@QEAA@AEBV012@@Z 0000000140007e90 f i Clip.obj
 0001:00006f10       ??_E?$clone_impl@Ubad_alloc_@exception_detail@boost@@@exception_detail@boost@@UEAAPEAXI@Z 0000000140007f10 f i * CIL library *:* CIL module *
 0001:00006f10       ??_G?$clone_impl@Ubad_alloc_@exception_detail@boost@@@exception_detail@boost@@UEAAPEAXI@Z 0000000140007f10 f i Clip.obj
 0001:00006f50       ??0bad_alloc_@exception_detail@boost@@QEAA@AEBU012@@Z 0000000140007f50 f i Clip.obj
 0001:00006fe0       ??_E?$clone_impl@Ubad_exception_@exception_detail@boost@@@exception_detail@boost@@UEAAPEAXI@Z 0000000140007fe0 f i * CIL library *:* CIL module *
 0001:00006fe0       ??_G?$clone_impl@Ubad_exception_@exception_detail@boost@@@exception_detail@boost@@UEAAPEAXI@Z 0000000140007fe0 f i Clip.obj
 0001:00007020       ??0bad_exception_@exception_detail@boost@@QEAA@AEBU012@@Z 0000000140008020 f i Clip.obj
 0001:000070b0       ??1?$_Uninitialized_backout_al@V?$allocator@U?$pair@V?$basic_string@DU?$char_traits@D@std@@V?$allocator@D@2@@std@@W4eUniformType@DisplayOutput@@@std@@@std@@@std@@QEAA@XZ 00000001400080b0 f i Clip.obj
 0001:000070c0       ?rethrow@?$clone_impl@Ubad_exception_@exception_detail@boost@@@exception_detail@boost@@EEBAXXZ 00000001400080c0 f i Clip.obj
 0001:000070f0       ?clone@?$clone_impl@Ubad_exception_@exception_detail@boost@@@exception_detail@boost@@EEBAPEBVclone_base@23@XZ 00000001400080f0 f i Clip.obj
 0001:000071b0       ?rethrow@?$clone_impl@Ubad_alloc_@exception_detail@boost@@@exception_detail@boost@@EEBAXXZ 00000001400081b0 f i Clip.obj
 0001:000071e0       ?clone@?$clone_impl@Ubad_alloc_@exception_detail@boost@@@exception_detail@boost@@EEBAPEBVclone_base@23@XZ 00000001400081e0 f i Clip.obj
 0001:000072a0       ??$?0V?$clone_impl@Ubad_alloc_@exception_detail@boost@@@exception_detail@boost@@@shared_count@detail@boost@@QEAA@PEAV?$clone_impl@Ubad_alloc_@exception_detail@boost@@@exception_detail@2@@Z 00000001400082a0 f i Clip.obj
 0001:00007300       ??$?0V?$clone_impl@Ubad_exception_@exception_detail@boost@@@exception_detail@boost@@@shared_count@detail@boost@@QEAA@PEAV?$clone_impl@Ubad_exception_@exception_detail@boost@@@exception_detail@2@@Z 0000000140008300 f i Clip.obj
 0001:00007360       ?_Destroy@?$_Ref_count@VCVideoFrame@ContentDecoder@@@std@@EEAAXXZ 0000000140008360 f i ContentDecoder.obj
 0001:00007360       ?dispose@?$sp_counted_impl_p@V?$clone_impl@Ubad_alloc_@exception_detail@boost@@@exception_detail@boost@@@detail@boost@@UEAAXXZ 0000000140008360 f i Clip.obj
 0001:00007360       ?dispose@?$sp_counted_impl_p@V?$clone_impl@Ubad_exception_@exception_detail@boost@@@exception_detail@boost@@@detail@boost@@UEAAXXZ 0000000140008360 f i Clip.obj
 0001:00007380       ??_E?$sp_counted_impl_p@V?$clone_impl@Ubad_alloc_@exception_detail@boost@@@exception_detail@boost@@@detail@boost@@UEAAPEAXI@Z 0000000140008380 f i * CIL library *:* CIL module *
 0001:00007380       ??_E?$sp_counted_impl_p@V?$clone_impl@Ubad_exception_@exception_detail@boost@@@exception_detail@boost@@@detail@boost@@UEAAPEAXI@Z 0000000140008380 f i * CIL library *:* CIL module *
 0001:00007380       ??_G?$sp_counted_impl_p@V?$clone_impl@Ubad_alloc_@exception_detail@boost@@@exception_detail@boost@@@detail@boost@@UEAAPEAXI@Z 0000000140008380 f i Clip.obj
 0001:00007380       ??_G?$sp_counted_impl_p@V?$clone_impl@Ubad_exception_@exception_detail@boost@@@exception_detail@boost@@@detail@boost@@UEAAPEAXI@Z 0000000140008380 f i Clip.obj
 0001:000073ac       ?rethrow@?$clone_impl@Ubad_exception_@exception_detail@boost@@@exception_detail@boost@@$0PPPPPPPM@A@EBAXXZ 00000001400083ac f i Clip.obj
 0001:000073b8       ??_E?$wrapexcept@Vlock_error@boost@@@boost@@W7EAAPEAXI@Z 00000001400083b8 f i main.obj
 0001:000073b8       ??_E?$wrapexcept@Vsystem_error@system@boost@@@boost@@W7EAAPEAXI@Z 00000001400083b8 f i EDreamClient.obj
 0001:000073b8       ??_E?$wrapexcept@Vthread_resource_error@boost@@@boost@@W7EAAPEAXI@Z 00000001400083b8 f i Clip.obj
 0001:000073c4       ?clone@?$clone_impl@Ubad_exception_@exception_detail@boost@@@exception_detail@boost@@$0PPPPPPPM@A@EBAPEBVclone_base@23@XZ 00000001400083c4 f i Clip.obj
 0001:000073d0       ?clone@?$clone_impl@Ubad_alloc_@exception_detail@boost@@@exception_detail@boost@@$0PPPPPPPM@A@EBAPEBVclone_base@23@XZ 00000001400083d0 f i Clip.obj
 0001:000073dc       ??_E?$clone_impl@Ubad_exception_@exception_detail@boost@@@exception_detail@boost@@$4PPPPPPPM@FA@EAAPEAXI@Z 00000001400083dc f i Clip.obj
 0001:000073ec       ?rethrow@?$clone_impl@Ubad_alloc_@exception_detail@boost@@@exception_detail@boost@@$0PPPPPPPM@A@EBAXXZ 00000001400083ec f i Clip.obj
 0001:000073f8       ??_E?$wrapexcept@Vlock_error@boost@@@boost@@WDI@EAAPEAXI@Z 00000001400083f8 f i main.obj
 0001:000073f8       ??_E?$wrapexcept@Vsystem_error@system@boost@@@boost@@WDI@EAAPEAXI@Z 00000001400083f8 f i EDreamClient.obj
 0001:000073f8       ??_E?$wrapexcept@Vthread_resource_error@boost@@@boost@@WDI@EAAPEAXI@Z 00000001400083f8 f i Clip.obj
 0001:00007404       ??_E?$clone_impl@Ubad_alloc_@exception_detail@boost@@@exception_detail@boost@@WCI@EAAPEAXI@Z 0000000140008404 f i Clip.obj
 0001:00007410       ??_Ebad_alloc_@exception_detail@boost@@WCI@EAAPEAXI@Z 0000000140008410 f i Clip.obj
 0001:0000741c       ??_E?$clone_impl@Ubad_exception_@exception_detail@boost@@@exception_detail@boost@@WCI@EAAPEAXI@Z 000000014000841c f i Clip.obj
 0001:00007428       ??_E?$clone_impl@Ubad_alloc_@exception_detail@boost@@@exception_detail@boost@@$4PPPPPPPM@FA@EAAPEAXI@Z 0000000140008428 f i Clip.obj
 0001:00007438       ??_Ebad_exception_@exception_detail@boost@@WCI@EAAPEAXI@Z 0000000140008438 f i Clip.obj
 0001:00007450       ??0thread_resource_error@boost@@QEAA@HPEBD@Z 0000000140008450 f i ContentDownloader.obj
 0001:00007480       ??1handle_manager@win32@detail@boost@@QEAA@XZ 0000000140008480 f i ContentDownloader.obj
 0001:000074a0       ?free_raw_heap_memory@detail@boost@@YAXPEAX@Z 00000001400084a0 f i ContentDownloader.obj
 0001:000074d0       ?now@mono_platform_clock@detail@boost@@SA?AUmono_platform_timepoint@23@XZ 00000001400084d0 f i ContentDownloader.obj
 0001:00007580       ??0thread_data_base@detail@boost@@QEAA@XZ 0000000140008580 f i ContentDownloader.obj
 0001:00007640       ?notify_all_at_thread_exit@thread_data_base@detail@boost@@UEAAXPEAVcondition_variable@3@PEAVmutex@3@@Z 0000000140008640 f i ContentDownloader.obj
 0001:00007680       ??_Ethread_data_base@detail@boost@@UEAAPEAXI@Z 0000000140008680 f i * CIL library *:* CIL module *
 0001:00007680       ??_Gthread_data_base@detail@boost@@UEAAPEAXI@Z 0000000140008680 f i ContentDownloader.obj
 0001:000076c0       ??1?$map@PEBXUtss_data_node@detail@boost@@U?$less@PEBX@std@@V?$allocator@U?$pair@QEBXUtss_data_node@detail@boost@@@std@@@5@@std@@QEAA@XZ 00000001400086c0 f i ContentDownloader.obj
 0001:00007720       ??_Gthread@boost@@QEAAPEAXI@Z 0000000140008720 f i ContentDownloader.obj
 0001:00007790       ??1CManager@Network@@UEAA@XZ 0000000140008790 f i ContentDownloader.obj
 0001:000078a0       ?Description@CManager@Network@@UEAAPEBDXZ 00000001400088a0 f i ContentDownloader.obj
 0001:000078b0       ?Instance@CManager@Network@@SAPEAV12@PEBDI0@Z 00000001400088b0 f i ContentDownloader.obj
 0001:000079f0       ??_ECManager@Network@@UEAAPEAXI@Z 00000001400089f0 f i * CIL library *:* CIL module *
 0001:000079f0       ??_GCManager@Network@@UEAAPEAXI@Z 00000001400089f0 f i ContentDownloader.obj
 0001:00007a30       ?Get@CSettings@@QEAA?AV?$basic_string@DU?$char_traits@D@std@@V?$allocator@D@2@@std@@V?$basic_string_view@DU?$char_traits@D@std@@@3@V43@@Z 0000000140008a30 f i ContentDownloader.obj
 0001:00007b70       ?Description@CContentDownloader@ContentDownloader@@UEAAPEBDXZ 0000000140008b70 f i ContentDownloader.obj
 0001:00007b80       ??_ECContentDownloader@ContentDownloader@@UEAAPEAXI@Z 0000000140008b80 f i * CIL library *:* CIL module *
 0001:00007b80       ??_GCContentDownloader@ContentDownloader@@UEAAPEAXI@Z 0000000140008b80 f i ContentDownloader.obj
 0001:00007bb0       ??1?$CSingleton@VCManager@Network@@@Base@@UEAA@XZ 0000000140008bb0 f i ContentDownloader.obj
 0001:00007bc0       ??1?$intrusive_ptr@Uthread_data_base@detail@boost@@@boost@@QEAA@XZ 0000000140008bc0 f i ContentDownloader.obj
 0001:00007c10       ??1?$vector@V?$shared_ptr@Ushared_state_base@detail@boost@@@boost@@V?$allocator@V?$shared_ptr@Ushared_state_base@detail@boost@@@boost@@@std@@@std@@QEAA@XZ 0000000140008c10 f i ContentDownloader.obj
 0001:00007ce0       ??1?$vector@U?$pair@PEAVcondition_variable@boost@@PEAVmutex@2@@std@@V?$allocator@U?$pair@PEAVcondition_variable@boost@@PEAVmutex@2@@std@@@2@@std@@QEAA@XZ 0000000140008ce0 f i ContentDownloader.obj
 0001:00007d40       ??4?$basic_string@DU?$char_traits@D@std@@V?$allocator@D@2@@std@@QEAAAEAV01@$$QEAV01@@Z 0000000140008d40 f i ContentDownloader.obj
 0001:00007dd0       ??_E?$CSingleton@VCContentDownloader@ContentDownloader@@@Base@@UEAAPEAXI@Z 0000000140008dd0 f i * CIL library *:* CIL module *
 0001:00007dd0       ??_G?$CSingleton@VCContentDownloader@ContentDownloader@@@Base@@UEAAPEAXI@Z 0000000140008dd0 f i ContentDownloader.obj
 0001:00007e00       ??_E?$CSingleton@VCManager@Network@@@Base@@UEAAPEAXI@Z 0000000140008e00 f i * CIL library *:* CIL module *
 0001:00007e00       ??_G?$CSingleton@VCManager@Network@@@Base@@UEAAPEAXI@Z 0000000140008e00 f i ContentDownloader.obj
 0001:00007e30       ??$throw_exception@Vbad_alloc@std@@@boost@@YAXAEBVbad_alloc@std@@@Z 0000000140008e30 f i ContentDownloader.obj
 0001:00007e60       ??$timed_join@Vseconds@posix_time@boost@@@thread@boost@@QEAA_NAEBVseconds@posix_time@1@@Z 0000000140008e60 f i ContentDownloader.obj
 0001:00007f30       ??1?$wrapexcept@Ubad_day_of_month@gregorian@boost@@@boost@@UEAA@XZ 0000000140008f30 f i SheepDownloader.obj
 0001:00007f30       ??1?$wrapexcept@Ubad_month@gregorian@boost@@@boost@@UEAA@XZ 0000000140008f30 f i SheepDownloader.obj
 0001:00007f30       ??1?$wrapexcept@Ubad_year@gregorian@boost@@@boost@@UEAA@XZ 0000000140008f30 f i SheepDownloader.obj
 0001:00007f30       ??1?$wrapexcept@Vbad_alloc@std@@@boost@@UEAA@XZ 0000000140008f30 f i ContentDownloader.obj
 0001:00007f30       ??1?$wrapexcept@Vruntime_error@std@@@boost@@UEAA@XZ 0000000140008f30 f i SheepDownloader.obj
 0001:00007f90       ??0?$wrapexcept@Vbad_alloc@std@@@boost@@QEAA@AEBU01@@Z 0000000140008f90 f i ContentDownloader.obj
 0001:00008040       ??_E?$wrapexcept@Ubad_day_of_month@gregorian@boost@@@boost@@UEAAPEAXI@Z 0000000140009040 f i * CIL library *:* CIL module *
 0001:00008040       ??_E?$wrapexcept@Ubad_month@gregorian@boost@@@boost@@UEAAPEAXI@Z 0000000140009040 f i * CIL library *:* CIL module *
 0001:00008040       ??_E?$wrapexcept@Ubad_year@gregorian@boost@@@boost@@UEAAPEAXI@Z 0000000140009040 f i * CIL library *:* CIL module *
 0001:00008040       ??_E?$wrapexcept@Vbad_alloc@std@@@boost@@UEAAPEAXI@Z 0000000140009040 f i * CIL library *:* CIL module *
 0001:00008040       ??_E?$wrapexcept@Vruntime_error@std@@@boost@@UEAAPEAXI@Z 0000000140009040 f i * CIL library *:* CIL module *
 0001:00008040       ??_G?$wrapexcept@Ubad_day_of_month@gregorian@boost@@@boost@@UEAAPEAXI@Z 0000000140009040 f i SheepDownloader.obj
 0001:00008040       ??_G?$wrapexcept@Ubad_month@gregorian@boost@@@boost@@UEAAPEAXI@Z 0000000140009040 f i SheepDownloader.obj
 0001:00008040       ??_G?$wrapexcept@Ubad_year@gregorian@boost@@@boost@@UEAAPEAXI@Z 0000000140009040 f i SheepDownloader.obj
 0001:00008040       ??_G?$wrapexcept@Vbad_alloc@std@@@boost@@UEAAPEAXI@Z 0000000140009040 f i ContentDownloader.obj
 0001:00008040       ??_G?$wrapexcept@Vruntime_error@std@@@boost@@UEAAPEAXI@Z 0000000140009040 f i SheepDownloader.obj
 0001:000080c0       ?rethrow@?$wrapexcept@Vbad_alloc@std@@@boost@@UEBAXXZ 00000001400090c0 f i ContentDownloader.obj
 0001:000080f0       ?clone@?$wrapexcept@Vbad_alloc@std@@@boost@@UEBAPEBVclone_base@exception_detail@2@XZ 00000001400090f0 f i ContentDownloader.obj
 0001:00008150       ??0?$wrapexcept@Vbad_alloc@std@@@boost@@QEAA@AEBVbad_alloc@std@@@Z 0000000140009150 f i ContentDownloader.obj
 0001:000081d0       ??$_Erase_tree@V?$allocator@U?$_Tree_node@U?$pair@$$CBV?$basic_string@DU?$char_traits@D@std@@V?$allocator@D@2@@std@@V12@@std@@PEAX@std@@@std@@@?$_Tree_val@U?$_Tree_simple_types@U?$pair@$$CBV?$basic_string@DU?$char_traits@D@std@@V?$allocator@D@2@@std@@V12@@std@@@std@@@std@@QEAAXAEAV?$allocator@U?$_Tree_node@U?$pair@$$CBV?$basic_string@DU?$char_traits@D@std@@V?$allocator@D@2@@std@@V12@@std@@PEAX@std@@@1@PEAU?$_Tree_node@U?$pair@$$CBV?$basic_string@DU?$char_traits@D@std@@V?$allocator@D@2@@std@@V12@@std@@PEAX@1@@Z 00000001400091d0 f i ContentDownloader.obj
 0001:00008250       ??$_Emplace_reallocate@U?$pair@PEAVcondition_variable@boost@@PEAVmutex@2@@std@@@?$vector@U?$pair@PEAVcondition_variable@boost@@PEAVmutex@2@@std@@V?$allocator@U?$pair@PEAVcondition_variable@boost@@PEAVmutex@2@@std@@@2@@std@@AEAAPEAU?$pair@PEAVcondition_variable@boost@@PEAVmutex@2@@1@QEAU21@$$QEAU21@@Z 0000000140009250 f i ContentDownloader.obj
 0001:000083f0       ??$_Erase_tree@V?$allocator@U?$_Tree_node@U?$pair@QEBXUtss_data_node@detail@boost@@@std@@PEAX@std@@@std@@@?$_Tree_val@U?$_Tree_simple_types@U?$pair@QEBXUtss_data_node@detail@boost@@@std@@@std@@@std@@QEAAXAEAV?$allocator@U?$_Tree_node@U?$pair@QEBXUtss_data_node@detail@boost@@@std@@PEAX@std@@@1@PEAU?$_Tree_node@U?$pair@QEBXUtss_data_node@detail@boost@@@std@@PEAX@1@@Z 00000001400093f0 f i ContentDownloader.obj
 0001:00008450       ?run@?$thread_data@V?$bind_t@XP6AXPEAX@ZV?$list1@V?$value@PEAVSheepDownloader@ContentDownloader@@@_bi@boost@@@_bi@boost@@@_bi@boost@@@detail@boost@@UEAAXXZ 0000000140009450 f i ContentDownloader.obj
 0001:00008450       ?run@?$thread_data@V?$bind_t@XV?$mf0@XVCContentDecoder@ContentDecoder@@@_mfi@boost@@V?$list1@V?$value@PEAVCContentDecoder@ContentDecoder@@@_bi@boost@@@_bi@3@@_bi@boost@@@detail@boost@@UEAAXXZ 0000000140009450 f i ContentDecoder.obj
 0001:00008450       ?run@?$thread_data@V?$bind_t@XV?$mf0@XVCPlayer@@@_mfi@boost@@V?$list1@V?$value@PEAVCPlayer@@@_bi@boost@@@_bi@3@@_bi@boost@@@detail@boost@@UEAAXXZ 0000000140009450 f i Player.obj
 0001:00008450       ?run@?$thread_data@V?$bind_t@XV?$mf0@XVCVote@@@_mfi@boost@@V?$list1@V?$value@PEAVCVote@@@_bi@boost@@@_bi@3@@_bi@boost@@@detail@boost@@UEAAXXZ 0000000140009450 f i Voting.obj
 0001:00008460       ??$heap_new@V?$thread_data@V?$bind_t@XP6AXPEAX@ZV?$list1@V?$value@PEAVSheepDownloader@ContentDownloader@@@_bi@boost@@@_bi@boost@@@_bi@boost@@@detail@boost@@V?$bind_t@XP6AXPEAX@ZV?$list1@V?$value@PEAVSheepDownloader@ContentDownloader@@@_bi@boost@@@_bi@boost@@@_bi@3@@detail@boost@@YAPEAV?$thread_data@V?$bind_t@XP6AXPEAX@ZV?$list1@V?$value@PEAVSheepDownloader@ContentDownloader@@@_bi@boost@@@_bi@boost@@@_bi@boost@@@01@$$QEAV?$bind_t@XP6AXPEAX@ZV?$list1@V?$value@PEAVSheepDownloader@ContentDownloader@@@_bi@boost@@@_bi@boost@@@_bi@1@@Z 0000000140009460 f i ContentDownloader.obj
 0001:000084d0       ??_E?$thread_data@V?$bind_t@XP6AXPEAX@ZV?$list1@V?$value@PEAVSheepDownloader@ContentDownloader@@@_bi@boost@@@_bi@boost@@@_bi@boost@@@detail@boost@@UEAAPEAXI@Z 00000001400094d0 f i * CIL library *:* CIL module *
 0001:000084d0       ??_E?$thread_data@V?$bind_t@XV?$mf0@XVCContentDecoder@ContentDecoder@@@_mfi@boost@@V?$list1@V?$value@PEAVCContentDecoder@ContentDecoder@@@_bi@boost@@@_bi@3@@_bi@boost@@@detail@boost@@UEAAPEAXI@Z 00000001400094d0 f i * CIL library *:* CIL module *
 0001:000084d0       ??_E?$thread_data@V?$bind_t@XV?$mf0@XVCPlayer@@@_mfi@boost@@V?$list1@V?$value@PEAVCPlayer@@@_bi@boost@@@_bi@3@@_bi@boost@@@detail@boost@@UEAAPEAXI@Z 00000001400094d0 f i * CIL library *:* CIL module *
 0001:000084d0       ??_E?$thread_data@V?$bind_t@XV?$mf0@XVCVote@@@_mfi@boost@@V?$list1@V?$value@PEAVCVote@@@_bi@boost@@@_bi@3@@_bi@boost@@@detail@boost@@UEAAPEAXI@Z 00000001400094d0 f i * CIL library *:* CIL module *
 0001:000084d0       ??_G?$thread_data@V?$bind_t@XP6AXPEAX@ZV?$list1@V?$value@PEAVSheepDownloader@ContentDownloader@@@_bi@boost@@@_bi@boost@@@_bi@boost@@@detail@boost@@UEAAPEAXI@Z 00000001400094d0 f i ContentDownloader.obj
 0001:000084d0       ??_G?$thread_data@V?$bind_t@XV?$mf0@XVCContentDecoder@ContentDecoder@@@_mfi@boost@@V?$list1@V?$value@PEAVCContentDecoder@ContentDecoder@@@_bi@boost@@@_bi@3@@_bi@boost@@@detail@boost@@UEAAPEAXI@Z 00000001400094d0 f i ContentDecoder.obj
 0001:000084d0       ??_G?$thread_data@V?$bind_t@XV?$mf0@XVCPlayer@@@_mfi@boost@@V?$list1@V?$value@PEAVCPlayer@@@_bi@boost@@@_bi@3@@_bi@boost@@@detail@boost@@UEAAPEAXI@Z 00000001400094d0 f i Player.obj
 0001:000084d0       ??_G?$thread_data@V?$bind_t@XV?$mf0@XVCVote@@@_mfi@boost@@V?$list1@V?$value@PEAVCVote@@@_bi@boost@@@_bi@3@@_bi@boost@@@detail@boost@@UEAAPEAXI@Z 00000001400094d0 f i Voting.obj
 0001:00008510       ??1?$pair@$$CBV?$basic_string@DU?$char_traits@D@std@@V?$allocator@D@2@@std@@V12@@std@@QEAA@XZ 0000000140009510 f i ContentDownloader.obj
 0001:00008510       ??1?$tuple@V?$basic_string@DU?$char_traits@D@std@@V?$allocator@D@2@@std@@V12@@std@@QEAA@XZ 0000000140009510 f i EDreamClient.obj
 0001:00008510       ??1CException@Base@@QEAA@XZ 0000000140009510 f i FontDX.obj
 0001:000085bc       ??_E?$wrapexcept@Ubad_day_of_month@gregorian@boost@@@boost@@W7EAAPEAXI@Z 00000001400095bc f i SheepDownloader.obj
 0001:000085bc       ??_E?$wrapexcept@Ubad_month@gregorian@boost@@@boost@@W7EAAPEAXI@Z 00000001400095bc f i SheepDownloader.obj
 0001:000085bc       ??_E?$wrapexcept@Ubad_year@gregorian@boost@@@boost@@W7EAAPEAXI@Z 00000001400095bc f i SheepDownloader.obj
 0001:000085bc       ??_E?$wrapexcept@Vbad_alloc@std@@@boost@@W7EAAPEAXI@Z 00000001400095bc f i ContentDownloader.obj
 0001:000085bc       ??_E?$wrapexcept@Vruntime_error@std@@@boost@@W7EAAPEAXI@Z 00000001400095bc f i SheepDownloader.obj
 0001:000085c8       ??_E?$wrapexcept@Ubad_day_of_month@gregorian@boost@@@boost@@WCA@EAAPEAXI@Z 00000001400095c8 f i SheepDownloader.obj
 0001:000085c8       ??_E?$wrapexcept@Ubad_month@gregorian@boost@@@boost@@WCA@EAAPEAXI@Z 00000001400095c8 f i SheepDownloader.obj
 0001:000085c8       ??_E?$wrapexcept@Ubad_year@gregorian@boost@@@boost@@WCA@EAAPEAXI@Z 00000001400095c8 f i SheepDownloader.obj
 0001:000085c8       ??_E?$wrapexcept@Vbad_alloc@std@@@boost@@WCA@EAAPEAXI@Z 00000001400095c8 f i ContentDownloader.obj
 0001:000085c8       ??_E?$wrapexcept@Vruntime_error@std@@@boost@@WCA@EAAPEAXI@Z 00000001400095c8 f i SheepDownloader.obj
 0001:000085e0       ?equivalent@error_category@std@@UEBA_NHAEBVerror_condition@2@@Z 00000001400095e0 f i Dream.obj
 0001:00008620       ?equivalent@error_category@std@@UEBA_NAEBVerror_code@2@H@Z 0000000140009620 f i Dream.obj
 0001:00008640       ?make_error_code@std@@YA?AVerror_code@1@W4io_errc@1@@Z 0000000140009640 f i Dream.obj
 0001:00008660       ?_Makestr@_System_error@std@@CA?AV?$basic_string@DU?$char_traits@D@std@@V?$allocator@D@2@@2@Verror_code@2@V32@@Z 0000000140009660 f i Dream.obj
 0001:00008800       ??0_System_error@std@@IEAA@Verror_code@1@AEBV?$basic_string@DU?$char_traits@D@std@@V?$allocator@D@2@@1@@Z 0000000140009800 f i Dream.obj
 0001:00008900       ??_E_System_error@std@@UEAAPEAXI@Z 0000000140009900 f i * CIL library *:* CIL module *
 0001:00008900       ??_Efailure@ios_base@std@@UEAAPEAXI@Z 0000000140009900 f i * CIL library *:* CIL module *
 0001:00008900       ??_Esystem_error@std@@UEAAPEAXI@Z 0000000140009900 f i * CIL library *:* CIL module *
 0001:00008900       ??_G_System_error@std@@UEAAPEAXI@Z 0000000140009900 f i Dream.obj
 0001:00008900       ??_Gfailure@ios_base@std@@UEAAPEAXI@Z 0000000140009900 f i Dream.obj
 0001:00008900       ??_Gsystem_error@std@@UEAAPEAXI@Z 0000000140009900 f i Dream.obj
 0001:00008950       ??0system_error@std@@QEAA@AEBV01@@Z 0000000140009950 f i Dream.obj
 0001:000089b0       ??0_System_error@std@@QEAA@AEBV01@@Z 00000001400099b0 f i Dream.obj
 0001:00008a00       ?name@_Iostream_error_category2@std@@UEBAPEBDXZ 0000000140009a00 f i Dream.obj
 0001:00008a10       ?message@_Iostream_error_category2@std@@UEBA?AV?$basic_string@DU?$char_traits@D@std@@V?$allocator@D@2@@2@H@Z 0000000140009a10 f i Dream.obj
 0001:00008ad0       ??_E_Generic_error_category@std@@UEAAPEAXI@Z 0000000140009ad0 f i * CIL library *:* CIL module *
 0001:00008ad0       ??_E_Iostream_error_category2@std@@UEAAPEAXI@Z 0000000140009ad0 f i * CIL library *:* CIL module *
 0001:00008ad0       ??_E_System_error_category@std@@UEAAPEAXI@Z 0000000140009ad0 f i * CIL library *:* CIL module *
 0001:00008ad0       ??_G_Generic_error_category@std@@UEAAPEAXI@Z 0000000140009ad0 f i Shepherd.obj
 0001:00008ad0       ??_G_Iostream_error_category2@std@@UEAAPEAXI@Z 0000000140009ad0 f i Dream.obj
 0001:00008ad0       ??_G_System_error_category@std@@UEAAPEAXI@Z 0000000140009ad0 f i EDreamClient.obj
 0001:00008b00       ??0bad_cast@std@@QEAA@XZ   0000000140009b00 f i Dream.obj
 0001:00008b30       ?_Throw_bad_cast@std@@YAXXZ 0000000140009b30 f i Dream.obj
 0001:00008b50       ??0bad_cast@std@@QEAA@AEBV01@@Z 0000000140009b50 f i Dream.obj
 0001:00008b90       ??_E_Facet_base@std@@UEAAPEAXI@Z 0000000140009b90 f i * CIL library *:* CIL module *
 0001:00008b90       ??_G_Facet_base@std@@UEAAPEAXI@Z 0000000140009b90 f i Dream.obj
 0001:00008bc0       ??0_Locinfo@std@@QEAA@PEBD@Z 0000000140009bc0 f i Dream.obj
 0001:00008c40       ??1_Locinfo@std@@QEAA@XZ   0000000140009c40 f i Dream.obj
 0001:00008ce0       ?_Incref@facet@locale@std@@UEAAXXZ 0000000140009ce0 f i Dream.obj
 0001:00008cf0       ?_Decref@facet@locale@std@@UEAAPEAV_Facet_base@3@XZ 0000000140009cf0 f i Dream.obj
 0001:00008d00       ??1facet@locale@std@@MEAA@XZ 0000000140009d00 f i Dream.obj
 0001:00008d00       ??1money_base@std@@UEAA@XZ 0000000140009d00 f i libcpmt:wlocale.obj
 0001:00008d00       ??1time_base@std@@UEAA@XZ  0000000140009d00 f i Dream.obj
 0001:00008d10       ??1_Facet_guard@locale@std@@QEAA@XZ 0000000140009d10 f i Dream.obj
 0001:00008d40       ?_Construct@locale@std@@AEAAXAEBV?$basic_string@DU?$char_traits@D@std@@V?$allocator@D@2@@2@H@Z 0000000140009d40 f i Dream.obj
 0001:00008f20       ??1locale@std@@QEAA@XZ     0000000140009f20 f i Dream.obj
 0001:00008f50       ?_Getcat@?$ctype@D@std@@SA_KPEAPEBVfacet@locale@2@PEBV42@@Z 0000000140009f50 f i Dream.obj
 0001:000090e0       ?do_tolower@?$ctype@D@std@@MEBADD@Z 000000014000a0e0 f i Dream.obj
 0001:000090f0       ?do_tolower@?$ctype@D@std@@MEBAPEBDPEADPEBD@Z 000000014000a0f0 f i Dream.obj
 0001:00009140       ?do_toupper@?$ctype@D@std@@MEBADD@Z 000000014000a140 f i Dream.obj
 0001:00009150       ?do_toupper@?$ctype@D@std@@MEBAPEBDPEADPEBD@Z 000000014000a150 f i Dream.obj
 0001:000091a0       ?EndFrame@CRenderer@DisplayOutput@@UEAA_N_N@Z 000000014000a1a0 f i RendererDX.obj
 0001:000091a0       ?do_narrow@?$ctype@D@std@@MEBADDD@Z 000000014000a1a0 f i Dream.obj
 0001:000091a0       ?do_widen@?$ctype@D@std@@MEBADD@Z 000000014000a1a0 f i Dream.obj
 0001:000091b0       ?do_widen@?$ctype@D@std@@MEBAPEBDPEBD0PEAD@Z 000000014000a1b0 f i Dream.obj
 0001:000091d0       ?do_narrow@?$ctype@D@std@@MEBAPEBDPEBD0DPEAD@Z 000000014000a1d0 f i Dream.obj
 0001:000091f0       ??_E?$ctype@D@std@@MEAAPEAXI@Z 000000014000a1f0 f i * CIL library *:* CIL module *
 0001:000091f0       ??_G?$ctype@D@std@@MEAAPEAXI@Z 000000014000a1f0 f i Dream.obj
 0001:00009260       ??0failure@ios_base@std@@QEAA@PEBDAEBVerror_code@2@@Z 000000014000a260 f i Dream.obj
 0001:00009340       ?clear@ios_base@std@@QEAAXH_N@Z 000000014000a340 f i Dream.obj
 0001:000093d0       ??0failure@ios_base@std@@QEAA@AEBV012@@Z 000000014000a3d0 f i Dream.obj
 0001:00009430       ??_Eios_base@std@@UEAAPEAXI@Z 000000014000a430 f i * CIL library *:* CIL module *
 0001:00009430       ??_Gios_base@std@@UEAAPEAXI@Z 000000014000a430 f i Dream.obj
 0001:00009470       ?_Maklocwcs@std@@YAPEA_WPEB_W@Z 000000014000a470 f i Dream.obj
 0001:000094e0       ??_D?$basic_istringstream@DU?$char_traits@D@std@@V?$allocator@D@2@@std@@QEAAXXZ 000000014000a4e0 f i Dream.obj
 0001:00009570       ?seekpos@?$basic_stringbuf@DU?$char_traits@D@std@@V?$allocator@D@2@@std@@MEAA?AV?$fpos@U_Mbstatet@@@2@V32@H@Z 000000014000a570 f i Dream.obj
 0001:000096a0       ?seekoff@?$basic_stringbuf@DU?$char_traits@D@std@@V?$allocator@D@2@@std@@MEAA?AV?$fpos@U_Mbstatet@@@2@_JHH@Z 000000014000a6a0 f i Dream.obj
 0001:00009830       ?underflow@?$basic_stringbuf@DU?$char_traits@D@std@@V?$allocator@D@2@@std@@MEAAHXZ 000000014000a830 f i Dream.obj
 0001:000098a0       ?pbackfail@?$basic_stringbuf@DU?$char_traits@D@std@@V?$allocator@D@2@@std@@MEAAHH@Z 000000014000a8a0 f i Dream.obj
 0001:00009900       ?overflow@?$basic_stringbuf@DU?$char_traits@D@std@@V?$allocator@D@2@@std@@MEAAHH@Z 000000014000a900 f i Dream.obj
 0001:00009af0       ??1?$basic_stringbuf@DU?$char_traits@D@std@@V?$allocator@D@2@@std@@UEAA@XZ 000000014000aaf0 f i Dream.obj
 0001:00009c20       ??0?$basic_istringstream@DU?$char_traits@D@std@@V?$allocator@D@2@@std@@QEAA@$$QEAV?$basic_string@DU?$char_traits@D@std@@V?$allocator@D@2@@1@H@Z 000000014000ac20 f i Dream.obj
 0001:00009dc0       ?tellg@?$basic_istream@DU?$char_traits@D@std@@@std@@QEAA?AV?$fpos@U_Mbstatet@@@2@XZ 000000014000adc0 f i Dream.obj
 0001:00009ea0       ??1?$basic_istream@DU?$char_traits@D@std@@@std@@UEAA@XZ 000000014000aea0 f i Dream.obj
 0001:00009ed0       ?setbuf@?$basic_streambuf@DU?$char_traits@D@std@@@std@@MEAAPEAV12@PEAD_J@Z 000000014000aed0 f i Dream.obj
 0001:00009ee0       ?seekoff@?$basic_streambuf@DU?$char_traits@D@std@@@std@@MEAA?AV?$fpos@U_Mbstatet@@@2@_JHH@Z 000000014000aee0 f i Dream.obj
 0001:00009ee0       ?seekpos@?$basic_streambuf@DU?$char_traits@D@std@@@std@@MEAA?AV?$fpos@U_Mbstatet@@@2@V32@H@Z 000000014000aee0 f i Dream.obj
 0001:00009f00       ?xsputn@?$basic_streambuf@DU?$char_traits@D@std@@@std@@MEAA_JPEBD_J@Z 000000014000af00 f i Dream.obj
 0001:00009fc0       ?xsgetn@?$basic_streambuf@DU?$char_traits@D@std@@@std@@MEAA_JPEAD_J@Z 000000014000afc0 f i Dream.obj
 0001:0000a080       ?uflow@?$basic_streambuf@DU?$char_traits@D@std@@@std@@MEAAHXZ 000000014000b080 f i Dream.obj
 0001:0000a0c0       ?GetACLineStatus@CElectricSheep@@UEAAHXZ 000000014000b0c0 f i main.obj
 0001:0000a0c0       ?overflow@?$basic_streambuf@DU?$char_traits@D@std@@@std@@MEAAHH@Z 000000014000b0c0 f i Dream.obj
 0001:0000a0c0       ?pbackfail@?$basic_streambuf@DU?$char_traits@D@std@@@std@@MEAAHH@Z 000000014000b0c0 f i Dream.obj
 0001:0000a0c0       ?underflow@?$basic_streambuf@DU?$char_traits@D@std@@@std@@MEAAHXZ 000000014000b0c0 f i Dream.obj
 0001:0000a0d0       ??1?$basic_streambuf@DU?$char_traits@D@std@@@std@@UEAA@XZ 000000014000b0d0 f i Dream.obj
 0001:0000a130       ?imbue@?$basic_ios@DU?$char_traits@D@std@@@std@@QEAA?AVlocale@2@AEBV32@@Z 000000014000b130 f i Dream.obj
 0001:0000a290       ??1?$basic_ios@DU?$char_traits@D@std@@@std@@UEAA@XZ 000000014000b290 f i Dream.obj
 0001:0000a2b0       ??1?$_Yarn@D@std@@QEAA@XZ  000000014000b2b0 f i Dream.obj
 0001:0000a2b0       ??1?$_Yarn@_W@std@@QEAA@XZ 000000014000b2b0 f i Dream.obj
 0001:0000a2e0       ??4?$_Yarn@_W@std@@QEAAAEAV01@PEB_W@Z 000000014000b2e0 f i Dream.obj
 0001:0000a380       ??4?$_Yarn@D@std@@QEAAAEAV01@PEBD@Z 000000014000b380 f i Dream.obj
 0001:0000a410       ??_E?$basic_stringbuf@DU?$char_traits@D@std@@V?$allocator@D@2@@std@@UEAAPEAXI@Z 000000014000b410 f i * CIL library *:* CIL module *
 0001:0000a410       ??_G?$basic_stringbuf@DU?$char_traits@D@std@@V?$allocator@D@2@@std@@UEAAPEAXI@Z 000000014000b410 f i Dream.obj
 0001:0000a450       ??_E?$basic_istringstream@DU?$char_traits@D@std@@V?$allocator@D@2@@std@@UEAAPEAXI@Z 000000014000b450 f i * CIL library *:* CIL module *
 0001:0000a450       ??_G?$basic_istringstream@DU?$char_traits@D@std@@V?$allocator@D@2@@std@@UEAAPEAXI@Z 000000014000b450 f i Dream.obj
 0001:0000a490       ??1sentry@?$basic_istream@DU?$char_traits@D@std@@@std@@QEAA@XZ 000000014000b490 f i Dream.obj
 0001:0000a4c0       ??_E?$basic_istream@DU?$char_traits@D@std@@@std@@UEAAPEAXI@Z 000000014000b4c0 f i * CIL library *:* CIL module *
 0001:0000a4c0       ??_G?$basic_istream@DU?$char_traits@D@std@@@std@@UEAAPEAXI@Z 000000014000b4c0 f i Dream.obj
 0001:0000a530       ??_E?$basic_streambuf@DU?$char_traits@D@std@@@std@@UEAAPEAXI@Z 000000014000b530 f i * CIL library *:* CIL module *
 0001:0000a530       ??_G?$basic_streambuf@DU?$char_traits@D@std@@@std@@UEAAPEAXI@Z 000000014000b530 f i Dream.obj
 0001:0000a5b0       ??_E?$basic_ios@DU?$char_traits@D@std@@@std@@UEAAPEAXI@Z 000000014000b5b0 f i * CIL library *:* CIL module *
 0001:0000a5b0       ??_G?$basic_ios@DU?$char_traits@D@std@@@std@@UEAAPEAXI@Z 000000014000b5b0 f i Dream.obj
 0001:0000a5f0       ??1_Sentry_base@?$basic_istream@DU?$char_traits@D@std@@@std@@QEAA@XZ 000000014000b5f0 f i Dream.obj
 0001:0000a5f0       ??1_Sentry_base@?$basic_ostream@DU?$char_traits@D@std@@@std@@QEAA@XZ 000000014000b5f0 f i Dream.obj
 0001:0000a620       ?_Ipfx@?$basic_istream@DU?$char_traits@D@std@@@std@@QEAA_N_N@Z 000000014000b620 f i Dream.obj
 0001:0000a860       ??0?$basic_streambuf@DU?$char_traits@D@std@@@std@@IEAA@XZ 000000014000b860 f i Dream.obj
 0001:0000a940       ?init@?$basic_ios@DU?$char_traits@D@std@@@std@@IEAAXPEAV?$basic_streambuf@DU?$char_traits@D@std@@@2@_N@Z 000000014000b940 f i Dream.obj
 0001:0000aaa0       ?snextc@?$basic_streambuf@DU?$char_traits@D@std@@@std@@QEAAHXZ 000000014000baa0 f i Dream.obj
 0001:0000ab50       ?flush@?$basic_ostream@DU?$char_traits@D@std@@@std@@QEAAAEAV12@XZ 000000014000bb50 f i Dream.obj
 0001:0000ac80       ??1sentry@?$basic_ostream@DU?$char_traits@D@std@@@std@@QEAA@XZ 000000014000bc80 f i Dream.obj
 0001:0000acc0       ??0sentry@?$basic_ostream@DU?$char_traits@D@std@@@std@@QEAA@AEAV12@@Z 000000014000bcc0 f i Dream.obj
 0001:0000ad40       ?_Osfx@?$basic_ostream@DU?$char_traits@D@std@@@std@@QEAAXXZ 000000014000bd40 f i Dream.obj
 0001:0000adf0       ??$use_facet@V?$ctype@D@std@@@std@@YAAEBV?$ctype@D@0@AEBVlocale@0@@Z 000000014000bdf0 f i Dream.obj
 0001:0000af00       ??$?5DU?$char_traits@D@std@@@std@@YAAEAV?$basic_istream@DU?$char_traits@D@std@@@0@AEAV10@AEBU?$_Timeobj@DPEAUtm@@@0@@Z 000000014000bf00 f i Dream.obj
 0001:0000b200       ?do_get@?$time_get@DV?$istreambuf_iterator@DU?$char_traits@D@std@@@std@@@std@@MEBA?AV?$istreambuf_iterator@DU?$char_traits@D@std@@@2@V32@0AEAVios_base@2@AEAHPEAUtm@@DD@Z 000000014000c200 f i Dream.obj
 0001:0000c4b0       ?do_get_year@?$time_get@DV?$istreambuf_iterator@DU?$char_traits@D@std@@@std@@@std@@MEBA?AV?$istreambuf_iterator@DU?$char_traits@D@std@@@2@V32@0AEAVios_base@2@AEAHPEAUtm@@@Z 000000014000d4b0 f i Dream.obj
 0001:0000c5b0       ?do_get_monthname@?$time_get@DV?$istreambuf_iterator@DU?$char_traits@D@std@@@std@@@std@@MEBA?AV?$istreambuf_iterator@DU?$char_traits@D@std@@@2@V32@0AEAVios_base@2@AEAHPEAUtm@@@Z 000000014000d5b0 f i Dream.obj
 0001:0000c610       ?do_get_weekday@?$time_get@DV?$istreambuf_iterator@DU?$char_traits@D@std@@@std@@@std@@MEBA?AV?$istreambuf_iterator@DU?$char_traits@D@std@@@2@V32@0AEAVios_base@2@AEAHPEAUtm@@@Z 000000014000d610 f i Dream.obj
 0001:0000c670       ?do_get_date@?$time_get@DV?$istreambuf_iterator@DU?$char_traits@D@std@@@std@@@std@@MEBA?AV?$istreambuf_iterator@DU?$char_traits@D@std@@@2@V32@0AEAVios_base@2@AEAHPEAUtm@@@Z 000000014000d670 f i Dream.obj
 0001:0000d3c0       ?do_get_time@?$time_get@DV?$istreambuf_iterator@DU?$char_traits@D@std@@@std@@@std@@MEBA?AV?$istreambuf_iterator@DU?$char_traits@D@std@@@2@V32@0AEAVios_base@2@AEAHPEAUtm@@@Z 000000014000e3c0 f i Dream.obj
 0001:0000d560       ?do_date_order@?$time_get@DV?$istreambuf_iterator@DU?$char_traits@D@std@@@std@@@std@@MEBA?AW4dateorder@time_base@2@XZ 000000014000e560 f i Dream.obj
 0001:0000d560       ?do_date_order@?$time_get@GV?$istreambuf_iterator@GU?$char_traits@G@std@@@std@@@std@@MEBA?AW4dateorder@time_base@2@XZ 000000014000e560 f i libcpmt:wlocale.obj
 0001:0000d560       ?do_date_order@?$time_get@_WV?$istreambuf_iterator@_WU?$char_traits@_W@std@@@std@@@std@@MEBA?AW4dateorder@time_base@2@XZ 000000014000e560 f i libcpmt:wlocale.obj
 0001:0000d570       ?get@?$time_get@DV?$istreambuf_iterator@DU?$char_traits@D@std@@@std@@@std@@QEBA?AV?$istreambuf_iterator@DU?$char_traits@D@std@@@2@V32@0AEAVios_base@2@AEAHPEAUtm@@PEBD4@Z 000000014000e570 f i Dream.obj
 0001:0000d980       ??1?$_Temporary_owner@VCVideoFrame@ContentDecoder@@@std@@QEAA@XZ 000000014000e980 f i ContentDecoder.obj
 0001:0000d980       ??1?$unique_ptr@V_Facet_base@std@@U?$default_delete@V_Facet_base@std@@@2@@std@@QEAA@XZ 000000014000e980 f i Dream.obj
 0001:0000d9a0       ??_E?$time_get@DV?$istreambuf_iterator@DU?$char_traits@D@std@@@std@@@std@@MEAAPEAXI@Z 000000014000e9a0 f i * CIL library *:* CIL module *
 0001:0000d9a0       ??_G?$time_get@DV?$istreambuf_iterator@DU?$char_traits@D@std@@@std@@@std@@MEAAPEAXI@Z 000000014000e9a0 f i Dream.obj
 0001:0000da00       ??E?$istreambuf_iterator@DU?$char_traits@D@std@@@std@@QEAAAEAV01@XZ 000000014000ea00 f i Dream.obj
 0001:0000da70       ??D?$istreambuf_iterator@DU?$char_traits@D@std@@@std@@QEBADXZ 000000014000ea70 f i Dream.obj
 0001:0000dae0       ?_Getint@?$time_get@DV?$istreambuf_iterator@DU?$char_traits@D@std@@@std@@@std@@AEBAHAEAV?$istreambuf_iterator@DU?$char_traits@D@std@@@2@0HHAEAHAEBV?$ctype@D@2@@Z 000000014000eae0 f i Dream.obj
 0001:0000db30       ?_Getfmt@?$time_get@DV?$istreambuf_iterator@DU?$char_traits@D@std@@@std@@@std@@IEBA?AV?$istreambuf_iterator@DU?$char_traits@D@std@@@2@V32@0AEAVios_base@2@AEAHPEAUtm@@PEBD@Z 000000014000eb30 f i Dream.obj
 0001:0000deb0       ??$use_facet@V?$time_get@DV?$istreambuf_iterator@DU?$char_traits@D@std@@@std@@@std@@@std@@YAAEBV?$time_get@DV?$istreambuf_iterator@DU?$char_traits@D@std@@@std@@@0@AEBVlocale@0@@Z 000000014000eeb0 f i Dream.obj
 0001:0000dfc0       ??$_Getloctxt@V?$istreambuf_iterator@DU?$char_traits@D@std@@@std@@D@std@@YAHAEAV?$istreambuf_iterator@DU?$char_traits@D@std@@@0@0_KPEBDW4_Case_sensitive@0@@Z 000000014000efc0 f i Dream.obj
 0001:0000e3d0       ??$?8DU?$char_traits@D@std@@@std@@YA_NAEBV?$istreambuf_iterator@DU?$char_traits@D@std@@@0@0@Z 000000014000f3d0 f i Dream.obj
 0001:0000e3d0       ?equal@?$istreambuf_iterator@DU?$char_traits@D@std@@@std@@QEBA_NAEBV12@@Z 000000014000f3d0 f i Dream.obj
 0001:0000e4a0       ??$_Getint_v2@V?$istreambuf_iterator@DU?$char_traits@D@std@@@std@@D@std@@YAHAEAV?$istreambuf_iterator@DU?$char_traits@D@std@@@0@0HHAEAH1AEBV?$ctype@D@0@@Z 000000014000f4a0 f i Dream.obj
 0001:0000ebe0       ?_Getcat@?$time_get@DV?$istreambuf_iterator@DU?$char_traits@D@std@@@std@@@std@@SA_KPEAPEBVfacet@locale@2@PEBV42@@Z 000000014000fbe0 f i Dream.obj
 0001:0000ed80       ??1?$_Tidy_guard@V?$time_get@DV?$istreambuf_iterator@DU?$char_traits@D@std@@@std@@@std@@@std@@QEAA@XZ 000000014000fd80 f i Dream.obj
 0001:0000edc0       ??$_Getvals@D@?$time_get@DV?$istreambuf_iterator@DU?$char_traits@D@std@@@std@@@std@@IEAAXDAEBV_Locinfo@1@@Z 000000014000fdc0 f i Dream.obj
 0001:0000ef80       ??$_Maklocstr@D@std@@YAPEADPEBDPEADAEBU_Cvtvec@@@Z 000000014000ff80 f i Dream.obj
 0001:0000eff0       ??_E?$basic_istream@DU?$char_traits@D@std@@@std@@$4PPPPPPPM@A@EAAPEAXI@Z 000000014000fff0 f i Dream.obj
 0001:0000effc       ??_E?$basic_istringstream@DU?$char_traits@D@std@@V?$allocator@D@2@@std@@$4PPPPPPPM@A@EAAPEAXI@Z 000000014000fffc f i Dream.obj
 0001:0000f010       sprintf_s                  0000000140010010 f i SheepDownloader.obj
 0001:0000f070       ??1storage_ptr@json@boost@@QEAA@XZ 0000000140010070 f i SheepDownloader.obj
 0001:0000f0a0       ??0error_code@system@boost@@QEAA@XZ 00000001400100a0 f i SheepDownloader.obj
 0001:0000f0c0       ??0value@json@boost@@QEAA@Vobject@12@@Z 00000001400100c0 f i SheepDownloader.obj
 0001:0000f160       ?string@path@filesystem@boost@@QEBA?AV?$basic_string@DU?$char_traits@D@std@@V?$allocator@D@2@@std@@XZ 0000000140010160 f i SheepDownloader.obj
 0001:0000f1d0       ??1?$basic_string@_WU?$char_traits@_W@std@@V?$allocator@_W@2@@std@@QEAA@XZ 00000001400101d0 f i SheepDownloader.obj
 0001:0000f1d0       ??1path@filesystem@boost@@QEAA@XZ 00000001400101d0 f i SheepDownloader.obj
 0001:0000f1d0       ??1path@filesystem@std@@QEAA@XZ 00000001400101d0 f i storage.obj
 0001:0000f1d0       ?_Tidy_deallocate@?$basic_string@_WU?$char_traits@_W@std@@V?$allocator@_W@2@@std@@AEAAXXZ 00000001400101d0 f i SheepDownloader.obj
 0001:0000f240       ?gmtime@c_time@date_time@boost@@SAPEAUtm@@PEB_JPEAU4@@Z 0000000140010240 f i SheepDownloader.obj
 0001:0000f270       ??0bad_day_of_month@gregorian@boost@@QEAA@XZ 0000000140010270 f i SheepDownloader.obj
 0001:0000f370       ??0bad_day_of_month@gregorian@boost@@QEAA@AEBV?$basic_string@DU?$char_traits@D@std@@V?$allocator@D@2@@std@@@Z 0000000140010370 f i SheepDownloader.obj
 0001:0000f3d0       ??0bad_year@gregorian@boost@@QEAA@XZ 00000001400103d0 f i SheepDownloader.obj
 0001:0000f4e0       ??0bad_month@gregorian@boost@@QEAA@XZ 00000001400104e0 f i SheepDownloader.obj
 0001:0000f5e0       ??0date@gregorian@boost@@QEAA@Vgreg_year@12@Vgreg_month@12@Vgreg_day@12@@Z 00000001400105e0 f i SheepDownloader.obj
 0001:0000f740       ?_Throw_tree_length_error@std@@YAXXZ 0000000140010740 f i SheepDownloader.obj
 0001:0000f760       ?sleep@this_thread@boost@@YAXAEBVptime@posix_time@2@@Z 0000000140010760 f i SheepDownloader.obj
 0001:0000f950       ?g_ContentDownloader@@YAAEAVCContentDownloader@ContentDownloader@@XZ 0000000140010950 f i SheepDownloader.obj
 0001:0000f9e0       ?PrintJSON@JSONUtil@@SA?AV?$basic_string@DU?$char_traits@D@std@@V?$allocator@D@2@@std@@AEBVvalue@json@boost@@@Z 00000001400109e0 f i SheepDownloader.obj
 0001:0000fac0       ??_D?$basic_stringstream@DU?$char_traits@D@std@@V?$allocator@D@2@@std@@QEAAXXZ 0000000140010ac0 f i SheepDownloader.obj
 0001:0000fbb0       ?push_back@SheepArray@ContentDownloader@@QEAAXPEAUsDreamMetadata@2@@Z 0000000140010bb0 f i SheepDownloader.obj
 0001:0000fc40       ??0CPlayCounter@@QEAA@XZ   0000000140010c40 f i SheepDownloader.obj
 0001:0000ff00       ??1CPlayCounter@@UEAA@XZ   0000000140010f00 f i SheepDownloader.obj
 0001:0000ffc0       ?Description@CPlayCounter@@UEAAPEBDXZ 0000000140010fc0 f i SheepDownloader.obj
 0001:0000ffc0       ?Description@CPlayer@@UEAAPEBDXZ 0000000140010fc0 f i SheepDownloader.obj
 0001:0000ffd0       ?ClosePlayCounts@CPlayCounter@@QEAAXXZ 0000000140010fd0 f i SheepDownloader.obj
 0001:00010260       ?Shutdown@CPlayCounter@@UEAA_NXZ 0000000140011260 f i SheepDownloader.obj
 0001:00010270       ??_ECPlayCounter@@UEAAPEAXI@Z 0000000140011270 f i * CIL library *:* CIL module *
 0001:00010270       ??_GCPlayCounter@@UEAAPEAXI@Z 0000000140011270 f i SheepDownloader.obj
 0001:000102b0       ??1?$map@IUsPlayCountData@@U?$less@I@std@@V?$allocator@U?$pair@$$CBIUsPlayCountData@@@std@@@3@@std@@QEAA@XZ 00000001400112b0 f i SheepDownloader.obj
 0001:00010300       ?g_PlayCounter@@YAAEAVCPlayCounter@@XZ 0000000140011300 f i SheepDownloader.obj
 0001:00010380       ?cacheSize@Shepherd@ContentDownloader@@SAHH@Z 0000000140011380 f i SheepDownloader.obj
 0001:000103f0       ??0SheepArray@ContentDownloader@@QEAA@XZ 00000001400113f0 f i SheepDownloader.obj
 0001:00010490       ??1?$_Hash@V?$_Umap_traits@V?$basic_string_view@DU?$char_traits@D@std@@@std@@PEAUsDreamMetadata@ContentDownloader@@V?$_Uhash_compare@V?$basic_string_view@DU?$char_traits@D@std@@@std@@U?$hash@V?$basic_string_view@DU?$char_traits@D@std@@@std@@@2@U?$equal_to@V?$basic_string_view@DU?$char_traits@D@std@@@std@@@2@@2@V?$allocator@U?$pair@$$CBV?$basic_string_view@DU?$char_traits@D@std@@@std@@PEAUsDreamMetadata@ContentDownloader@@@std@@@2@$0A@@std@@@std@@QEAA@XZ 0000000140011490 f i SheepDownloader.obj
 0001:00010540       ??1SheepArray@ContentDownloader@@QEAA@XZ 0000000140011540 f i SheepDownloader.obj
 0001:000105b0       ?g_Player@@YAAEAVCPlayer@@XZ 00000001400115b0 f i SheepDownloader.obj
 0001:00010630       ??_ESheepDownloader@ContentDownloader@@UEAAPEAXI@Z 0000000140011630 f i * CIL library *:* CIL module *
 0001:00010630       ??_GSheepDownloader@ContentDownloader@@UEAAPEAXI@Z 0000000140011630 f i SheepDownloader.obj
 0001:00010840       ??_D?$basic_ifstream@DU?$char_traits@D@std@@@std@@QEAAXXZ 0000000140011840 f i SheepDownloader.obj
 0001:000108e0       ?imbue@?$basic_filebuf@DU?$char_traits@D@std@@@std@@MEAAXAEBVlocale@2@@Z 00000001400118e0 f i SheepDownloader.obj
 0001:00010910       ?sync@?$basic_filebuf@DU?$char_traits@D@std@@@std@@MEAAHXZ 0000000140011910 f i SheepDownloader.obj
 0001:00010960       ?setbuf@?$basic_filebuf@DU?$char_traits@D@std@@@std@@MEAAPEAV?$basic_streambuf@DU?$char_traits@D@std@@@2@PEAD_J@Z 0000000140011960 f i SheepDownloader.obj
 0001:000109c0       ?seekpos@?$basic_filebuf@DU?$char_traits@D@std@@@std@@MEAA?AV?$fpos@U_Mbstatet@@@2@V32@H@Z 00000001400119c0 f i SheepDownloader.obj
 0001:00010a80       ?seekoff@?$basic_filebuf@DU?$char_traits@D@std@@@std@@MEAA?AV?$fpos@U_Mbstatet@@@2@_JHH@Z 0000000140011a80 f i SheepDownloader.obj
 0001:00010b50       ?xsputn@?$basic_filebuf@DU?$char_traits@D@std@@@std@@MEAA_JPEBD_J@Z 0000000140011b50 f i SheepDownloader.obj
 0001:00010c90       ?xsgetn@?$basic_filebuf@DU?$char_traits@D@std@@@std@@MEAA_JPEAD_J@Z 0000000140011c90 f i SheepDownloader.obj
 0001:00010e40       ?uflow@?$basic_filebuf@DU?$char_traits@D@std@@@std@@MEAAHXZ 0000000140011e40 f i SheepDownloader.obj
 0001:00011120       ?underflow@?$basic_filebuf@DU?$char_traits@D@std@@@std@@MEAAHXZ 0000000140012120 f i SheepDownloader.obj
 0001:00011190       ?pbackfail@?$basic_filebuf@DU?$char_traits@D@std@@@std@@MEAAHH@Z 0000000140012190 f i SheepDownloader.obj
 0001:00011280       ?overflow@?$basic_filebuf@DU?$char_traits@D@std@@@std@@MEAAHH@Z 0000000140012280 f i SheepDownloader.obj
 0001:00011420       ?_Unlock@?$basic_filebuf@DU?$char_traits@D@std@@@std@@UEAAXXZ 0000000140012420 f i SheepDownloader.obj
 0001:00011440       ?_Lock@?$basic_filebuf@DU?$char_traits@D@std@@@std@@UEAAXXZ 0000000140012440 f i SheepDownloader.obj
 0001:00011460       ??1?$basic_filebuf@DU?$char_traits@D@std@@@std@@UEAA@XZ 0000000140012460 f i SheepDownloader.obj
 0001:00011510       ?close@?$basic_ifstream@DU?$char_traits@D@std@@@std@@QEAAXXZ 0000000140012510 f i SheepDownloader.obj
 0001:000115b0       ??1?$scoped_lock@Vmutex@std@@@std@@QEAA@XZ 00000001400125b0 f i SheepDownloader.obj
 0001:000115c0       ??1?$CSingleton@VCPlayCounter@@@Base@@UEAA@XZ 00000001400125c0 f i SheepDownloader.obj
 0001:000115d0       ??1?$_Hash_vec@V?$allocator@V?$_List_unchecked_iterator@V?$_List_val@U?$_List_simple_types@U?$pair@$$CBV?$basic_string_view@DU?$char_traits@D@std@@@std@@PEAUsDreamMetadata@ContentDownloader@@@std@@@std@@@std@@@std@@@std@@@std@@QEAA@XZ 00000001400125d0 f i SheepDownloader.obj
 0001:000115d0       ??1?$vector@PEAUsDreamMetadata@ContentDownloader@@V?$allocator@PEAUsDreamMetadata@ContentDownloader@@@std@@@std@@QEAA@XZ 00000001400125d0 f i SheepDownloader.obj
 0001:00011630       ?clear@?$_Hash@V?$_Umap_traits@V?$basic_string_view@DU?$char_traits@D@std@@@std@@PEAUsDreamMetadata@ContentDownloader@@V?$_Uhash_compare@V?$basic_string_view@DU?$char_traits@D@std@@@std@@U?$hash@V?$basic_string_view@DU?$char_traits@D@std@@@std@@@2@U?$equal_to@V?$basic_string_view@DU?$char_traits@D@std@@@std@@@2@@2@V?$allocator@U?$pair@$$CBV?$basic_string_view@DU?$char_traits@D@std@@@std@@PEAUsDreamMetadata@ContentDownloader@@@std@@@2@$0A@@std@@@std@@QEAAXXZ 0000000140012630 f i SheepDownloader.obj
 0001:000116f0       ??1?$list@U?$pair@$$CBV?$basic_string_view@DU?$char_traits@D@std@@@std@@PEAUsDreamMetadata@ContentDownloader@@@std@@V?$allocator@U?$pair@$$CBV?$basic_string_view@DU?$char_traits@D@std@@@std@@PEAUsDreamMetadata@ContentDownloader@@@std@@@2@@std@@QEAA@XZ 00000001400126f0 f i SheepDownloader.obj
 0001:00011750       ??1?$vector@V?$basic_string@DU?$char_traits@D@std@@V?$allocator@D@2@@std@@V?$allocator@V?$basic_string@DU?$char_traits@D@std@@V?$allocator@D@2@@std@@@2@@std@@QEAA@XZ 0000000140012750 f i SheepDownloader.obj
 0001:00011760       ??0?$basic_stringstream@DU?$char_traits@D@std@@V?$allocator@D@2@@std@@QEAA@XZ 0000000140012760 f i SheepDownloader.obj
 0001:000118d0       ??1?$basic_iostream@DU?$char_traits@D@std@@@std@@UEAA@XZ 00000001400128d0 f i SheepDownloader.obj
 0001:00011950       ??H?$base_time@Vptime@posix_time@boost@@V?$counted_time_system@U?$counted_time_rep@Vmillisec_posix_time_system_config@posix_time@boost@@@date_time@boost@@@date_time@3@@date_time@boost@@QEBA?AVptime@posix_time@2@AEBVtime_duration@42@@Z 0000000140012950 f i SheepDownloader.obj
 0001:00011a50       ??0?$base_time@Vptime@posix_time@boost@@V?$counted_time_system@U?$counted_time_rep@Vmillisec_posix_time_system_config@posix_time@boost@@@date_time@boost@@@date_time@3@@date_time@boost@@QEAA@AEBVdate@gregorian@2@AEBVtime_duration@posix_time@2@W4dst_flags@12@@Z 0000000140012a50 f i SheepDownloader.obj
 0001:00011b70       ??6?$basic_ostream@DU?$char_traits@D@std@@@std@@QEAAAEAV01@I@Z 0000000140012b70 f i SheepDownloader.obj
 0001:00011d80       ??1?$basic_ostream@DU?$char_traits@D@std@@@std@@UEAA@XZ 0000000140012d80 f i SheepDownloader.obj
 0001:00011db0       ??0?$basic_string@_WU?$char_traits@_W@std@@V?$allocator@_W@2@@std@@QEAA@AEBV01@@Z 0000000140012db0 f i SheepDownloader.obj
 0001:00011ee0       ?find_last_of@?$basic_string@DU?$char_traits@D@std@@V?$allocator@D@2@@std@@QEBA_KQEBD_K@Z 0000000140012ee0 f i SheepDownloader.obj
 0001:00011fe0       ??_E?$basic_filebuf@DU?$char_traits@D@std@@@std@@UEAAPEAXI@Z 0000000140012fe0 f i * CIL library *:* CIL module *
 0001:00011fe0       ??_G?$basic_filebuf@DU?$char_traits@D@std@@@std@@UEAAPEAXI@Z 0000000140012fe0 f i SheepDownloader.obj
 0001:00012020       ??_E?$basic_ifstream@DU?$char_traits@D@std@@@std@@UEAAPEAXI@Z 0000000140013020 f i * CIL library *:* CIL module *
 0001:00012020       ??_G?$basic_ifstream@DU?$char_traits@D@std@@@std@@UEAAPEAXI@Z 0000000140013020 f i SheepDownloader.obj
 0001:00012060       ??_E?$CSingleton@VCPlayCounter@@@Base@@UEAAPEAXI@Z 0000000140013060 f i * CIL library *:* CIL module *
 0001:00012060       ??_G?$CSingleton@VCPlayCounter@@@Base@@UEAAPEAXI@Z 0000000140013060 f i SheepDownloader.obj
 0001:00012090       ??_E?$basic_stringstream@DU?$char_traits@D@std@@V?$allocator@D@2@@std@@UEAAPEAXI@Z 0000000140013090 f i * CIL library *:* CIL module *
 0001:00012090       ??_G?$basic_stringstream@DU?$char_traits@D@std@@V?$allocator@D@2@@std@@UEAAPEAXI@Z 0000000140013090 f i SheepDownloader.obj
 0001:000120d0       ??_E?$basic_iostream@DU?$char_traits@D@std@@@std@@UEAAPEAXI@Z 00000001400130d0 f i * CIL library *:* CIL module *
 0001:000120d0       ??_G?$basic_iostream@DU?$char_traits@D@std@@@std@@UEAAPEAXI@Z 00000001400130d0 f i SheepDownloader.obj
 0001:00012180       ??_E?$basic_ostream@DU?$char_traits@D@std@@@std@@UEAAPEAXI@Z 0000000140013180 f i * CIL library *:* CIL module *
 0001:00012180       ??_G?$basic_ostream@DU?$char_traits@D@std@@@std@@UEAAPEAXI@Z 0000000140013180 f i SheepDownloader.obj
 0001:000121f0       ?do_put@?$num_put@DV?$ostreambuf_iterator@DU?$char_traits@D@std@@@std@@@std@@MEBA?AV?$ostreambuf_iterator@DU?$char_traits@D@std@@@2@V32@AEAVios_base@2@DPEBX@Z 00000001400131f0 f i SheepDownloader.obj
 0001:000122a0       ?do_put@?$num_put@DV?$ostreambuf_iterator@DU?$char_traits@D@std@@@std@@@std@@MEBA?AV?$ostreambuf_iterator@DU?$char_traits@D@std@@@2@V32@AEAVios_base@2@DO@Z 00000001400132a0 f i SheepDownloader.obj
 0001:000125a0       ?do_put@?$num_put@DV?$ostreambuf_iterator@DU?$char_traits@D@std@@@std@@@std@@MEBA?AV?$ostreambuf_iterator@DU?$char_traits@D@std@@@2@V32@AEAVios_base@2@DN@Z 00000001400135a0 f i SheepDownloader.obj
 0001:000128a0       ?do_put@?$num_put@DV?$ostreambuf_iterator@DU?$char_traits@D@std@@@std@@@std@@MEBA?AV?$ostreambuf_iterator@DU?$char_traits@D@std@@@2@V32@AEAVios_base@2@D_K@Z 00000001400138a0 f i SheepDownloader.obj
 0001:000129c0       ?do_put@?$num_put@DV?$ostreambuf_iterator@DU?$char_traits@D@std@@@std@@@std@@MEBA?AV?$ostreambuf_iterator@DU?$char_traits@D@std@@@2@V32@AEAVios_base@2@D_J@Z 00000001400139c0 f i SheepDownloader.obj
 0001:00012ae0       ?do_put@?$num_put@DV?$ostreambuf_iterator@DU?$char_traits@D@std@@@std@@@std@@MEBA?AV?$ostreambuf_iterator@DU?$char_traits@D@std@@@2@V32@AEAVios_base@2@DK@Z 0000000140013ae0 f i SheepDownloader.obj
 0001:00012bf0       ?do_put@?$num_put@DV?$ostreambuf_iterator@DU?$char_traits@D@std@@@std@@@std@@MEBA?AV?$ostreambuf_iterator@DU?$char_traits@D@std@@@2@V32@AEAVios_base@2@DJ@Z 0000000140013bf0 f i SheepDownloader.obj
 0001:00012d00       ?do_put@?$num_put@DV?$ostreambuf_iterator@DU?$char_traits@D@std@@@std@@@std@@MEBA?AV?$ostreambuf_iterator@DU?$char_traits@D@std@@@2@V32@AEAVios_base@2@D_N@Z 0000000140013d00 f i SheepDownloader.obj
 0001:00013010       ?do_length@?$codecvt@DDU_Mbstatet@@@std@@MEBAHAEAU_Mbstatet@@PEBD1_K@Z 0000000140014010 f i SheepDownloader.obj
 0001:00013030       ?do_unshift@?$codecvt@DDU_Mbstatet@@@std@@MEBAHAEAU_Mbstatet@@PEAD1AEAPEAD@Z 0000000140014030 f i SheepDownloader.obj
 0001:00013040       ?do_in@?$codecvt@DDU_Mbstatet@@@std@@MEBAHAEAU_Mbstatet@@PEBD1AEAPEBDPEAD3AEAPEAD@Z 0000000140014040 f i SheepDownloader.obj
 0001:00013040       ?do_out@?$codecvt@DDU_Mbstatet@@@std@@MEBAHAEAU_Mbstatet@@PEBD1AEAPEBDPEAD3AEAPEAD@Z 0000000140014040 f i SheepDownloader.obj
 0001:00013060       ?BeginFrame@CRenderer@DisplayOutput@@UEAA_NXZ 0000000140014060 f i RendererDX.obj
 0001:00013060       ?Bind@CTextureFlat@DisplayOutput@@UEAA_NI@Z 0000000140014060 f i TextureFlat.obj
 0001:00013060       ?Shutdown@CReusableAlignedBuffers@Base@@UEAA_NXZ 0000000140014060 f i AlignedBuffer.obj
 0001:00013060       ?Unbind@CTextureFlat@DisplayOutput@@UEAA_NI@Z 0000000140014060 f i TextureFlat.obj
 0001:00013060       ?Visible@CCrossFade@Hud@@UEBA_NXZ 0000000140014060 f i main.obj
 0001:00013060       ?Visible@CServerMessage@Hud@@UEBA_NXZ 0000000140014060 f i main.obj
 0001:00013060       ?Visible@CSplash@Hud@@UEBA_NXZ 0000000140014060 f i main.obj
 0001:00013060       ?Visible@CSplashImage@Hud@@UEBA_NXZ 0000000140014060 f i main.obj
 0001:00013060       ?do_always_noconv@?$codecvt@DDU_Mbstatet@@@std@@MEBA_NXZ 0000000140014060 f i SheepDownloader.obj
 0001:00013060       __acrt_uninitialize_command_line 0000000140014060 f i libucrt:argv_data.obj
 0001:00013060       _should_initialize_environment 0000000140014060 f i LIBCMT:env_mode.obj
 0001:00013070       ?_Reset_back@?$basic_filebuf@DU?$char_traits@D@std@@@std@@AEAAXXZ 0000000140014070 f i SheepDownloader.obj
 0001:000130a0       ?_Initcvt@?$basic_filebuf@DU?$char_traits@D@std@@@std@@IEAAXAEBV?$codecvt@DDU_Mbstatet@@@2@@Z 00000001400140a0 f i SheepDownloader.obj
 0001:00013120       ?_Endwrite@?$basic_filebuf@DU?$char_traits@D@std@@@std@@IEAA_NXZ 0000000140014120 f i SheepDownloader.obj
 0001:00013210       ?_Init@?$basic_filebuf@DU?$char_traits@D@std@@@std@@IEAAXPEAU_iobuf@@W4_Initfl@12@@Z 0000000140014210 f i SheepDownloader.obj
 0001:000132e0       ?close@?$basic_filebuf@DU?$char_traits@D@std@@@std@@QEAAPEAV12@XZ 00000001400142e0 f i SheepDownloader.obj
 0001:000133f0       ??0?$basic_ifstream@DU?$char_traits@D@std@@@std@@QEAA@PEBDHH@Z 00000001400143f0 f i SheepDownloader.obj
 0001:00013610       ?_Unchecked_erase@?$_Hash@V?$_Umap_traits@V?$basic_string_view@DU?$char_traits@D@std@@@std@@PEAUsDreamMetadata@ContentDownloader@@V?$_Uhash_compare@V?$basic_string_view@DU?$char_traits@D@std@@@std@@U?$hash@V?$basic_string_view@DU?$char_traits@D@std@@@std@@@2@U?$equal_to@V?$basic_string_view@DU?$char_traits@D@std@@@std@@@2@@2@V?$allocator@U?$pair@$$CBV?$basic_string_view@DU?$char_traits@D@std@@@std@@PEAUsDreamMetadata@ContentDownloader@@@std@@@2@$0A@@std@@@std@@AEAAPEAU?$_List_node@U?$pair@$$CBV?$basic_string_view@DU?$char_traits@D@std@@@std@@PEAUsDreamMetadata@ContentDownloader@@@std@@PEAX@2@PEAU32@QEAU32@@Z 0000000140014610 f i SheepDownloader.obj
 0001:00013800       ?_Tidy@?$vector@V?$basic_string@DU?$char_traits@D@std@@V?$allocator@D@2@@std@@V?$allocator@V?$basic_string@DU?$char_traits@D@std@@V?$allocator@D@2@@std@@@2@@std@@AEAAXXZ 0000000140014800 f i SheepDownloader.obj
 0001:00013870       ?create_time@?$microsec_clock@Vptime@posix_time@boost@@@date_time@boost@@CA?AVptime@posix_time@3@P6APEAUtm@@PEB_JPEAU6@@Z@Z 0000000140014870 f i SheepDownloader.obj
 0001:00013a50       ?subtract_times@?$counted_time_system@U?$counted_time_rep@Vmillisec_posix_time_system_config@posix_time@boost@@@date_time@boost@@@date_time@boost@@SA?AVtime_duration@posix_time@3@AEBU?$counted_time_rep@Vmillisec_posix_time_system_config@posix_time@boost@@@23@0@Z 0000000140014a50 f i SheepDownloader.obj
 0001:00013bb0       ?str@?$basic_stringbuf@DU?$char_traits@D@std@@V?$allocator@D@2@@std@@QEGBA?AV?$basic_string@DU?$char_traits@D@std@@V?$allocator@D@2@@2@XZ 0000000140014bb0 f i SheepDownloader.obj
 0001:00013c60       ?_Eos@?$basic_string@_WU?$char_traits@_W@std@@V?$allocator@_W@2@@std@@AEAAX_K@Z 0000000140014c60 f i SheepDownloader.obj
 0001:00013c80       ??_E?$codecvt@DDU_Mbstatet@@@std@@MEAAPEAXI@Z 0000000140014c80 f i * CIL library *:* CIL module *
 0001:00013c80       ??_E?$messages@D@std@@MEAAPEAXI@Z 0000000140014c80 f i libcpmt:xlocale.obj
 0001:00013c80       ??_E?$messages@G@std@@MEAAPEAXI@Z 0000000140014c80 f i libcpmt:wlocale.obj
 0001:00013c80       ??_E?$messages@_W@std@@MEAAPEAXI@Z 0000000140014c80 f i libcpmt:wlocale.obj
 0001:00013c80       ??_E?$money_get@DV?$istreambuf_iterator@DU?$char_traits@D@std@@@std@@@std@@MEAAPEAXI@Z 0000000140014c80 f i libcpmt:xlocale.obj
 0001:00013c80       ??_E?$money_get@GV?$istreambuf_iterator@GU?$char_traits@G@std@@@std@@@std@@MEAAPEAXI@Z 0000000140014c80 f i libcpmt:wlocale.obj
 0001:00013c80       ??_E?$money_get@_WV?$istreambuf_iterator@_WU?$char_traits@_W@std@@@std@@@std@@MEAAPEAXI@Z 0000000140014c80 f i libcpmt:wlocale.obj
 0001:00013c80       ??_E?$money_put@DV?$ostreambuf_iterator@DU?$char_traits@D@std@@@std@@@std@@MEAAPEAXI@Z 0000000140014c80 f i libcpmt:xlocale.obj
 0001:00013c80       ??_E?$money_put@GV?$ostreambuf_iterator@GU?$char_traits@G@std@@@std@@@std@@MEAAPEAXI@Z 0000000140014c80 f i libcpmt:wlocale.obj
 0001:00013c80       ??_E?$money_put@_WV?$ostreambuf_iterator@_WU?$char_traits@_W@std@@@std@@@std@@MEAAPEAXI@Z 0000000140014c80 f i libcpmt:wlocale.obj
 0001:00013c80       ??_E?$num_get@DV?$istreambuf_iterator@DU?$char_traits@D@std@@@std@@@std@@MEAAPEAXI@Z 0000000140014c80 f i libcpmt:locale.obj
 0001:00013c80       ??_E?$num_get@GV?$istreambuf_iterator@GU?$char_traits@G@std@@@std@@@std@@MEAAPEAXI@Z 0000000140014c80 f i libcpmt:wlocale.obj
 0001:00013c80       ??_E?$num_get@_WV?$istreambuf_iterator@_WU?$char_traits@_W@std@@@std@@@std@@MEAAPEAXI@Z 0000000140014c80 f i libcpmt:wlocale.obj
 0001:00013c80       ??_E?$num_put@DV?$ostreambuf_iterator@DU?$char_traits@D@std@@@std@@@std@@MEAAPEAXI@Z 0000000140014c80 f i * CIL library *:* CIL module *
 0001:00013c80       ??_E?$num_put@GV?$ostreambuf_iterator@GU?$char_traits@G@std@@@std@@@std@@MEAAPEAXI@Z 0000000140014c80 f i libcpmt:wlocale.obj
 0001:00013c80       ??_E?$num_put@_WV?$ostreambuf_iterator@_WU?$char_traits@_W@std@@@std@@@std@@MEAAPEAXI@Z 0000000140014c80 f i libcpmt:wlocale.obj
 0001:00013c80       ??_G?$codecvt@DDU_Mbstatet@@@std@@MEAAPEAXI@Z 0000000140014c80 f i SheepDownloader.obj
 0001:00013c80       ??_G?$messages@D@std@@MEAAPEAXI@Z 0000000140014c80 f i libcpmt:xlocale.obj
 0001:00013c80       ??_G?$messages@G@std@@MEAAPEAXI@Z 0000000140014c80 f i libcpmt:wlocale.obj
 0001:00013c80       ??_G?$messages@_W@std@@MEAAPEAXI@Z 0000000140014c80 f i libcpmt:wlocale.obj
 0001:00013c80       ??_G?$money_get@DV?$istreambuf_iterator@DU?$char_traits@D@std@@@std@@@std@@MEAAPEAXI@Z 0000000140014c80 f i libcpmt:xlocale.obj
 0001:00013c80       ??_G?$money_get@GV?$istreambuf_iterator@GU?$char_traits@G@std@@@std@@@std@@MEAAPEAXI@Z 0000000140014c80 f i libcpmt:wlocale.obj
 0001:00013c80       ??_G?$money_get@_WV?$istreambuf_iterator@_WU?$char_traits@_W@std@@@std@@@std@@MEAAPEAXI@Z 0000000140014c80 f i libcpmt:wlocale.obj
 0001:00013c80       ??_G?$money_put@DV?$ostreambuf_iterator@DU?$char_traits@D@std@@@std@@@std@@MEAAPEAXI@Z 0000000140014c80 f i libcpmt:xlocale.obj
 0001:00013c80       ??_G?$money_put@GV?$ostreambuf_iterator@GU?$char_traits@G@std@@@std@@@std@@MEAAPEAXI@Z 0000000140014c80 f i libcpmt:wlocale.obj
 0001:00013c80       ??_G?$money_put@_WV?$ostreambuf_iterator@_WU?$char_traits@_W@std@@@std@@@std@@MEAAPEAXI@Z 0000000140014c80 f i libcpmt:wlocale.obj
 0001:00013c80       ??_G?$num_get@DV?$istreambuf_iterator@DU?$char_traits@D@std@@@std@@@std@@MEAAPEAXI@Z 0000000140014c80 f i libcpmt:locale.obj
 0001:00013c80       ??_G?$num_get@GV?$istreambuf_iterator@GU?$char_traits@G@std@@@std@@@std@@MEAAPEAXI@Z 0000000140014c80 f i libcpmt:wlocale.obj
 0001:00013c80       ??_G?$num_get@_WV?$istreambuf_iterator@_WU?$char_traits@_W@std@@@std@@@std@@MEAAPEAXI@Z 0000000140014c80 f i libcpmt:wlocale.obj
 0001:00013c80       ??_G?$num_put@DV?$ostreambuf_iterator@DU?$char_traits@D@std@@@std@@@std@@MEAAPEAXI@Z 0000000140014c80 f i SheepDownloader.obj
 0001:00013c80       ??_G?$num_put@GV?$ostreambuf_iterator@GU?$char_traits@G@std@@@std@@@std@@MEAAPEAXI@Z 0000000140014c80 f i libcpmt:wlocale.obj
 0001:00013c80       ??_G?$num_put@_WV?$ostreambuf_iterator@_WU?$char_traits@_W@std@@@std@@@std@@MEAAPEAXI@Z 0000000140014c80 f i libcpmt:wlocale.obj
 0001:00013cb0       ?do_truename@?$numpunct@D@std@@MEBA?AV?$basic_string@DU?$char_traits@D@std@@V?$allocator@D@2@@2@XZ 0000000140014cb0 f i SheepDownloader.obj
 0001:00013cf0       ?do_falsename@?$numpunct@D@std@@MEBA?AV?$basic_string@DU?$char_traits@D@std@@V?$allocator@D@2@@2@XZ 0000000140014cf0 f i SheepDownloader.obj
 0001:00013d30       ?do_grouping@?$numpunct@D@std@@MEBA?AV?$basic_string@DU?$char_traits@D@std@@V?$allocator@D@2@@2@XZ 0000000140014d30 f i SheepDownloader.obj
 0001:00013d70       ?do_thousands_sep@?$numpunct@D@std@@MEBADXZ 0000000140014d70 f i SheepDownloader.obj
 0001:00013d80       ?do_decimal_point@?$numpunct@D@std@@MEBADXZ 0000000140014d80 f i SheepDownloader.obj
 0001:00013d90       ?_Iput@?$num_put@DV?$ostreambuf_iterator@DU?$char_traits@D@std@@@std@@@std@@AEBA?AV?$ostreambuf_iterator@DU?$char_traits@D@std@@@2@V32@AEAVios_base@2@DPEAD_K@Z 0000000140014d90 f i SheepDownloader.obj
 0001:000143f0       ??0?$basic_filebuf@DU?$char_traits@D@std@@@std@@QEAA@XZ 00000001400153f0 f i SheepDownloader.obj
 0001:00014480       ?_Assign_grow@?$_Hash_vec@V?$allocator@V?$_List_unchecked_iterator@V?$_List_val@U?$_List_simple_types@U?$pair@$$CBV?$basic_string_view@DU?$char_traits@D@std@@@std@@PEAUsDreamMetadata@ContentDownloader@@@std@@@std@@@std@@@std@@@std@@@std@@QEAAX_KV?$_List_unchecked_iterator@V?$_List_val@U?$_List_simple_types@U?$pair@$$CBV?$basic_string_view@DU?$char_traits@D@std@@@std@@PEAUsDreamMetadata@ContentDownloader@@@std@@@std@@@std@@@2@@Z 0000000140015480 f i SheepDownloader.obj
 0001:000145c0       ?on_error@?$simple_exception_policy@G$00$0M@Ubad_month@gregorian@boost@@@CV@boost@@SAXGGW4violation_enum@23@@Z 00000001400155c0 f i SheepDownloader.obj
 0001:000145e0       ?on_error@?$simple_exception_policy@G$0FHI@$0CHAP@Ubad_year@gregorian@boost@@@CV@boost@@SAXGGW4violation_enum@23@@Z 00000001400155e0 f i SheepDownloader.obj
 0001:00014600       ?on_error@?$simple_exception_policy@G$00$0BP@Ubad_day_of_month@gregorian@boost@@@CV@boost@@SAXGGW4violation_enum@23@@Z 0000000140015600 f i SheepDownloader.obj
 0001:00014620       ?_Xran@?$_String_val@U?$_Simple_types@D@std@@@std@@SAXXZ 0000000140015620 f i SheepDownloader.obj
 0001:00014620       ?_Xran@?$_String_val@U?$_Simple_types@G@std@@@std@@SAXXZ 0000000140015620 f i libcpmt:wlocale.obj
 0001:00014620       ?_Xran@?$_String_val@U?$_Simple_types@_W@std@@@std@@SAXXZ 0000000140015620 f i std.ixx.obj
 0001:00014640       ??_E?$numpunct@D@std@@MEAAPEAXI@Z 0000000140015640 f i * CIL library *:* CIL module *
 0001:00014640       ??_G?$numpunct@D@std@@MEAAPEAXI@Z 0000000140015640 f i SheepDownloader.obj
 0001:000146a0       ??4?$ostreambuf_iterator@DU?$char_traits@D@std@@@std@@QEAAAEAV01@D@Z 00000001400156a0 f i SheepDownloader.obj
 0001:00014700       ?insert@?$basic_string@DU?$char_traits@D@std@@V?$allocator@D@2@@std@@QEAAAEAV12@_K0D@Z 0000000140015700 f i SheepDownloader.obj
 0001:000147c0       ??$throw_exception@Vruntime_error@std@@@boost@@YAXAEBVruntime_error@std@@@Z 00000001400157c0 f i SheepDownloader.obj
 0001:000147f0       ??$throw_exception@Ubad_day_of_month@gregorian@boost@@@boost@@YAXAEBUbad_day_of_month@gregorian@0@@Z 00000001400157f0 f i SheepDownloader.obj
 0001:00014820       ??$?6U?$char_traits@D@std@@@std@@YAAEAV?$basic_ostream@DU?$char_traits@D@std@@@0@AEAV10@PEBD@Z 0000000140015820 f i SheepDownloader.obj
 0001:00014ad0       ??$?0V?$istreambuf_iterator@DU?$char_traits@D@std@@@std@@$0A@@?$basic_string@DU?$char_traits@D@std@@V?$allocator@D@2@@std@@QEAA@V?$istreambuf_iterator@DU?$char_traits@D@std@@@1@0AEBV?$allocator@D@1@@Z 0000000140015ad0 f i SheepDownloader.obj
 0001:00014c20       ??$use_facet@V?$codecvt@DDU_Mbstatet@@@std@@@std@@YAAEBV?$codecvt@DDU_Mbstatet@@@0@AEBVlocale@0@@Z 0000000140015c20 f i SheepDownloader.obj
 0001:00014d30       ??$_Destroy_range@V?$allocator@V?$shared_ptr@UDisplayUnit@CPlayer@@@std@@@std@@@std@@YAXPEAV?$shared_ptr@UDisplayUnit@CPlayer@@@0@QEAV10@AEAV?$allocator@V?$shared_ptr@UDisplayUnit@CPlayer@@@std@@@0@@Z 0000000140015d30 f i Player.obj
 0001:00014d30       ??$_Destroy_range@V?$allocator@V?$shared_ptr@VCClip@ContentDecoder@@@std@@@std@@@std@@YAXPEAV?$shared_ptr@VCClip@ContentDecoder@@@0@QEAV10@AEAV?$allocator@V?$shared_ptr@VCClip@ContentDecoder@@@std@@@0@@Z 0000000140015d30 f i Player.obj
 0001:00014d30       ??$_Destroy_range@V?$allocator@V?$shared_ptr@VCTimedMessageBody@ContentDownloader@@@std@@@std@@@std@@YAXPEAV?$shared_ptr@VCTimedMessageBody@ContentDownloader@@@0@QEAV10@AEAV?$allocator@V?$shared_ptr@VCTimedMessageBody@ContentDownloader@@@std@@@0@@Z 0000000140015d30 f i SheepDownloader.obj
 0001:00014db0       ??$_Erase_tree@V?$allocator@U?$_Tree_node@U?$pair@$$CBIUsPlayCountData@@@std@@PEAX@std@@@std@@@?$_Tree_val@U?$_Tree_simple_types@U?$pair@$$CBIUsPlayCountData@@@std@@@std@@@std@@QEAAXAEAV?$allocator@U?$_Tree_node@U?$pair@$$CBIUsPlayCountData@@@std@@PEAX@std@@@1@PEAU?$_Tree_node@U?$pair@$$CBIUsPlayCountData@@@std@@PEAX@1@@Z 0000000140015db0 f i SheepDownloader.obj
 0001:00014e20       ??$_Try_emplace@AEBV?$basic_string_view@DU?$char_traits@D@std@@@std@@$$V@?$_Hash@V?$_Umap_traits@V?$basic_string_view@DU?$char_traits@D@std@@@std@@PEAUsDreamMetadata@ContentDownloader@@V?$_Uhash_compare@V?$basic_string_view@DU?$char_traits@D@std@@@std@@U?$hash@V?$basic_string_view@DU?$char_traits@D@std@@@std@@@2@U?$equal_to@V?$basic_string_view@DU?$char_traits@D@std@@@std@@@2@@2@V?$allocator@U?$pair@$$CBV?$basic_string_view@DU?$char_traits@D@std@@@std@@PEAUsDreamMetadata@ContentDownloader@@@std@@@2@$0A@@std@@@std@@IEAA?AU?$pair@PEAU?$_List_node@U?$pair@$$CBV?$basic_string_view@DU?$char_traits@D@std@@@std@@PEAUsDreamMetadata@ContentDownloader@@@std@@PEAX@std@@_N@1@AEBV?$basic_string_view@DU?$char_traits@D@std@@@1@@Z 0000000140015e20 f i SheepDownloader.obj
 0001:00015080       ??$fill@PEAV?$_List_unchecked_iterator@V?$_List_val@U?$_List_simple_types@U?$pair@$$CBV?$basic_string_view@DU?$char_traits@D@std@@@std@@PEAUsDreamMetadata@ContentDownloader@@@std@@@std@@@std@@@std@@V12@@std@@YAXQEAV?$_List_unchecked_iterator@V?$_List_val@U?$_List_simple_types@U?$pair@$$CBV?$basic_string_view@DU?$char_traits@D@std@@@std@@PEAUsDreamMetadata@ContentDownloader@@@std@@@std@@@std@@@0@0AEBV10@@Z 0000000140016080 f i SheepDownloader.obj
 0001:00015110       ??$use_facet@V?$num_put@DV?$ostreambuf_iterator@DU?$char_traits@D@std@@@std@@@std@@@std@@YAAEBV?$num_put@DV?$ostreambuf_iterator@DU?$char_traits@D@std@@@std@@@0@AEBVlocale@0@@Z 0000000140016110 f i SheepDownloader.obj
 0001:00015220       ??$_Construct@$01PEB_W@?$basic_string@_WU?$char_traits@_W@std@@V?$allocator@_W@2@@std@@AEAAXQEB_W_K@Z 0000000140016220 f i SheepDownloader.obj
 0001:00015330       ??$_Fput_v3@$0A@@?$num_put@DV?$ostreambuf_iterator@DU?$char_traits@D@std@@@std@@@std@@AEBA?AV?$ostreambuf_iterator@DU?$char_traits@D@std@@@1@V21@AEAVios_base@1@DPEBD_K_N@Z 0000000140016330 f i SheepDownloader.obj
 0001:00015a20       ??$use_facet@V?$numpunct@D@std@@@std@@YAAEBV?$numpunct@D@0@AEBVlocale@0@@Z 0000000140016a20 f i SheepDownloader.obj
 0001:00015b30       ??$_Destroy_range@V?$allocator@V?$basic_string@DU?$char_traits@D@std@@V?$allocator@D@2@@std@@@std@@@std@@YAXPEAV?$basic_string@DU?$char_traits@D@std@@V?$allocator@D@2@@0@QEAV10@AEAV?$allocator@V?$basic_string@DU?$char_traits@D@std@@V?$allocator@D@2@@std@@@0@@Z 0000000140016b30 f i SheepDownloader.obj
 0001:00015bc0       ??$throw_exception@Ubad_month@gregorian@boost@@@boost@@YAXAEBUbad_month@gregorian@0@@Z 0000000140016bc0 f i SheepDownloader.obj
 0001:00015bf0       ??$throw_exception@Ubad_year@gregorian@boost@@@boost@@YAXAEBUbad_year@gregorian@0@@Z 0000000140016bf0 f i SheepDownloader.obj
 0001:00015c20       ??$_Reallocate_grow_by@V<lambda_1>@?1??insert@?$basic_string@DU?$char_traits@D@std@@V?$allocator@D@2@@std@@QEAAAEAV34@_K0D@Z@_K_KD@?$basic_string@DU?$char_traits@D@std@@V?$allocator@D@2@@std@@AEAAAEAV01@_KV<lambda_1>@?1??insert@01@QEAAAEAV01@00D@Z@_K2D@Z 0000000140016c20 f i SheepDownloader.obj
 0001:00015de0       ??0?$wrapexcept@Vruntime_error@std@@@boost@@QEAA@AEBU01@@Z 0000000140016de0 f i SheepDownloader.obj
 0001:00015e90       ??0?$wrapexcept@Ubad_day_of_month@gregorian@boost@@@boost@@QEAA@AEBU01@@Z 0000000140016e90 f i SheepDownloader.obj
 0001:00015f40       ??0bad_day_of_month@gregorian@boost@@QEAA@AEBU012@@Z 0000000140016f40 f i SheepDownloader.obj
 0001:00015f80       ??0out_of_range@std@@QEAA@AEBV01@@Z 0000000140016f80 f i SheepDownloader.obj
 0001:00015fc0       ??0logic_error@std@@QEAA@AEBV01@@Z 0000000140016fc0 f i SheepDownloader.obj
 0001:00016000       ??0?$wrapexcept@Ubad_month@gregorian@boost@@@boost@@QEAA@AEBU01@@Z 0000000140017000 f i SheepDownloader.obj
 0001:000160b0       ??0bad_month@gregorian@boost@@QEAA@AEBU012@@Z 00000001400170b0 f i SheepDownloader.obj
 0001:000160f0       ??0?$wrapexcept@Ubad_year@gregorian@boost@@@boost@@QEAA@AEBU01@@Z 00000001400170f0 f i SheepDownloader.obj
 0001:000161a0       ??0bad_year@gregorian@boost@@QEAA@AEBU012@@Z 00000001400171a0 f i SheepDownloader.obj
 0001:000161e0       ?rethrow@?$wrapexcept@Ubad_year@gregorian@boost@@@boost@@UEBAXXZ 00000001400171e0 f i SheepDownloader.obj
 0001:00016210       ?clone@?$wrapexcept@Ubad_year@gregorian@boost@@@boost@@UEBAPEBVclone_base@exception_detail@2@XZ 0000000140017210 f i SheepDownloader.obj
 0001:00016270       ??0?$wrapexcept@Ubad_year@gregorian@boost@@@boost@@QEAA@AEBUbad_year@gregorian@1@@Z 0000000140017270 f i SheepDownloader.obj
 0001:000162f0       ?rethrow@?$wrapexcept@Ubad_month@gregorian@boost@@@boost@@UEBAXXZ 00000001400172f0 f i SheepDownloader.obj
 0001:00016320       ?clone@?$wrapexcept@Ubad_month@gregorian@boost@@@boost@@UEBAPEBVclone_base@exception_detail@2@XZ 0000000140017320 f i SheepDownloader.obj
 0001:00016380       ??0?$wrapexcept@Ubad_month@gregorian@boost@@@boost@@QEAA@AEBUbad_month@gregorian@1@@Z 0000000140017380 f i SheepDownloader.obj
 0001:00016400       ??1?$_Alloc_construct_ptr@V?$allocator@U?$_List_node@U?$pair@$$CBV?$basic_string_view@DU?$char_traits@D@std@@@std@@PEAUsDreamMetadata@ContentDownloader@@@std@@PEAX@std@@@std@@@std@@QEAA@XZ 0000000140017400 f i SheepDownloader.obj
 0001:00016400       ??1?$_List_node_emplace_op2@V?$allocator@U?$_List_node@U?$pair@$$CBV?$basic_string_view@DU?$char_traits@D@std@@@std@@PEAUsDreamMetadata@ContentDownloader@@@std@@PEAX@std@@@std@@@std@@QEAA@XZ 0000000140017400 f i SheepDownloader.obj
 0001:00016420       ?rethrow@?$wrapexcept@Ubad_day_of_month@gregorian@boost@@@boost@@UEBAXXZ 0000000140017420 f i SheepDownloader.obj
 0001:00016450       ?clone@?$wrapexcept@Ubad_day_of_month@gregorian@boost@@@boost@@UEBAPEBVclone_base@exception_detail@2@XZ 0000000140017450 f i SheepDownloader.obj
 0001:000164b0       ??0?$wrapexcept@Ubad_day_of_month@gregorian@boost@@@boost@@QEAA@AEBUbad_day_of_month@gregorian@1@@Z 00000001400174b0 f i SheepDownloader.obj
 0001:00016530       ?rethrow@?$wrapexcept@Vruntime_error@std@@@boost@@UEBAXXZ 0000000140017530 f i SheepDownloader.obj
 0001:00016560       ?clone@?$wrapexcept@Vruntime_error@std@@@boost@@UEBAPEBVclone_base@exception_detail@2@XZ 0000000140017560 f i SheepDownloader.obj
 0001:000165c0       ??0?$wrapexcept@Vruntime_error@std@@@boost@@QEAA@AEBVruntime_error@std@@@Z 00000001400175c0 f i SheepDownloader.obj
 0001:00016640       ?_Getcat@?$numpunct@D@std@@SA_KPEAPEBVfacet@locale@2@PEBV42@@Z 0000000140017640 f i SheepDownloader.obj
 0001:00016880       ?_Getcat@?$num_put@DV?$ostreambuf_iterator@DU?$char_traits@D@std@@@std@@@std@@SA_KPEAPEBVfacet@locale@2@PEBV42@@Z 0000000140017880 f i SheepDownloader.obj
 0001:00016a00       ?_Getcat@?$codecvt@DDU_Mbstatet@@@std@@SA_KPEAPEBVfacet@locale@2@PEBV42@@Z 0000000140017a00 f i SheepDownloader.obj
 0001:00016b80       ?_Rehash_for_1@?$_Hash@V?$_Umap_traits@V?$basic_string_view@DU?$char_traits@D@std@@@std@@PEAUsDreamMetadata@ContentDownloader@@V?$_Uhash_compare@V?$basic_string_view@DU?$char_traits@D@std@@@std@@U?$hash@V?$basic_string_view@DU?$char_traits@D@std@@@std@@@2@U?$equal_to@V?$basic_string_view@DU?$char_traits@D@std@@@std@@@2@@2@V?$allocator@U?$pair@$$CBV?$basic_string_view@DU?$char_traits@D@std@@@std@@PEAUsDreamMetadata@ContentDownloader@@@std@@@2@$0A@@std@@@std@@IEAAXXZ 0000000140017b80 f i SheepDownloader.obj
 0001:00016c30       ??_E?$_Ref_count_obj2@VCFileDownloader@Network@@@std@@UEAAPEAXI@Z 0000000140017c30 f i * CIL library *:* CIL module *
 0001:00016c30       ??_G?$_Ref_count_obj2@VCFileDownloader@Network@@@std@@UEAAPEAXI@Z 0000000140017c30 f i SheepDownloader.obj
 0001:00016c60       ?_Forced_rehash@?$_Hash@V?$_Umap_traits@V?$basic_string_view@DU?$char_traits@D@std@@@std@@PEAUsDreamMetadata@ContentDownloader@@V?$_Uhash_compare@V?$basic_string_view@DU?$char_traits@D@std@@@std@@U?$hash@V?$basic_string_view@DU?$char_traits@D@std@@@std@@@2@U?$equal_to@V?$basic_string_view@DU?$char_traits@D@std@@@std@@@2@@2@V?$allocator@U?$pair@$$CBV?$basic_string_view@DU?$char_traits@D@std@@@std@@PEAUsDreamMetadata@ContentDownloader@@@std@@@2@$0A@@std@@@std@@IEAAX_K@Z 0000000140017c60 f i SheepDownloader.obj
 0001:00016ea0       ?_Init@?$numpunct@D@std@@IEAAXAEBV_Locinfo@2@_N@Z 0000000140017ea0 f i SheepDownloader.obj
 0001:00016ff0       ??1?$_Tidy_guard@V?$numpunct@D@std@@@std@@QEAA@XZ 0000000140017ff0 f i SheepDownloader.obj
 0001:00017030       ??$_Emplace_reallocate@PEAVCTimedMessageBody@ContentDownloader@@@?$vector@V?$shared_ptr@VCTimedMessageBody@ContentDownloader@@@std@@V?$allocator@V?$shared_ptr@VCTimedMessageBody@ContentDownloader@@@std@@@2@@std@@AEAAPEAV?$shared_ptr@VCTimedMessageBody@ContentDownloader@@@1@QEAV21@$$QEAPEAVCTimedMessageBody@ContentDownloader@@@Z 0000000140018030 f i SheepDownloader.obj
 0001:00017210       ??$_Construct_from_iter@V?$istreambuf_iterator@DU?$char_traits@D@std@@@std@@V12@$$T@?$basic_string@DU?$char_traits@D@std@@V?$allocator@D@2@@std@@AEAAXV?$istreambuf_iterator@DU?$char_traits@D@std@@@1@V21@$$T@Z 0000000140018210 f i SheepDownloader.obj
 0001:00017470       ??$_Find_last@V?$basic_string_view@DU?$char_traits@D@std@@@std@@@?$_Hash@V?$_Umap_traits@V?$basic_string_view@DU?$char_traits@D@std@@@std@@PEAUsDreamMetadata@ContentDownloader@@V?$_Uhash_compare@V?$basic_string_view@DU?$char_traits@D@std@@@std@@U?$hash@V?$basic_string_view@DU?$char_traits@D@std@@@std@@@2@U?$equal_to@V?$basic_string_view@DU?$char_traits@D@std@@@std@@@2@@2@V?$allocator@U?$pair@$$CBV?$basic_string_view@DU?$char_traits@D@std@@@std@@PEAUsDreamMetadata@ContentDownloader@@@std@@@2@$0A@@std@@@std@@IEBA?AU?$_Hash_find_last_result@PEAU?$_List_node@U?$pair@$$CBV?$basic_string_view@DU?$char_traits@D@std@@@std@@PEAUsDreamMetadata@ContentDownloader@@@std@@PEAX@std@@@1@AEBV?$basic_string_view@DU?$char_traits@D@std@@@1@_K@Z 0000000140018470 f i SheepDownloader.obj
 0001:00017540       ??$_Emplace_reallocate@AEBQEAUsDreamMetadata@ContentDownloader@@@?$vector@PEAUsDreamMetadata@ContentDownloader@@V?$allocator@PEAUsDreamMetadata@ContentDownloader@@@std@@@std@@AEAAPEAPEAUsDreamMetadata@ContentDownloader@@QEAPEAU23@AEBQEAU23@@Z 0000000140018540 f i SheepDownloader.obj
 0001:000176e0       ??$_Hash_array_representation@D@std@@YA_KQEBD_K@Z 00000001400186e0 f i SheepDownloader.obj
 0001:00017720       ??1?$_Tidy_deallocate_guard@V?$basic_string@DU?$char_traits@D@std@@V?$allocator@D@2@@std@@@std@@QEAA@XZ 0000000140018720 f i SheepDownloader.obj
 0001:00017730       ?deallocate@?$allocator@V?$shared_ptr@VCTimedMessageBody@ContentDownloader@@@std@@@std@@QEAAXQEAV?$shared_ptr@VCTimedMessageBody@ContentDownloader@@@2@_K@Z 0000000140018730 f i SheepDownloader.obj
 0001:00017780       ??$construct@V?$shared_ptr@VCTimedMessageBody@ContentDownloader@@@std@@PEAVCTimedMessageBody@ContentDownloader@@@?$_Default_allocator_traits@V?$allocator@V?$shared_ptr@VCTimedMessageBody@ContentDownloader@@@std@@@std@@@std@@SAXAEAV?$allocator@V?$shared_ptr@VCTimedMessageBody@ContentDownloader@@@std@@@1@QEAV?$shared_ptr@VCTimedMessageBody@ContentDownloader@@@1@$$QEAPEAVCTimedMessageBody@ContentDownloader@@@Z 0000000140018780 f i SheepDownloader.obj
 0001:000177f0       ??$_Uninitialized_move@PEAV?$shared_ptr@UDisplayUnit@CPlayer@@@std@@V?$allocator@V?$shared_ptr@UDisplayUnit@CPlayer@@@std@@@2@@std@@YAPEAV?$shared_ptr@UDisplayUnit@CPlayer@@@0@QEAV10@0PEAV10@AEAV?$allocator@V?$shared_ptr@UDisplayUnit@CPlayer@@@std@@@0@@Z 00000001400187f0 f i Player.obj
 0001:000177f0       ??$_Uninitialized_move@PEAV?$shared_ptr@VCClip@ContentDecoder@@@std@@V?$allocator@V?$shared_ptr@VCClip@ContentDecoder@@@std@@@2@@std@@YAPEAV?$shared_ptr@VCClip@ContentDecoder@@@0@QEAV10@0PEAV10@AEAV?$allocator@V?$shared_ptr@VCClip@ContentDecoder@@@std@@@0@@Z 00000001400187f0 f i Player.obj
 0001:000177f0       ??$_Uninitialized_move@PEAV?$shared_ptr@VCTimedMessageBody@ContentDownloader@@@std@@V?$allocator@V?$shared_ptr@VCTimedMessageBody@ContentDownloader@@@std@@@2@@std@@YAPEAV?$shared_ptr@VCTimedMessageBody@ContentDownloader@@@0@QEAV10@0PEAV10@AEAV?$allocator@V?$shared_ptr@VCTimedMessageBody@ContentDownloader@@@std@@@0@@Z 00000001400187f0 f i SheepDownloader.obj
 0001:00017860       ?_Destroy@?$_Ref_count@VCTimedMessageBody@ContentDownloader@@@std@@EEAAXXZ 0000000140018860 f i SheepDownloader.obj
 0001:00017870       ??1?$_Temporary_owner@VCTimedMessageBody@ContentDownloader@@@std@@QEAA@XZ 0000000140018870 f i SheepDownloader.obj
 0001:00017880       ??_GCTimedMessageBody@ContentDownloader@@QEAAPEAXI@Z 0000000140018880 f i SheepDownloader.obj
 0001:00017900       ??_E?$_Ref_count@VCAlignedBuffer@Base@@@std@@UEAAPEAXI@Z 0000000140018900 f i * CIL library *:* CIL module *
 0001:00017900       ??_E?$_Ref_count@VCBlend@DisplayOutput@@@std@@UEAAPEAXI@Z 0000000140018900 f i * CIL library *:* CIL module *
 0001:00017900       ??_E?$_Ref_count@VCImage@DisplayOutput@@@std@@UEAAPEAXI@Z 0000000140018900 f i * CIL library *:* CIL module *
 0001:00017900       ??_E?$_Ref_count@VCMessageBody@ContentDownloader@@@std@@UEAAPEAXI@Z 0000000140018900 f i * CIL library *:* CIL module *
 0001:00017900       ??_E?$_Ref_count@VCTimedMessageBody@ContentDownloader@@@std@@UEAAPEAXI@Z 0000000140018900 f i * CIL library *:* CIL module *
 0001:00017900       ??_E?$_Ref_count@VCVideoFrame@ContentDecoder@@@std@@UEAAPEAXI@Z 0000000140018900 f i * CIL library *:* CIL module *
 0001:00017900       ??_E?$_Ref_count@Vdo_init@openssl_init_base@detail@ssl@asio@boost@@@std@@UEAAPEAXI@Z 0000000140018900 f i * CIL library *:* CIL module *
 0001:00017900       ??_Estd_category@detail@system@boost@@UEAAPEAXI@Z 0000000140018900 f i * CIL library *:* CIL module *
 0001:00017900       ??_G?$_Ref_count@VCAlignedBuffer@Base@@@std@@UEAAPEAXI@Z 0000000140018900 f i ContentDecoder.obj
 0001:00017900       ??_G?$_Ref_count@VCBlend@DisplayOutput@@@std@@UEAAPEAXI@Z 0000000140018900 f i Renderer.obj
 0001:00017900       ??_G?$_Ref_count@VCImage@DisplayOutput@@@std@@UEAAPEAXI@Z 0000000140018900 f i main.obj
 0001:00017900       ??_G?$_Ref_count@VCMessageBody@ContentDownloader@@@std@@UEAAPEAXI@Z 0000000140018900 f i Shepherd.obj
 0001:00017900       ??_G?$_Ref_count@VCTimedMessageBody@ContentDownloader@@@std@@UEAAPEAXI@Z 0000000140018900 f i SheepDownloader.obj
 0001:00017900       ??_G?$_Ref_count@VCVideoFrame@ContentDecoder@@@std@@UEAAPEAXI@Z 0000000140018900 f i ContentDecoder.obj
 0001:00017900       ??_G?$_Ref_count@Vdo_init@openssl_init_base@detail@ssl@asio@boost@@@std@@UEAAPEAXI@Z 0000000140018900 f i EDreamClient.obj
 0001:00017900       ??_Gstd_category@detail@system@boost@@UEAAPEAXI@Z 0000000140018900 f i EDreamClient.obj
 0001:00017924       ??_E?$basic_ostream@DU?$char_traits@D@std@@@std@@$4PPPPPPPM@A@EAAPEAXI@Z 0000000140018924 f i SheepDownloader.obj
 0001:00017930       ??_E?$basic_stringstream@DU?$char_traits@D@std@@V?$allocator@D@2@@std@@$4PPPPPPPM@A@EAAPEAXI@Z 0000000140018930 f i SheepDownloader.obj
 0001:0001793c       ??_E?$basic_ifstream@DU?$char_traits@D@std@@@std@@$4PPPPPPPM@A@EAAPEAXI@Z 000000014001893c f i SheepDownloader.obj
 0001:00017948       ??_E?$basic_iostream@DU?$char_traits@D@std@@@std@@$4PPPPPPPM@A@EAAPEAXI@Z 0000000140018948 f i SheepDownloader.obj
 0001:00017960       ?make_error_code@std@@YA?AVerror_code@1@W4errc@1@@Z 0000000140018960 f i Shepherd.obj
 0001:00017980       ??0system_error@std@@QEAA@Verror_code@1@@Z 0000000140018980 f i Shepherd.obj
 0001:00017a70       ?_Throw_system_error@std@@YAXW4errc@1@@Z 0000000140018a70 f i Shepherd.obj
 0001:00017ab0       ?message@_Generic_error_category@std@@UEBA?AV?$basic_string@DU?$char_traits@D@std@@V?$allocator@D@2@@2@H@Z 0000000140018ab0 f i Shepherd.obj
 0001:00017b00       ?generic_category@std@@YAAEBVerror_category@1@XZ 0000000140018b00 f i Shepherd.obj
 0001:00017b10       ??1?$intrusive_ptr@Udir_itr_imp@detail@filesystem@boost@@@boost@@QEAA@XZ 0000000140018b10 f i Shepherd.obj
 0001:00017b10       ??1directory_iterator@filesystem@boost@@QEAA@XZ 0000000140018b10 f i Shepherd.obj
 0001:00017b50       ?lock@basic_timed_mutex@detail@boost@@QEAAXXZ 0000000140018b50 f i Shepherd.obj
 0001:00017c10       ?get_wait_entry@basic_condition_variable@detail@boost@@AEAA?AV?$intrusive_ptr@Vbasic_cv_list_entry@detail@boost@@@3@XZ 0000000140018c10 f i Shepherd.obj
 0001:00017e10       ?remove_waiter_and_reset@entry_manager@basic_condition_variable@detail@boost@@QEAAXXZ 0000000140018e10 f i Shepherd.obj
 0001:00017ee0       ??1entry_manager@basic_condition_variable@detail@boost@@QEAA@XZ 0000000140018ee0 f i Shepherd.obj
 0001:00017f50       ?notify_all@basic_condition_variable@detail@boost@@QEAAXXZ 0000000140018f50 f i Shepherd.obj
 0001:00018040       ??1condition_variable_any@boost@@QEAA@XZ 0000000140019040 f i Shepherd.obj
 0001:00018090       ??1?$pair@$$CBW4eServerEndpoint@@V?$basic_string@DU?$char_traits@D@std@@V?$allocator@D@2@@std@@@std@@QEAA@XZ 0000000140019090 f i Shepherd.obj
 0001:000180f0       ??1?$vector@Vpath@filesystem@boost@@V?$allocator@Vpath@filesystem@boost@@@std@@@std@@QEAA@XZ 00000001400190f0 f i Shepherd.obj
 0001:00018160       ?pop@?$queue@V?$shared_ptr@VCMessageBody@ContentDownloader@@@std@@V?$deque@V?$shared_ptr@VCMessageBody@ContentDownloader@@@std@@V?$allocator@V?$shared_ptr@VCMessageBody@ContentDownloader@@@std@@@2@@2@@std@@QEAAXXZ 0000000140019160 f i Shepherd.obj
 0001:000181f0       ??1?$deque@V?$shared_ptr@VCEvent@DisplayOutput@@@std@@V?$allocator@V?$shared_ptr@VCEvent@DisplayOutput@@@std@@@2@@std@@QEAA@XZ 00000001400191f0 f i DisplayOutput.obj
 0001:000181f0       ??1?$deque@V?$shared_ptr@VCMessageBody@ContentDownloader@@@std@@V?$allocator@V?$shared_ptr@VCMessageBody@ContentDownloader@@@std@@@2@@std@@QEAA@XZ 00000001400191f0 f i Shepherd.obj
 0001:00018310       ??1?$lock_guard@Vmutex@boost@@@boost@@QEAA@XZ 0000000140019310 f i Shepherd.obj
 0001:00018350       ??1?$vector@V?$intrusive_ptr@Vbasic_cv_list_entry@detail@boost@@@boost@@V?$allocator@V?$intrusive_ptr@Vbasic_cv_list_entry@detail@boost@@@boost@@@std@@@std@@QEAA@XZ 0000000140019350 f i Shepherd.obj
 0001:000183c0       ??1?$intrusive_ptr@Vbasic_cv_list_entry@detail@boost@@@boost@@QEAA@XZ 00000001400193c0 f i Shepherd.obj
 0001:00018420       ?_Tidy@?$deque@PEADV?$allocator@PEAD@std@@@std@@AEAAXXZ 0000000140019420 f i Shepherd.obj
 0001:000184f0       ?deallocate@?$allocator@Vpath@filesystem@boost@@@std@@QEAAXQEAVpath@filesystem@boost@@_K@Z 00000001400194f0 f i Shepherd.obj
 0001:00018540       ??$wait@Vshared_mutex@std@@@condition_variable_any@boost@@QEAAXAEAVshared_mutex@std@@@Z 0000000140019540 f i Shepherd.obj
 0001:00018710       ??$_Destroy_range@V?$allocator@V?$intrusive_ptr@Vbasic_cv_list_entry@detail@boost@@@boost@@@std@@@std@@YAXPEAV?$intrusive_ptr@Vbasic_cv_list_entry@detail@boost@@@boost@@QEAV12@AEAV?$allocator@V?$intrusive_ptr@Vbasic_cv_list_entry@detail@boost@@@boost@@@0@@Z 0000000140019710 f i Shepherd.obj
 0001:000187a0       ??$_Erase_tree@V?$allocator@U?$_Tree_node@U?$pair@$$CBW4eServerEndpoint@@V?$basic_string@DU?$char_traits@D@std@@V?$allocator@D@2@@std@@@std@@PEAX@std@@@std@@@?$_Tree_val@U?$_Tree_simple_types@U?$pair@$$CBW4eServerEndpoint@@V?$basic_string@DU?$char_traits@D@std@@V?$allocator@D@2@@std@@@std@@@std@@@std@@QEAAXAEAV?$allocator@U?$_Tree_node@U?$pair@$$CBW4eServerEndpoint@@V?$basic_string@DU?$char_traits@D@std@@V?$allocator@D@2@@std@@@std@@PEAX@std@@@1@PEAU?$_Tree_node@U?$pair@$$CBW4eServerEndpoint@@V?$basic_string@DU?$char_traits@D@std@@V?$allocator@D@2@@std@@@std@@PEAX@1@@Z 00000001400197a0 f i Shepherd.obj
 0001:00018860       ??$_Destroy_range@V?$allocator@Vpath@filesystem@boost@@@std@@@std@@YAXPEAVpath@filesystem@boost@@QEAV123@AEAV?$allocator@Vpath@filesystem@boost@@@0@@Z 0000000140019860 f i Shepherd.obj
 0001:000188f0       ?_Insert_node@?$_Tree_val@U?$_Tree_simple_types@U?$pair@$$CBV?$basic_string@DU?$char_traits@D@std@@V?$allocator@D@2@@std@@V12@@std@@@std@@@std@@QEAAPEAU?$_Tree_node@U?$pair@$$CBV?$basic_string@DU?$char_traits@D@std@@V?$allocator@D@2@@std@@V12@@std@@PEAX@2@U?$_Tree_id@PEAU?$_Tree_node@U?$pair@$$CBV?$basic_string@DU?$char_traits@D@std@@V?$allocator@D@2@@std@@V12@@std@@PEAX@std@@@2@QEAU32@@Z 00000001400198f0 f i Networking.obj
 0001:000188f0       ?_Insert_node@?$_Tree_val@U?$_Tree_simple_types@U?$pair@$$CBV?$basic_string@DU?$char_traits@D@std@@V?$allocator@D@2@@std@@V?$shared_ptr@VCBlend@DisplayOutput@@@2@@std@@@std@@@std@@QEAAPEAU?$_Tree_node@U?$pair@$$CBV?$basic_string@DU?$char_traits@D@std@@V?$allocator@D@2@@std@@V?$shared_ptr@VCBlend@DisplayOutput@@@2@@std@@PEAX@2@U?$_Tree_id@PEAU?$_Tree_node@U?$pair@$$CBV?$basic_string@DU?$char_traits@D@std@@V?$allocator@D@2@@std@@V?$shared_ptr@VCBlend@DisplayOutput@@@2@@std@@PEAX@std@@@2@QEAU32@@Z 00000001400198f0 f i Renderer.obj
 0001:000188f0       ?_Insert_node@?$_Tree_val@U?$_Tree_simple_types@U?$pair@$$CBV?$basic_string@DU?$char_traits@D@std@@V?$allocator@D@2@@std@@V?$shared_ptr@VCHudEntry@Hud@@@2@@std@@@std@@@std@@QEAAPEAU?$_Tree_node@U?$pair@$$CBV?$basic_string@DU?$char_traits@D@std@@V?$allocator@D@2@@std@@V?$shared_ptr@VCHudEntry@Hud@@@2@@std@@PEAX@2@U?$_Tree_id@PEAU?$_Tree_node@U?$pair@$$CBV?$basic_string@DU?$char_traits@D@std@@V?$allocator@D@2@@std@@V?$shared_ptr@VCHudEntry@Hud@@@2@@std@@PEAX@std@@@2@QEAU32@@Z 00000001400198f0 f i Hud.obj
 0001:000188f0       ?_Insert_node@?$_Tree_val@U?$_Tree_simple_types@U?$pair@$$CBV?$basic_string@DU?$char_traits@D@std@@V?$allocator@D@2@@std@@V?$shared_ptr@VCShaderUniform@DisplayOutput@@@2@@std@@@std@@@std@@QEAAPEAU?$_Tree_node@U?$pair@$$CBV?$basic_string@DU?$char_traits@D@std@@V?$allocator@D@2@@std@@V?$shared_ptr@VCShaderUniform@DisplayOutput@@@2@@std@@PEAX@2@U?$_Tree_id@PEAU?$_Tree_node@U?$pair@$$CBV?$basic_string@DU?$char_traits@D@std@@V?$allocator@D@2@@std@@V?$shared_ptr@VCShaderUniform@DisplayOutput@@@2@@std@@PEAX@std@@@2@QEAU32@@Z 00000001400198f0 f i ShaderDX.obj
 0001:000188f0       ?_Insert_node@?$_Tree_val@U?$_Tree_simple_types@U?$pair@$$CBW4eServerEndpoint@@V?$basic_string@DU?$char_traits@D@std@@V?$allocator@D@2@@std@@@std@@@std@@@std@@QEAAPEAU?$_Tree_node@U?$pair@$$CBW4eServerEndpoint@@V?$basic_string@DU?$char_traits@D@std@@V?$allocator@D@2@@std@@@std@@PEAX@2@U?$_Tree_id@PEAU?$_Tree_node@U?$pair@$$CBW4eServerEndpoint@@V?$basic_string@DU?$char_traits@D@std@@V?$allocator@D@2@@std@@@std@@PEAX@std@@@2@QEAU32@@Z 00000001400198f0 f i Shepherd.obj
 0001:00018b50       ?_Growmap@?$deque@PEADV?$allocator@PEAD@std@@@std@@AEAAX_K@Z 0000000140019b50 f i Shepherd.obj
 0001:00018b50       ?_Growmap@?$deque@PEAVCVideoFrame@ContentDecoder@@V?$allocator@PEAVCVideoFrame@ContentDecoder@@@std@@@std@@AEAAX_K@Z 0000000140019b50 f i ContentDecoder.obj
 0001:00018b50       ?_Growmap@?$deque@VCVector2_x86@Math@Base@23@V?$allocator@VCVector2_x86@Math@Base@23@@std@@@std@@AEAAX_K@Z 0000000140019b50 f i main.obj
 0001:00018d50       ?_Growmap@?$deque@V?$shared_ptr@VCMessageBody@ContentDownloader@@@std@@V?$allocator@V?$shared_ptr@VCMessageBody@ContentDownloader@@@std@@@2@@std@@AEAAX_K@Z 0000000140019d50 f i Shepherd.obj
 0001:00018f60       ??1?$_Alloc_construct_ptr@V?$allocator@U?$_Tree_node@U?$pair@$$CBW4eServerEndpoint@@V?$basic_string@DU?$char_traits@D@std@@V?$allocator@D@2@@std@@@std@@PEAX@std@@@std@@@std@@QEAA@XZ 0000000140019f60 f i Shepherd.obj
 0001:00018f60       ??1?$_Tree_temp_node_alloc@V?$allocator@U?$_Tree_node@U?$pair@$$CBW4eServerEndpoint@@V?$basic_string@DU?$char_traits@D@std@@V?$allocator@D@2@@std@@@std@@PEAX@std@@@std@@@std@@QEAA@XZ 0000000140019f60 f i Shepherd.obj
 0001:00018f80       ?_Xlen@?$deque@PEADV?$allocator@PEAD@std@@@std@@CAXXZ 0000000140019f80 f i Shepherd.obj
 0001:00018f80       ?_Xlen@?$deque@PEAVCVideoFrame@ContentDecoder@@V?$allocator@PEAVCVideoFrame@ContentDecoder@@@std@@@std@@CAXXZ 0000000140019f80 f i ContentDecoder.obj
 0001:00018f80       ?_Xlen@?$deque@UVotingInfo@CVote@@V?$allocator@UVotingInfo@CVote@@@std@@@std@@CAXXZ 0000000140019f80 f i Voting.obj
 0001:00018f80       ?_Xlen@?$deque@V?$basic_string@DU?$char_traits@D@std@@V?$allocator@D@2@@std@@V?$allocator@V?$basic_string@DU?$char_traits@D@std@@V?$allocator@D@2@@std@@@2@@std@@CAXXZ 0000000140019f80 f i main.obj
 0001:00018f80       ?_Xlen@?$deque@V?$shared_ptr@VCMessageBody@ContentDownloader@@@std@@V?$allocator@V?$shared_ptr@VCMessageBody@ContentDownloader@@@std@@@2@@std@@CAXXZ 0000000140019f80 f i Shepherd.obj
 0001:00018f80       ?_Xlen@?$deque@VCVector2_x86@Math@Base@23@V?$allocator@VCVector2_x86@Math@Base@23@@std@@@std@@CAXXZ 0000000140019f80 f i main.obj
 0001:00018fa0       ??$_Emplace_reallocate@AEBVpath@filesystem@boost@@@?$vector@Vpath@filesystem@boost@@V?$allocator@Vpath@filesystem@boost@@@std@@@std@@AEAAPEAVpath@filesystem@boost@@QEAV234@AEBV234@@Z 0000000140019fa0 f i Shepherd.obj
 0001:00019160       ??$do_wait_until@V?$unique_lock@Vshared_mutex@std@@@std@@@basic_condition_variable@detail@boost@@QEAA_NAEAV?$unique_lock@Vshared_mutex@std@@@std@@AEBUmono_platform_timepoint@12@@Z 000000014001a160 f i Shepherd.obj
 0001:00019340       ??$_Emplace_reallocate@AEBV?$intrusive_ptr@Vbasic_cv_list_entry@detail@boost@@@boost@@@?$vector@V?$intrusive_ptr@Vbasic_cv_list_entry@detail@boost@@@boost@@V?$allocator@V?$intrusive_ptr@Vbasic_cv_list_entry@detail@boost@@@boost@@@std@@@std@@AEAAPEAV?$intrusive_ptr@Vbasic_cv_list_entry@detail@boost@@@boost@@QEAV23@AEBV23@@Z 000000014001a340 f i Shepherd.obj
 0001:00019550       ??1?$relocker@V?$unique_lock@Vshared_mutex@std@@@std@@@basic_condition_variable@detail@boost@@QEAA@XZ 000000014001a550 f i Shepherd.obj
 0001:000195b0       ??1?$relocker@Vshared_mutex@std@@@basic_condition_variable@detail@boost@@QEAA@XZ 000000014001a5b0 f i Shepherd.obj
 0001:000195e0       ??$_Uninitialized_move@PEAVpath@filesystem@boost@@V?$allocator@Vpath@filesystem@boost@@@std@@@std@@YAPEAVpath@filesystem@boost@@QEAV123@0PEAV123@AEAV?$allocator@Vpath@filesystem@boost@@@0@@Z 000000014001a5e0 f i Shepherd.obj
 0001:00019660       ??$_Find_hint@W4eServerEndpoint@@@?$_Tree@V?$_Tmap_traits@W4eServerEndpoint@@V?$basic_string@DU?$char_traits@D@std@@V?$allocator@D@2@@std@@U?$less@W4eServerEndpoint@@@3@V?$allocator@U?$pair@$$CBW4eServerEndpoint@@V?$basic_string@DU?$char_traits@D@std@@V?$allocator@D@2@@std@@@std@@@3@$0A@@std@@@std@@IEBA?AU?$_Tree_find_hint_result@PEAU?$_Tree_node@U?$pair@$$CBW4eServerEndpoint@@V?$basic_string@DU?$char_traits@D@std@@V?$allocator@D@2@@std@@@std@@PEAX@std@@@1@QEAU?$_Tree_node@U?$pair@$$CBW4eServerEndpoint@@V?$basic_string@DU?$char_traits@D@std@@V?$allocator@D@2@@std@@@std@@PEAX@1@AEBW4eServerEndpoint@@@Z 000000014001a660 f i Shepherd.obj
 0001:00019910       ?_Destroy@?$_Ref_count@VCMessageBody@ContentDownloader@@@std@@EEAAXXZ 000000014001a910 f i Shepherd.obj
 0001:00019920       ??1?$_Temporary_owner@VCMessageBody@ContentDownloader@@@std@@QEAA@XZ 000000014001a920 f i Shepherd.obj
 0001:00019930       ??_GCMessageBody@ContentDownloader@@QEAAPEAXI@Z 000000014001a930 f i Shepherd.obj
 0001:000199a0       ?Description@CReusableAlignedBuffers@Base@@UEAAPEBDXZ 000000014001a9a0 f i AlignedBuffer.obj
 0001:000199b0       ?Instance@CReusableAlignedBuffers@Base@@SAPEAV12@PEBDI0@Z 000000014001a9b0 f i AlignedBuffer.obj
 0001:00019ba0       ??_ECReusableAlignedBuffers@Base@@UEAAPEAXI@Z 000000014001aba0 f i * CIL library *:* CIL module *
 0001:00019ba0       ??_GCReusableAlignedBuffers@Base@@UEAAPEAXI@Z 000000014001aba0 f i AlignedBuffer.obj
 0001:00019be0       ??_E?$CSingleton@VCReusableAlignedBuffers@Base@@@Base@@UEAAPEAXI@Z 000000014001abe0 f i * CIL library *:* CIL module *
 0001:00019be0       ??_G?$CSingleton@VCReusableAlignedBuffers@Base@@@Base@@UEAAPEAXI@Z 000000014001abe0 f i AlignedBuffer.obj
 0001:00019c10       __local_stdio_scanf_options 000000014001ac10 f i Common.obj
 0001:00019c20       sscanf                     000000014001ac20 f i Common.obj
 0001:00019c80       ??$_Emplace_reallocate@V?$basic_string@DU?$char_traits@D@std@@V?$allocator@D@2@@std@@@?$vector@V?$basic_string@DU?$char_traits@D@std@@V?$allocator@D@2@@std@@V?$allocator@V?$basic_string@DU?$char_traits@D@std@@V?$allocator@D@2@@std@@@2@@std@@AEAAPEAV?$basic_string@DU?$char_traits@D@std@@V?$allocator@D@2@@1@QEAV21@$$QEAV21@@Z 000000014001ac80 f i Common.obj
 0001:00019e60       ??$_Uninitialized_move@PEAV?$basic_string@DU?$char_traits@D@std@@V?$allocator@D@2@@std@@V?$allocator@V?$basic_string@DU?$char_traits@D@std@@V?$allocator@D@2@@std@@@2@@std@@YAPEAV?$basic_string@DU?$char_traits@D@std@@V?$allocator@D@2@@0@QEAV10@0PEAV10@AEAV?$allocator@V?$basic_string@DU?$char_traits@D@std@@V?$allocator@D@2@@std@@@0@@Z 000000014001ae60 f i Common.obj
 0001:00019ee0       ??1?$_Uninitialized_backout_al@V?$allocator@V?$basic_string@DU?$char_traits@D@std@@V?$allocator@D@2@@std@@@std@@@std@@QEAA@XZ 000000014001aee0 f i Common.obj
 0001:00019ef0       ??_D?$basic_ostringstream@DU?$char_traits@D@std@@V?$allocator@D@2@@std@@QEAAXXZ 000000014001aef0 f i Exception.obj
 0001:00019f80       ??0?$basic_ostringstream@DU?$char_traits@D@std@@V?$allocator@D@2@@std@@QEAA@XZ 000000014001af80 f i Exception.obj
 0001:0001a0a0       ??_E?$basic_ostringstream@DU?$char_traits@D@std@@V?$allocator@D@2@@std@@UEAAPEAXI@Z 000000014001b0a0 f i * CIL library *:* CIL module *
 0001:0001a0a0       ??_G?$basic_ostringstream@DU?$char_traits@D@std@@V?$allocator@D@2@@std@@UEAAPEAXI@Z 000000014001b0a0 f i Exception.obj
 0001:0001a0e0       ??0?$basic_ostream@DU?$char_traits@D@std@@@std@@QEAA@PEAV?$basic_streambuf@DU?$char_traits@D@std@@@1@_N@Z 000000014001b0e0 f i Exception.obj
 0001:0001a180       ??$_Insert_string@DU?$char_traits@D@std@@_K@std@@YAAEAV?$basic_ostream@DU?$char_traits@D@std@@@0@AEAV10@QEBD_K@Z 000000014001b180 f i Exception.obj
 0001:0001a438       ??_E?$basic_ostringstream@DU?$char_traits@D@std@@V?$allocator@D@2@@std@@$4PPPPPPPM@A@EAAPEAXI@Z 000000014001b438 f i Exception.obj
 0001:0001a450       ??_ECLog@Base@@UEAAPEAXI@Z 000000014001b450 f i * CIL library *:* CIL module *
 0001:0001a450       ??_GCLog@Base@@UEAAPEAXI@Z 000000014001b450 f i Log.obj
 0001:0001a490       ??_E?$CSingleton@VCLog@Base@@@Base@@UEAAPEAXI@Z 000000014001b490 f i * CIL library *:* CIL module *
 0001:0001a490       ??_G?$CSingleton@VCLog@Base@@@Base@@UEAAPEAXI@Z 000000014001b490 f i Log.obj
 0001:0001a4c0       ??0CVideoFrame@ContentDecoder@@QEAA@PEAUAVCodecContext@@W4AVPixelFormat@@V?$basic_string@DU?$char_traits@D@std@@V?$allocator@D@2@@std@@@Z 000000014001b4c0 f i ContentDecoder.obj
 0001:0001a820       ?Data@CVideoFrame@ContentDecoder@@UEAAPEAEXZ 000000014001b820 f i ContentDecoder.obj
 0001:0001a840       ?StorageBuffer@CVideoFrame@ContentDecoder@@UEAAAEAV?$shared_ptr@VCAlignedBuffer@Base@@@std@@XZ 000000014001b840 f i ContentDecoder.obj
 0001:0001a850       ?CopyBuffer@CVideoFrame@ContentDecoder@@UEAAXXZ 000000014001b850 f i ContentDecoder.obj
 0001:0001a940       ?Stride@CVideoFrame@ContentDecoder@@UEAAHXZ 000000014001b940 f i ContentDecoder.obj
 0001:0001a960       ??_ECVideoFrame@ContentDecoder@@UEAAPEAXI@Z 000000014001b960 f i * CIL library *:* CIL module *
 0001:0001a960       ??_GCVideoFrame@ContentDecoder@@UEAAPEAXI@Z 000000014001b960 f i ContentDecoder.obj
 0001:0001aa60       ??_ECContentDecoder@ContentDecoder@@UEAAPEAXI@Z 000000014001ba60 f i * CIL library *:* CIL module *
 0001:0001aa60       ??_GCContentDecoder@ContentDecoder@@UEAAPEAXI@Z 000000014001ba60 f i ContentDecoder.obj
 0001:0001aad0       ??1?$CBlockingQueue@PEAVCVideoFrame@ContentDecoder@@@Base@@QEAA@XZ 000000014001bad0 f i ContentDecoder.obj
 0001:0001ab90       ??1?$deque@PEAVCVideoFrame@ContentDecoder@@V?$allocator@PEAVCVideoFrame@ContentDecoder@@@std@@@std@@QEAA@XZ 000000014001bb90 f i ContentDecoder.obj
 0001:0001ab90       ??1?$deque@VCVector2_x86@Math@Base@23@V?$allocator@VCVector2_x86@Math@Base@23@@std@@@std@@QEAA@XZ 000000014001bb90 f i main.obj
 0001:0001ac60       ??R?$default_delete@UsOpenVideoInfo@ContentDecoder@@@std@@QEBAXPEAUsOpenVideoInfo@ContentDecoder@@@Z 000000014001bc60 f i ContentDecoder.obj
 0001:0001ad40       ?_Destroy@?$_Ref_count@VCAlignedBuffer@Base@@@std@@EEAAXXZ 000000014001bd40 f i ContentDecoder.obj
 0001:0001ad60       ??1?$_Temporary_owner@VCAlignedBuffer@Base@@@std@@QEAA@XZ 000000014001bd60 f i ContentDecoder.obj
 0001:0001ad80       ?_Destroy@?$_Ref_count_obj2@VCAlignedBuffer@Base@@@std@@EEAAXXZ 000000014001bd80 f i ContentDecoder.obj
 0001:0001ad90       ??_GCAlignedBuffer@Base@@QEAAPEAXI@Z 000000014001bd90 f i ContentDecoder.obj
 0001:0001aee0       ??_E?$_Ref_count_obj2@VCAlignedBuffer@Base@@@std@@UEAAPEAXI@Z 000000014001bee0 f i * CIL library *:* CIL module *
 0001:0001aee0       ??_G?$_Ref_count_obj2@VCAlignedBuffer@Base@@@std@@UEAAPEAXI@Z 000000014001bee0 f i ContentDecoder.obj
 0001:0001af10       ??$heap_new@V?$thread_data@V?$bind_t@XV?$mf0@XVCContentDecoder@ContentDecoder@@@_mfi@boost@@V?$list1@V?$value@PEAVCContentDecoder@ContentDecoder@@@_bi@boost@@@_bi@3@@_bi@boost@@@detail@boost@@V?$bind_t@XV?$mf0@XVCContentDecoder@ContentDecoder@@@_mfi@boost@@V?$list1@V?$value@PEAVCContentDecoder@ContentDecoder@@@_bi@boost@@@_bi@3@@_bi@3@@detail@boost@@YAPEAV?$thread_data@V?$bind_t@XV?$mf0@XVCContentDecoder@ContentDecoder@@@_mfi@boost@@V?$list1@V?$value@PEAVCContentDecoder@ContentDecoder@@@_bi@boost@@@_bi@3@@_bi@boost@@@01@$$QEAV?$bind_t@XV?$mf0@XVCContentDecoder@ContentDecoder@@@_mfi@boost@@V?$list1@V?$value@PEAVCContentDecoder@ContentDecoder@@@_bi@boost@@@_bi@3@@_bi@1@@Z 000000014001bf10 f i ContentDecoder.obj
 0001:0001af80       ??1?$map@V?$basic_string@DU?$char_traits@D@std@@V?$allocator@D@2@@std@@V?$shared_ptr@VCHudEntry@Hud@@@2@U?$less@V?$basic_string@DU?$char_traits@D@std@@V?$allocator@D@2@@std@@@2@V?$allocator@U?$pair@$$CBV?$basic_string@DU?$char_traits@D@std@@V?$allocator@D@2@@std@@V?$shared_ptr@VCHudEntry@Hud@@@2@@std@@@2@@std@@QEAA@XZ 000000014001bf80 f i Hud.obj
 0001:0001afb0       ?_Erase_unchecked@?$_Tree@V?$_Tmap_traits@V?$basic_string@DU?$char_traits@D@std@@V?$allocator@D@2@@std@@V?$shared_ptr@VCHudEntry@Hud@@@2@U?$less@V?$basic_string@DU?$char_traits@D@std@@V?$allocator@D@2@@std@@@2@V?$allocator@U?$pair@$$CBV?$basic_string@DU?$char_traits@D@std@@V?$allocator@D@2@@std@@V?$shared_ptr@VCHudEntry@Hud@@@2@@std@@@2@$0A@@std@@@std@@AEAAPEAU?$_Tree_node@U?$pair@$$CBV?$basic_string@DU?$char_traits@D@std@@V?$allocator@D@2@@std@@V?$shared_ptr@VCHudEntry@Hud@@@2@@std@@PEAX@2@V?$_Tree_unchecked_const_iterator@V?$_Tree_val@U?$_Tree_simple_types@U?$pair@$$CBV?$basic_string@DU?$char_traits@D@std@@V?$allocator@D@2@@std@@V?$shared_ptr@VCHudEntry@Hud@@@2@@std@@@std@@@std@@U_Iterator_base0@2@@2@@Z 000000014001bfb0 f i Hud.obj
 0001:0001b040       ?_Extract@?$_Tree_val@U?$_Tree_simple_types@U?$pair@$$CBV?$basic_string@DU?$char_traits@D@std@@V?$allocator@D@2@@std@@V12@@std@@@std@@@std@@QEAAPEAU?$_Tree_node@U?$pair@$$CBV?$basic_string@DU?$char_traits@D@std@@V?$allocator@D@2@@std@@V12@@std@@PEAX@2@V?$_Tree_unchecked_const_iterator@V?$_Tree_val@U?$_Tree_simple_types@U?$pair@$$CBV?$basic_string@DU?$char_traits@D@std@@V?$allocator@D@2@@std@@V12@@std@@@std@@@std@@U_Iterator_base0@2@@2@@Z 000000014001c040 f i Networking.obj
 0001:0001b040       ?_Extract@?$_Tree_val@U?$_Tree_simple_types@U?$pair@$$CBV?$basic_string@DU?$char_traits@D@std@@V?$allocator@D@2@@std@@V?$shared_ptr@VCHudEntry@Hud@@@2@@std@@@std@@@std@@QEAAPEAU?$_Tree_node@U?$pair@$$CBV?$basic_string@DU?$char_traits@D@std@@V?$allocator@D@2@@std@@V?$shared_ptr@VCHudEntry@Hud@@@2@@std@@PEAX@2@V?$_Tree_unchecked_const_iterator@V?$_Tree_val@U?$_Tree_simple_types@U?$pair@$$CBV?$basic_string@DU?$char_traits@D@std@@V?$allocator@D@2@@std@@V?$shared_ptr@VCHudEntry@Hud@@@2@@std@@@std@@@std@@U_Iterator_base0@2@@2@@Z 000000014001c040 f i Hud.obj
 0001:0001b420       ?_Rrotate@?$_Tree_val@U?$_Tree_simple_types@U?$pair@$$CBV?$basic_string@DU?$char_traits@D@std@@V?$allocator@D@2@@std@@V12@@std@@@std@@@std@@QEAAXPEAU?$_Tree_node@U?$pair@$$CBV?$basic_string@DU?$char_traits@D@std@@V?$allocator@D@2@@std@@V12@@std@@PEAX@2@@Z 000000014001c420 f i Networking.obj
 0001:0001b420       ?_Rrotate@?$_Tree_val@U?$_Tree_simple_types@U?$pair@$$CBV?$basic_string@DU?$char_traits@D@std@@V?$allocator@D@2@@std@@V?$shared_ptr@VCHudEntry@Hud@@@2@@std@@@std@@@std@@QEAAXPEAU?$_Tree_node@U?$pair@$$CBV?$basic_string@DU?$char_traits@D@std@@V?$allocator@D@2@@std@@V?$shared_ptr@VCHudEntry@Hud@@@2@@std@@PEAX@2@@Z 000000014001c420 f i Hud.obj
 0001:0001b480       ?_Lrotate@?$_Tree_val@U?$_Tree_simple_types@U?$pair@$$CBV?$basic_string@DU?$char_traits@D@std@@V?$allocator@D@2@@std@@V12@@std@@@std@@@std@@QEAAXPEAU?$_Tree_node@U?$pair@$$CBV?$basic_string@DU?$char_traits@D@std@@V?$allocator@D@2@@std@@V12@@std@@PEAX@2@@Z 000000014001c480 f i Networking.obj
 0001:0001b480       ?_Lrotate@?$_Tree_val@U?$_Tree_simple_types@U?$pair@$$CBV?$basic_string@DU?$char_traits@D@std@@V?$allocator@D@2@@std@@V?$shared_ptr@VCHudEntry@Hud@@@2@@std@@@std@@@std@@QEAAXPEAU?$_Tree_node@U?$pair@$$CBV?$basic_string@DU?$char_traits@D@std@@V?$allocator@D@2@@std@@V?$shared_ptr@VCHudEntry@Hud@@@2@@std@@PEAX@2@@Z 000000014001c480 f i Hud.obj
 0001:0001b4e0       ??$_Try_emplace@AEBV?$basic_string@DU?$char_traits@D@std@@V?$allocator@D@2@@std@@$$V@?$map@V?$basic_string@DU?$char_traits@D@std@@V?$allocator@D@2@@std@@V?$shared_ptr@VCHudEntry@Hud@@@2@U?$less@V?$basic_string@DU?$char_traits@D@std@@V?$allocator@D@2@@std@@@2@V?$allocator@U?$pair@$$CBV?$basic_string@DU?$char_traits@D@std@@V?$allocator@D@2@@std@@V?$shared_ptr@VCHudEntry@Hud@@@2@@std@@@2@@std@@AEAA?AU?$pair@PEAU?$_Tree_node@U?$pair@$$CBV?$basic_string@DU?$char_traits@D@std@@V?$allocator@D@2@@std@@V?$shared_ptr@VCHudEntry@Hud@@@2@@std@@PEAX@std@@_N@1@AEBV?$basic_string@DU?$char_traits@D@std@@V?$allocator@D@2@@1@@Z 000000014001c4e0 f i Hud.obj
 0001:0001b670       ??$_Erase_tree@V?$allocator@U?$_Tree_node@U?$pair@$$CBV?$basic_string@DU?$char_traits@D@std@@V?$allocator@D@2@@std@@V?$shared_ptr@VCBlend@DisplayOutput@@@2@@std@@PEAX@std@@@std@@@?$_Tree_val@U?$_Tree_simple_types@U?$pair@$$CBV?$basic_string@DU?$char_traits@D@std@@V?$allocator@D@2@@std@@V?$shared_ptr@VCBlend@DisplayOutput@@@2@@std@@@std@@@std@@QEAAXAEAV?$allocator@U?$_Tree_node@U?$pair@$$CBV?$basic_string@DU?$char_traits@D@std@@V?$allocator@D@2@@std@@V?$shared_ptr@VCBlend@DisplayOutput@@@2@@std@@PEAX@std@@@1@PEAU?$_Tree_node@U?$pair@$$CBV?$basic_string@DU?$char_traits@D@std@@V?$allocator@D@2@@std@@V?$shared_ptr@VCBlend@DisplayOutput@@@2@@std@@PEAX@1@@Z 000000014001c670 f i Renderer.obj
 0001:0001b670       ??$_Erase_tree@V?$allocator@U?$_Tree_node@U?$pair@$$CBV?$basic_string@DU?$char_traits@D@std@@V?$allocator@D@2@@std@@V?$shared_ptr@VCHudEntry@Hud@@@2@@std@@PEAX@std@@@std@@@?$_Tree_val@U?$_Tree_simple_types@U?$pair@$$CBV?$basic_string@DU?$char_traits@D@std@@V?$allocator@D@2@@std@@V?$shared_ptr@VCHudEntry@Hud@@@2@@std@@@std@@@std@@QEAAXAEAV?$allocator@U?$_Tree_node@U?$pair@$$CBV?$basic_string@DU?$char_traits@D@std@@V?$allocator@D@2@@std@@V?$shared_ptr@VCHudEntry@Hud@@@2@@std@@PEAX@std@@@1@PEAU?$_Tree_node@U?$pair@$$CBV?$basic_string@DU?$char_traits@D@std@@V?$allocator@D@2@@std@@V?$shared_ptr@VCHudEntry@Hud@@@2@@std@@PEAX@1@@Z 000000014001c670 f i Hud.obj
 0001:0001b670       ??$_Erase_tree@V?$allocator@U?$_Tree_node@U?$pair@$$CBV?$basic_string@DU?$char_traits@D@std@@V?$allocator@D@2@@std@@V?$shared_ptr@VCShaderUniform@DisplayOutput@@@2@@std@@PEAX@std@@@std@@@?$_Tree_val@U?$_Tree_simple_types@U?$pair@$$CBV?$basic_string@DU?$char_traits@D@std@@V?$allocator@D@2@@std@@V?$shared_ptr@VCShaderUniform@DisplayOutput@@@2@@std@@@std@@@std@@QEAAXAEAV?$allocator@U?$_Tree_node@U?$pair@$$CBV?$basic_string@DU?$char_traits@D@std@@V?$allocator@D@2@@std@@V?$shared_ptr@VCShaderUniform@DisplayOutput@@@2@@std@@PEAX@std@@@1@PEAU?$_Tree_node@U?$pair@$$CBV?$basic_string@DU?$char_traits@D@std@@V?$allocator@D@2@@std@@V?$shared_ptr@VCShaderUniform@DisplayOutput@@@2@@std@@PEAX@1@@Z 000000014001c670 f i Shader.obj
 0001:0001b6f0       ??R?$less@V?$basic_string@DU?$char_traits@D@std@@V?$allocator@D@2@@std@@@std@@QEBA_NAEBV?$basic_string@DU?$char_traits@D@std@@V?$allocator@D@2@@1@0@Z 000000014001c6f0 f i Hud.obj
 0001:0001b770       ??1?$_Alloc_construct_ptr@V?$allocator@U?$_Tree_node@U?$pair@$$CBV?$basic_string@DU?$char_traits@D@std@@V?$allocator@D@2@@std@@V?$shared_ptr@VCBlend@DisplayOutput@@@2@@std@@PEAX@std@@@std@@@std@@QEAA@XZ 000000014001c770 f i Renderer.obj
 0001:0001b770       ??1?$_Alloc_construct_ptr@V?$allocator@U?$_Tree_node@U?$pair@$$CBV?$basic_string@DU?$char_traits@D@std@@V?$allocator@D@2@@std@@V?$shared_ptr@VCHudEntry@Hud@@@2@@std@@PEAX@std@@@std@@@std@@QEAA@XZ 000000014001c770 f i Hud.obj
 0001:0001b770       ??1?$_Alloc_construct_ptr@V?$allocator@U?$_Tree_node@U?$pair@$$CBV?$basic_string@DU?$char_traits@D@std@@V?$allocator@D@2@@std@@V?$shared_ptr@VCShaderUniform@DisplayOutput@@@2@@std@@PEAX@std@@@std@@@std@@QEAA@XZ 000000014001c770 f i ShaderDX.obj
 0001:0001b770       ??1?$_Tree_temp_node_alloc@V?$allocator@U?$_Tree_node@U?$pair@$$CBV?$basic_string@DU?$char_traits@D@std@@V?$allocator@D@2@@std@@V?$shared_ptr@VCBlend@DisplayOutput@@@2@@std@@PEAX@std@@@std@@@std@@QEAA@XZ 000000014001c770 f i Renderer.obj
 0001:0001b770       ??1?$_Tree_temp_node_alloc@V?$allocator@U?$_Tree_node@U?$pair@$$CBV?$basic_string@DU?$char_traits@D@std@@V?$allocator@D@2@@std@@V?$shared_ptr@VCHudEntry@Hud@@@2@@std@@PEAX@std@@@std@@@std@@QEAA@XZ 000000014001c770 f i Hud.obj
 0001:0001b790       ??1?$pair@$$CBV?$basic_string@DU?$char_traits@D@std@@V?$allocator@D@2@@std@@V?$shared_ptr@VCBlend@DisplayOutput@@@2@@std@@QEAA@XZ 000000014001c790 f i Renderer.obj
 0001:0001b790       ??1?$pair@$$CBV?$basic_string@DU?$char_traits@D@std@@V?$allocator@D@2@@std@@V?$shared_ptr@VCHudEntry@Hud@@@2@@std@@QEAA@XZ 000000014001c790 f i Hud.obj
 0001:0001b790       ??1?$pair@$$CBV?$basic_string@DU?$char_traits@D@std@@V?$allocator@D@2@@std@@V?$shared_ptr@VCShaderUniform@DisplayOutput@@@2@@std@@QEAA@XZ 000000014001c790 f i ShaderDX.obj
 0001:0001b840       ??0lock_error@boost@@QEAA@HPEBD@Z 000000014001c840 f i main.obj
 0001:0001b870       ?wait@barrier@boost@@QEAA_NXZ 000000014001c870 f i main.obj
 0001:0001bcc0       ??1IStorageInterface@TupleStorage@@UEAA@XZ 000000014001ccc0 f i main.obj
 0001:0001bd30       ??_EIStorageInterface@TupleStorage@@UEAAPEAXI@Z 000000014001cd30 f i * CIL library *:* CIL module *
 0001:0001bd30       ??_GIStorageInterface@TupleStorage@@UEAAPEAXI@Z 000000014001cd30 f i main.obj
 0001:0001bd70       ??_EJSONStorage@TupleStorage@@UEAAPEAXI@Z 000000014001cd70 f i * CIL library *:* CIL module *
 0001:0001bd70       ??_GJSONStorage@TupleStorage@@UEAAPEAXI@Z 000000014001cd70 f i main.obj
 0001:0001be60       ?PopOverflowMessage@Shepherd@ContentDownloader@@SA_NAEAV?$basic_string@DU?$char_traits@D@std@@V?$allocator@D@2@@std@@@Z 000000014001ce60 f i main.obj
 0001:0001c0d0       ?Display@CPlayer@@QEAA?AV?$shared_ptr@VCDisplayOutput@DisplayOutput@@@std@@I@Z 000000014001d0d0 f i main.obj
 0001:0001c180       ?Renderer@CPlayer@@QEAA?AV?$shared_ptr@VCRenderer@DisplayOutput@@@std@@XZ 000000014001d180 f i main.obj
 0001:0001c230       ??1CHudEntry@Hud@@UEAA@XZ  000000014001d230 f i main.obj
 0001:0001c240       ?Render@CHudEntry@Hud@@UEAA_NNV?$shared_ptr@VCRenderer@DisplayOutput@@@std@@@Z 000000014001d240 f i main.obj
 0001:0001c300       ?Visible@CHudEntry@Hud@@UEAAX_N@Z 000000014001d300 f i main.obj
 0001:0001c310       ?Visible@CHudEntry@Hud@@UEBA_NXZ 000000014001d310 f i main.obj
 0001:0001c320       ??_ECHudEntry@Hud@@UEAAPEAXI@Z 000000014001d320 f i * CIL library *:* CIL module *
 0001:0001c320       ??_GCHudEntry@Hud@@UEAAPEAXI@Z 000000014001d320 f i main.obj
 0001:0001c350       ?Get@CHudManager@Hud@@QEAA?AV?$shared_ptr@VCHudEntry@Hud@@@std@@V?$basic_string@DU?$char_traits@D@std@@V?$allocator@D@2@@4@@Z 000000014001d350 f i main.obj
 0001:0001c410       ??0CCrossFade@Hud@@QEAA@II_N@Z 000000014001d410 f i main.obj
 0001:0001c670       ?Render@CCrossFade@Hud@@UEAA_NNV?$shared_ptr@VCRenderer@DisplayOutput@@@std@@@Z 000000014001d670 f i main.obj
 0001:0001c8f0       ??_ECCrossFade@Hud@@UEAAPEAXI@Z 000000014001d8f0 f i * CIL library *:* CIL module *
 0001:0001c8f0       ??_GCCrossFade@Hud@@UEAAPEAXI@Z 000000014001d8f0 f i main.obj
 0001:0001c980       ??1CConsole@Hud@@UEAA@XZ   000000014001d980 f i main.obj
 0001:0001ca20       ??_ECConsole@Hud@@UEAAPEAXI@Z 000000014001da20 f i * CIL library *:* CIL module *
 0001:0001ca20       ??_GCConsole@Hud@@UEAAPEAXI@Z 000000014001da20 f i main.obj
 0001:0001ca60       ??0CStat@Hud@@QEAA@V?$basic_string@DU?$char_traits@D@std@@V?$allocator@D@2@@std@@@Z 000000014001da60 f i main.obj
 0001:0001cb10       ??1CStat@Hud@@UEAA@XZ      000000014001db10 f i main.obj
 0001:0001cb80       ??_ECStat@Hud@@UEAAPEAXI@Z 000000014001db80 f i * CIL library *:* CIL module *
 0001:0001cb80       ??_GCStat@Hud@@UEAAPEAXI@Z 000000014001db80 f i main.obj
 0001:0001cbc0       ??0CStringStat@Hud@@QEAA@V?$basic_string@DU?$char_traits@D@std@@V?$allocator@D@2@@std@@00@Z 000000014001dbc0 f i main.obj
 0001:0001cd40       ?Report@CStringStat@Hud@@UEAA?BV?$basic_string@DU?$char_traits@D@std@@V?$allocator@D@2@@std@@N@Z 000000014001dd40 f i main.obj
 0001:0001cdc0       ?SetSample@CStringStat@Hud@@QEAAXV?$basic_string@DU?$char_traits@D@std@@V?$allocator@D@2@@std@@@Z 000000014001ddc0 f i main.obj
 0001:0001ce60       ??_ECStringStat@Hud@@UEAAPEAXI@Z 000000014001de60 f i * CIL library *:* CIL module *
 0001:0001ce60       ??_GCStringStat@Hud@@UEAAPEAXI@Z 000000014001de60 f i main.obj
 0001:0001cf50       ??0CIntCounter@Hud@@QEAA@V?$basic_string@DU?$char_traits@D@std@@V?$allocator@D@2@@std@@00@Z 000000014001df50 f i main.obj
 0001:0001d0d0       ??1CIntCounter@Hud@@UEAA@XZ 000000014001e0d0 f i main.obj
 0001:0001d190       ?Report@CIntCounter@Hud@@UEAA?BV?$basic_string@DU?$char_traits@D@std@@V?$allocator@D@2@@std@@N@Z 000000014001e190 f i main.obj
 0001:0001d230       ??_ECIntCounter@Hud@@UEAAPEAXI@Z 000000014001e230 f i * CIL library *:* CIL module *
 0001:0001d230       ??_GCIntCounter@Hud@@UEAAPEAXI@Z 000000014001e230 f i main.obj
 0001:0001d270       ??0CAverageCounter@Hud@@QEAA@V?$basic_string@DU?$char_traits@D@std@@V?$allocator@D@2@@std@@00N@Z 000000014001e270 f i main.obj
 0001:0001d4f0       ?Report@CAverageCounter@Hud@@UEAA?BV?$basic_string@DU?$char_traits@D@std@@V?$allocator@D@2@@std@@N@Z 000000014001e4f0 f i main.obj
 0001:0001d750       ??_ECAverageCounter@Hud@@UEAAPEAXI@Z 000000014001e750 f i * CIL library *:* CIL module *
 0001:0001d750       ??_GCAverageCounter@Hud@@UEAAPEAXI@Z 000000014001e750 f i main.obj
 0001:0001d800       ??0CTimeCountDownStat@Hud@@QEAA@V?$basic_string@DU?$char_traits@D@std@@V?$allocator@D@2@@std@@00@Z 000000014001e800 f i main.obj
 0001:0001da20       ?Report@CTimeCountDownStat@Hud@@UEAA?BV?$basic_string@DU?$char_traits@D@std@@V?$allocator@D@2@@std@@N@Z 000000014001ea20 f i main.obj
 0001:0001dbc0       ?SetSample@CTimeCountDownStat@Hud@@QEAAXAEBV?$basic_string@DU?$char_traits@D@std@@V?$allocator@D@2@@std@@@Z 000000014001ebc0 f i main.obj
 0001:0001ded0       ??_ECTimeCountDownStat@Hud@@UEAAPEAXI@Z 000000014001eed0 f i * CIL library *:* CIL module *
 0001:0001ded0       ??_GCTimeCountDownStat@Hud@@UEAAPEAXI@Z 000000014001eed0 f i main.obj
 0001:0001e020       ??0CStatsConsole@Hud@@QEAA@VCRect@Math@Base@@AEBV?$basic_string@DU?$char_traits@D@std@@V?$allocator@D@2@@std@@I@Z 000000014001f020 f i main.obj
 0001:0001e250       ?Add@CStatsConsole@Hud@@QEAAXPEAVCStat@2@@Z 000000014001f250 f i main.obj
 0001:0001e430       ?Get@CStatsConsole@Hud@@QEAAPEAVCStat@2@V?$basic_string_view@DU?$char_traits@D@std@@@std@@@Z 000000014001f430 f i main.obj
 0001:0001e550       ?Visible@CStatsConsole@Hud@@UEAAX_N@Z 000000014001f550 f i main.obj
 0001:0001e5a0       ?Render@CStatsConsole@Hud@@UEAA_NNV?$shared_ptr@VCRenderer@DisplayOutput@@@std@@@Z 000000014001f5a0 f i main.obj
 0001:0001e7c0       ??R<lambda_1>@?1??Render@CStatsConsole@Hud@@UEAA_NNV?$shared_ptr@VCRenderer@DisplayOutput@@@std@@@Z@QEBA@XZ 000000014001f7c0 f i main.obj
 0001:0001ecf0       ??_ECStatsConsole@Hud@@UEAAPEAXI@Z 000000014001fcf0 f i * CIL library *:* CIL module *
 0001:0001ecf0       ??_GCStatsConsole@Hud@@UEAAPEAXI@Z 000000014001fcf0 f i main.obj
 0001:0001ee10       ??1StatText@CStatsConsole@Hud@@QEAA@XZ 000000014001fe10 f i main.obj
 0001:0001ee60       ??1?$queue@VCVector2_x86@Math@Base@23@V?$deque@VCVector2_x86@Math@Base@23@V?$allocator@VCVector2_x86@Math@Base@23@@std@@@std@@@std@@QEAA@XZ 000000014001fe60 f i main.obj
 0001:0001ee70       ??1?$_Func_class@X$$V@std@@QEAA@XZ 000000014001fe70 f i main.obj
 0001:0001ee70       ??1?$function@$$A6A?AV?$basic_string@DU?$char_traits@D@std@@V?$allocator@D@2@@std@@PEAVvalue@json@boost@@@Z@std@@QEAA@XZ 000000014001fe70 f i JSONStorage.obj
 0001:0001ee70       ??1?$function@$$A6A?AV?$vector@V?$basic_string@DU?$char_traits@D@std@@V?$allocator@D@2@@std@@V?$allocator@V?$basic_string@DU?$char_traits@D@std@@V?$allocator@D@2@@std@@@2@@std@@PEAVvalue@json@boost@@@Z@std@@QEAA@XZ 000000014001fe70 f i JSONStorage.obj
 0001:0001ee70       ??1?$function@$$A6AHPEAVvalue@json@boost@@@Z@std@@QEAA@XZ 000000014001fe70 f i JSONStorage.obj
 0001:0001ee70       ??1?$function@$$A6ANPEAVvalue@json@boost@@@Z@std@@QEAA@XZ 000000014001fe70 f i JSONStorage.obj
 0001:0001ee70       ??1?$function@$$A6AXPEAVobject@json@boost@@V?$basic_string_view@DU?$char_traits@D@std@@@std@@H@Z@std@@QEAA@XZ 000000014001fe70 f i JSONStorage.obj
 0001:0001ee70       ??1?$function@$$A6AXPEAVobject@json@boost@@V?$basic_string_view@DU?$char_traits@D@std@@@std@@N@Z@std@@QEAA@XZ 000000014001fe70 f i JSONStorage.obj
 0001:0001ee70       ??1?$function@$$A6AXPEAVobject@json@boost@@V?$basic_string_view@DU?$char_traits@D@std@@@std@@V?$basic_string@DU?$char_traits@D@std@@V?$allocator@D@2@@5@@Z@std@@QEAA@XZ 000000014001fe70 f i JSONStorage.obj
 0001:0001ee70       ??1?$function@$$A6AXPEAVobject@json@boost@@V?$basic_string_view@DU?$char_traits@D@std@@@std@@V?$vector@V?$basic_string@DU?$char_traits@D@std@@V?$allocator@D@2@@std@@V?$allocator@V?$basic_string@DU?$char_traits@D@std@@V?$allocator@D@2@@std@@@2@@5@@Z@std@@QEAA@XZ 000000014001fe70 f i JSONStorage.obj
 0001:0001ee70       ??1?$function@$$A6AXPEAVobject@json@boost@@V?$basic_string_view@DU?$char_traits@D@std@@@std@@_K@Z@std@@QEAA@XZ 000000014001fe70 f i JSONStorage.obj
 0001:0001ee70       ??1?$function@$$A6AXPEAVobject@json@boost@@V?$basic_string_view@DU?$char_traits@D@std@@@std@@_N@Z@std@@QEAA@XZ 000000014001fe70 f i JSONStorage.obj
 0001:0001ee70       ??1?$function@$$A6AXXZ@std@@QEAA@XZ 000000014001fe70 f i main.obj
 0001:0001ee70       ??1?$function@$$A6A_KPEAVvalue@json@boost@@@Z@std@@QEAA@XZ 000000014001fe70 f i JSONStorage.obj
 0001:0001ee70       ??1?$function@$$A6A_NPEAVvalue@json@boost@@@Z@std@@QEAA@XZ 000000014001fe70 f i JSONStorage.obj
 0001:0001eea0       ??0CServerMessage@Hud@@QEAA@AEAV?$basic_string@DU?$char_traits@D@std@@V?$allocator@D@2@@std@@VCRect@Math@Base@@I@Z 000000014001fea0 f i main.obj
 0001:0001f460       ?Visible@CServerMessage@Hud@@UEAAX_N@Z 0000000140020460 f i main.obj
 0001:0001f460       ?Visible@CStartupScreen@Hud@@UEAAX_N@Z 0000000140020460 f i main.obj
 0001:0001f480       ?Render@CServerMessage@Hud@@UEAA_NNV?$shared_ptr@VCRenderer@DisplayOutput@@@std@@@Z 0000000140020480 f i main.obj
 0001:0001fa20       ??_ECServerMessage@Hud@@UEAAPEAXI@Z 0000000140020a20 f i * CIL library *:* CIL module *
 0001:0001fa20       ??_GCServerMessage@Hud@@UEAAPEAXI@Z 0000000140020a20 f i main.obj
 0001:0001fb60       ??0CSplash@Hud@@QEAA@MAEBV?$basic_string@DU?$char_traits@D@std@@V?$allocator@D@2@@std@@@Z 0000000140020b60 f i main.obj
 0001:0001fec0       ?Render@CSplash@Hud@@UEAA_NNV?$shared_ptr@VCRenderer@DisplayOutput@@@std@@@Z 0000000140020ec0 f i main.obj
 0001:00020220       ??_ECSplash@Hud@@UEAAPEAXI@Z 0000000140021220 f i * CIL library *:* CIL module *
 0001:00020220       ??_GCSplash@Hud@@UEAAPEAXI@Z 0000000140021220 f i main.obj
 0001:000202e0       ??0CSplashImage@Hud@@QEAA@MAEBV?$basic_string@DU?$char_traits@D@std@@V?$allocator@D@2@@std@@MMM@Z 00000001400212e0 f i main.obj
 0001:00020610       ?Render@CSplashImage@Hud@@UEAA_NNV?$shared_ptr@VCRenderer@DisplayOutput@@@std@@@Z 0000000140021610 f i main.obj
 0001:000208f0       ??_ECSplashImage@Hud@@UEAAPEAXI@Z 00000001400218f0 f i * CIL library *:* CIL module *
 0001:000208f0       ??_GCSplashImage@Hud@@UEAAPEAXI@Z 00000001400218f0 f i main.obj
 0001:00020980       ??0COSD@Hud@@QEAA@VCRect@Math@Base@@NNNN@Z 0000000140021980 f i main.obj
 0001:000231e0       ?Render@COSD@Hud@@UEAA_NNV?$shared_ptr@VCRenderer@DisplayOutput@@@std@@@Z 00000001400241e0 f i main.obj
 0001:00023cc0       ??_ECOSD@Hud@@UEAAPEAXI@Z  0000000140024cc0 f i * CIL library *:* CIL module *
 0001:00023cc0       ??_GCOSD@Hud@@UEAAPEAXI@Z  0000000140024cc0 f i main.obj
 0001:00023d00       ??1COSD@Hud@@UEAA@XZ       0000000140024d00 f i main.obj
 0001:00024020       ??0CStartupScreen@Hud@@QEAA@VCRect@Math@Base@@AEBV?$basic_string@DU?$char_traits@D@std@@V?$allocator@D@2@@std@@I@Z 0000000140025020 f i main.obj
 0001:00024840       ??1CStartupScreen@Hud@@UEAA@XZ 0000000140025840 f i main.obj
 0001:00024a40       ?Render@CStartupScreen@Hud@@UEAA_NNV?$shared_ptr@VCRenderer@DisplayOutput@@@std@@@Z 0000000140025a40 f i main.obj
 0001:00025280       ??_ECStartupScreen@Hud@@UEAAPEAXI@Z 0000000140026280 f i * CIL library *:* CIL module *
 0001:00025280       ??_GCStartupScreen@Hud@@UEAAPEAXI@Z 0000000140026280 f i main.obj
 0001:000252c0       ?GetCpuUsage@ESCpuUsage@@QEAA_NAEAH0@Z 00000001400262c0 f i main.obj
 0001:00025520       ?InitStorage@CElectricSheep@@IEAA_N_N@Z 0000000140026520 f i main.obj
 0001:00025800       ?AttachLog@CElectricSheep@@IEAAXXZ 0000000140026800 f i main.obj
 0001:00025b50       ??0CElectricSheep@@QEAA@XZ 0000000140026b50 f i main.obj
 0001:00025f40       ??1CElectricSheep@@UEAA@XZ 0000000140026f40 f i main.obj
 0001:000262b0       ?CreateHud@CElectricSheep@@QEAAXXZ 00000001400272b0 f i main.obj
 0001:000266e0       ?AddHelpHud@CElectricSheep@@QEAAXXZ 00000001400276e0 f i main.obj
 0001:00026eb0       ?AddDreamStatsHud@CElectricSheep@@QEAAXXZ 0000000140027eb0 f i main.obj
 0001:00028100       ?AddCreditsHud@CElectricSheep@@QEAAXXZ 0000000140029100 f i main.obj
 0001:00028420       ?AddSplashHud@CElectricSheep@@QEAAXXZ 0000000140029420 f i main.obj
 0001:00029510       ?AddProgressHud@CElectricSheep@@QEAAXXZ 000000014002a510 f i main.obj
 0001:000297c0       ?SetupProxy@CElectricSheep@@QEAAXXZ 000000014002a7c0 f i main.obj
 0001:00029da0       ?Startup@CElectricSheep@@UEAA_NXZ 000000014002ada0 f i main.obj
 0001:0002a5c0       ?Shutdown@CElectricSheep@@UEAAXXZ 000000014002b5c0 f i main.obj
 0001:0002a8f0       ?FormatTimeDiff@CElectricSheep@@SA?AV?$basic_string@DU?$char_traits@D@std@@V?$allocator@D@2@@std@@_K_N@Z 000000014002b8f0 f i main.obj
 0001:0002ab30       ?FrameNumberToMinutesAndSecondsString@CElectricSheep@@SA?AV?$basic_string@DU?$char_traits@D@std@@V?$allocator@D@2@@std@@_JM@Z 000000014002bb30 f i main.obj
 0001:0002ab90       ?Update@CElectricSheep@@UEAA_NHAEAVbarrier@boost@@0@Z 000000014002bb90 f i main.obj
 0001:0002ac00       ?DoRealFrameUpdate@CElectricSheep@@UEAA_NI@Z 000000014002bc00 f i main.obj
 0001:0002d330       ?popOSD@CElectricSheep@@QEAAXW4OSDType@Hud@@@Z 000000014002e330 f i main.obj
 0001:0002d3f0       ?ExecuteCommand@CElectricSheep@@UEAA_NW4eClientCommand@1@@Z 000000014002e3f0 f i main.obj
 0001:0002dec0       ?HandleOneEvent@CElectricSheep@@UEAA_NAEAV?$shared_ptr@VCEvent@DisplayOutput@@@std@@@Z 000000014002eec0 f i main.obj
 0001:0002e2f0       ?HandleEvents@CElectricSheep@@UEAA_NXZ 000000014002f2f0 f i main.obj
 0001:0002e4c0       ??_ECElectricSheep@@UEAAPEAXI@Z 000000014002f4c0 f i * CIL library *:* CIL module *
 0001:0002e4c0       ??_GCElectricSheep@@UEAAPEAXI@Z 000000014002f4c0 f i main.obj
 0001:0002e500       ??1ESCpuUsage@@QEAA@XZ     000000014002f500 f i main.obj
 0001:0002e510       ?WaitForParentPID@CMonoInstance@@QEAA_NXZ 000000014002f510 f i main.obj
 0001:0002e810       ?Startup@CElectricSheep_Win32@@UEAA_NXZ 000000014002f810 f i main.obj
 0001:0002fdb0       ?Update@CElectricSheep_Win32@@UEAA_NHAEAVbarrier@boost@@0@Z 0000000140030db0 f i main.obj
 0001:0002fea0       ?GetVersion@CElectricSheep_Win32@@UEAA?AV?$basic_string@DU?$char_traits@D@std@@V?$allocator@D@2@@std@@XZ 0000000140030ea0 f i main.obj
 0001:0002fee0       ?GetACLineStatus@CElectricSheep_Win32@@UEAAHXZ 0000000140030ee0 f i main.obj
 0001:0002ff30       ??_ECElectricSheep_Win32@@UEAAPEAXI@Z 0000000140030f30 f i * CIL library *:* CIL module *
 0001:0002ff30       ??_GCElectricSheep_Win32@@UEAAPEAXI@Z 0000000140030f30 f i main.obj
 0001:0002ffb0       ??1?$vector@U?$pair@V?$basic_string@DU?$char_traits@D@std@@V?$allocator@D@2@@std@@UStatText@CStatsConsole@Hud@@@std@@V?$allocator@U?$pair@V?$basic_string@DU?$char_traits@D@std@@V?$allocator@D@2@@std@@UStatText@CStatsConsole@Hud@@@std@@@2@@std@@QEAA@XZ 0000000140030fb0 f i main.obj
 0001:00030050       ?pop_front@?$deque@V?$basic_string@DU?$char_traits@D@std@@V?$allocator@D@2@@std@@V?$allocator@V?$basic_string@DU?$char_traits@D@std@@V?$allocator@D@2@@std@@@2@@std@@QEAAXXZ 0000000140031050 f i main.obj
 0001:000300f0       ?push_back@?$deque@V?$basic_string@DU?$char_traits@D@std@@V?$allocator@D@2@@std@@V?$allocator@V?$basic_string@DU?$char_traits@D@std@@V?$allocator@D@2@@std@@@2@@std@@QEAAXAEBV?$basic_string@DU?$char_traits@D@std@@V?$allocator@D@2@@2@@Z 00000001400310f0 f i main.obj
 0001:00030190       ??1?$deque@V?$basic_string@DU?$char_traits@D@std@@V?$allocator@D@2@@std@@V?$allocator@V?$basic_string@DU?$char_traits@D@std@@V?$allocator@D@2@@std@@@2@@std@@QEAA@XZ 0000000140031190 f i main.obj
 0001:00030190       ??1?$queue@V?$basic_string@DU?$char_traits@D@std@@V?$allocator@D@2@@std@@V?$deque@V?$basic_string@DU?$char_traits@D@std@@V?$allocator@D@2@@std@@V?$allocator@V?$basic_string@DU?$char_traits@D@std@@V?$allocator@D@2@@std@@@2@@2@@std@@QEAA@XZ 0000000140031190 f i Player.obj
 0001:000301c0       ?erase@?$vector@V?$shared_ptr@VCTimedMessageBody@ContentDownloader@@@std@@V?$allocator@V?$shared_ptr@VCTimedMessageBody@ContentDownloader@@@std@@@2@@std@@QEAA?AV?$_Vector_iterator@V?$_Vector_val@U?$_Simple_types@V?$shared_ptr@VCTimedMessageBody@ContentDownloader@@@std@@@std@@@std@@@2@V?$_Vector_const_iterator@V?$_Vector_val@U?$_Simple_types@V?$shared_ptr@VCTimedMessageBody@ContentDownloader@@@std@@@std@@@std@@@2@0@Z 00000001400311c0 f i main.obj
 0001:00030300       ?lock@?$unique_lock@Vmutex@boost@@@boost@@QEAAXXZ 0000000140031300 f i main.obj
 0001:00030370       ??6?$basic_ostream@DU?$char_traits@D@std@@@std@@QEAAAEAV01@N@Z 0000000140031370 f i main.obj
 0001:00030580       ??6?$basic_ostream@DU?$char_traits@D@std@@@std@@QEAAAEAV01@_K@Z 0000000140031580 f i main.obj
 0001:00030790       ?create_time@?$second_clock@Vptime@posix_time@boost@@@date_time@boost@@CA?AVptime@posix_time@3@PEAUtm@@@Z 0000000140031790 f i main.obj
 0001:000308d0       ?_Tidy@?$deque@V?$basic_string@DU?$char_traits@D@std@@V?$allocator@D@2@@std@@V?$allocator@V?$basic_string@DU?$char_traits@D@std@@V?$allocator@D@2@@std@@@2@@std@@AEAAXXZ 00000001400318d0 f i main.obj
 0001:000309f0       ?_Xran@?$deque@V?$basic_string@DU?$char_traits@D@std@@V?$allocator@D@2@@std@@V?$allocator@V?$basic_string@DU?$char_traits@D@std@@V?$allocator@D@2@@std@@@2@@std@@CAXXZ 00000001400319f0 f i main.obj
 0001:00030a10       ?deallocate@?$allocator@U?$pair@V?$basic_string@DU?$char_traits@D@std@@V?$allocator@D@2@@std@@UStatText@CStatsConsole@Hud@@@std@@@std@@QEAAXQEAU?$pair@V?$basic_string@DU?$char_traits@D@std@@V?$allocator@D@2@@std@@UStatText@CStatsConsole@Hud@@@2@_K@Z 0000000140031a10 f i main.obj
 0001:00030a50       ?pop_back@?$deque@V?$basic_string@DU?$char_traits@D@std@@V?$allocator@D@2@@std@@V?$allocator@V?$basic_string@DU?$char_traits@D@std@@V?$allocator@D@2@@std@@@2@@std@@QEAAXXZ 0000000140031a50 f i main.obj
 0001:00030ae0       ??$?6U?$char_traits@D@std@@@std@@YAAEAV?$basic_ostream@DU?$char_traits@D@std@@@0@AEAV10@D@Z 0000000140031ae0 f i main.obj
 0001:00030dc0       ??$throw_exception@Vlock_error@boost@@@boost@@YAXAEBVlock_error@0@@Z 0000000140031dc0 f i main.obj
 0001:00030df0       ??$?0VCImage@DisplayOutput@@$0A@@?$shared_ptr@VCImage@DisplayOutput@@@std@@QEAA@PEAVCImage@DisplayOutput@@@Z 0000000140031df0 f i main.obj
 0001:00030e60       ??$dynamic_pointer_cast@VCStatsConsole@Hud@@VCHudEntry@2@@std@@YA?AV?$shared_ptr@VCStatsConsole@Hud@@@0@$$QEAV?$shared_ptr@VCHudEntry@Hud@@@0@@Z 0000000140031e60 f i main.obj
 0001:00030ee0       ??$?HDU?$char_traits@D@std@@V?$allocator@D@1@@std@@YA?AV?$basic_string@DU?$char_traits@D@std@@V?$allocator@D@2@@0@QEBDAEBV10@@Z 0000000140031ee0 f i main.obj
 0001:00030f50       ??$_Destroy_range@V?$allocator@U?$pair@V?$basic_string@DU?$char_traits@D@std@@V?$allocator@D@2@@std@@UStatText@CStatsConsole@Hud@@@std@@@std@@@std@@YAXPEAU?$pair@V?$basic_string@DU?$char_traits@D@std@@V?$allocator@D@2@@std@@UStatText@CStatsConsole@Hud@@@0@QEAU10@AEAV?$allocator@U?$pair@V?$basic_string@DU?$char_traits@D@std@@V?$allocator@D@2@@std@@UStatText@CStatsConsole@Hud@@@std@@@0@@Z 0000000140031f50 f i main.obj
 0001:00030f90       ??0?$wrapexcept@Vlock_error@boost@@@boost@@QEAA@AEBU01@@Z 0000000140031f90 f i main.obj
 0001:00031060       ??0lock_error@boost@@QEAA@AEBV01@@Z 0000000140032060 f i main.obj
 0001:000310d0       ??1?$pair@V?$basic_string@DU?$char_traits@D@std@@V?$allocator@D@2@@std@@UStatText@CStatsConsole@Hud@@@std@@QEAA@XZ 00000001400320d0 f i main.obj
 0001:00031180       ?_Destroy@?$_Ref_count_obj2@VCDelayedDispatch@@@std@@EEAAXXZ 0000000140032180 f i main.obj
 0001:000311b0       ?_Destroy@?$_Ref_count_obj2@VCHudManager@Hud@@@std@@EEAAXXZ 00000001400321b0 f i main.obj
 0001:00031230       ?_Destroy@?$_Ref_count@VCImage@DisplayOutput@@@std@@EEAAXXZ 0000000140032230 f i main.obj
 0001:000312a0       ??1?$_Temporary_owner@VCImage@DisplayOutput@@@std@@QEAA@XZ 00000001400322a0 f i main.obj
 0001:00031310       ?rethrow@?$wrapexcept@Vlock_error@boost@@@boost@@UEBAXXZ 0000000140032310 f i main.obj
 0001:00031340       ?clone@?$wrapexcept@Vlock_error@boost@@@boost@@UEBAPEBVclone_base@exception_detail@2@XZ 0000000140032340 f i main.obj
 0001:000313a0       ??0?$wrapexcept@Vlock_error@boost@@@boost@@QEAA@AEBVlock_error@1@@Z 00000001400323a0 f i main.obj
 0001:00031440       ??1?$relocker@V?$unique_lock@Vmutex@boost@@@boost@@@basic_condition_variable@detail@boost@@QEAA@XZ 0000000140032440 f i main.obj
 0001:00031470       ?_Growmap@?$deque@V?$basic_string@DU?$char_traits@D@std@@V?$allocator@D@2@@std@@V?$allocator@V?$basic_string@DU?$char_traits@D@std@@V?$allocator@D@2@@std@@@2@@std@@AEAAX_K@Z 0000000140032470 f i main.obj
 0001:00031670       ??0?$basic_string@DU?$char_traits@D@std@@V?$allocator@D@2@@std@@QEAA@U_String_constructor_concat_tag@1@AEBV01@QEBD_K23@Z 0000000140032670 f i main.obj
 0001:000317a0       ??_E?$_Ref_count_obj2@VCServerMessage@Hud@@@std@@UEAAPEAXI@Z 00000001400327a0 f i * CIL library *:* CIL module *
 0001:000317a0       ??_G?$_Ref_count_obj2@VCServerMessage@Hud@@@std@@UEAAPEAXI@Z 00000001400327a0 f i main.obj
 0001:000317d0       ??_E?$_Ref_count_obj2@VCStartupScreen@Hud@@@std@@UEAAPEAXI@Z 00000001400327d0 f i * CIL library *:* CIL module *
 0001:000317d0       ??_G?$_Ref_count_obj2@VCStartupScreen@Hud@@@std@@UEAAPEAXI@Z 00000001400327d0 f i main.obj
 0001:00031800       ??_E?$_Ref_count_obj2@VCDelayedDispatch@@@std@@UEAAPEAXI@Z 0000000140032800 f i * CIL library *:* CIL module *
 0001:00031800       ??_G?$_Ref_count_obj2@VCDelayedDispatch@@@std@@UEAAPEAXI@Z 0000000140032800 f i main.obj
 0001:00031830       ??_E?$_Ref_count_obj2@VCCrossFade@Hud@@@std@@UEAAPEAXI@Z 0000000140032830 f i * CIL library *:* CIL module *
 0001:00031830       ??_G?$_Ref_count_obj2@VCCrossFade@Hud@@@std@@UEAAPEAXI@Z 0000000140032830 f i main.obj
 0001:00031860       ??_E?$_Ref_count_obj2@VCSplashImage@Hud@@@std@@UEAAPEAXI@Z 0000000140032860 f i * CIL library *:* CIL module *
 0001:00031860       ??_G?$_Ref_count_obj2@VCSplashImage@Hud@@@std@@UEAAPEAXI@Z 0000000140032860 f i main.obj
 0001:00031890       ??_E?$_Ref_count_obj2@VCSplash@Hud@@@std@@UEAAPEAXI@Z 0000000140032890 f i * CIL library *:* CIL module *
 0001:00031890       ??_G?$_Ref_count_obj2@VCSplash@Hud@@@std@@UEAAPEAXI@Z 0000000140032890 f i main.obj
 0001:000318c0       ??_E?$_Ref_count_obj2@VCOSD@Hud@@@std@@UEAAPEAXI@Z 00000001400328c0 f i * CIL library *:* CIL module *
 0001:000318c0       ??_G?$_Ref_count_obj2@VCOSD@Hud@@@std@@UEAAPEAXI@Z 00000001400328c0 f i main.obj
 0001:000318f0       ??_E?$_Ref_count_obj2@VCStatsConsole@Hud@@@std@@UEAAPEAXI@Z 00000001400328f0 f i * CIL library *:* CIL module *
 0001:000318f0       ??_G?$_Ref_count_obj2@VCStatsConsole@Hud@@@std@@UEAAPEAXI@Z 00000001400328f0 f i main.obj
 0001:00031920       ??_E?$_Ref_count_obj2@VCHudManager@Hud@@@std@@UEAAPEAXI@Z 0000000140032920 f i * CIL library *:* CIL module *
 0001:00031920       ??_G?$_Ref_count_obj2@VCHudManager@Hud@@@std@@UEAAPEAXI@Z 0000000140032920 f i main.obj
 0001:00031950       ??$_Emplace_reallocate@AEAV?$basic_string@DU?$char_traits@D@std@@V?$allocator@D@2@@std@@UStatText@CStatsConsole@Hud@@@?$vector@U?$pair@V?$basic_string@DU?$char_traits@D@std@@V?$allocator@D@2@@std@@UStatText@CStatsConsole@Hud@@@std@@V?$allocator@U?$pair@V?$basic_string@DU?$char_traits@D@std@@V?$allocator@D@2@@std@@UStatText@CStatsConsole@Hud@@@std@@@2@@std@@AEAAPEAU?$pair@V?$basic_string@DU?$char_traits@D@std@@V?$allocator@D@2@@std@@UStatText@CStatsConsole@Hud@@@1@QEAU21@AEAV?$basic_string@DU?$char_traits@D@std@@V?$allocator@D@2@@1@$$QEAUStatText@CStatsConsole@Hud@@@Z 0000000140032950 f i main.obj
 0001:00031bc0       ??$getline@DU?$char_traits@D@std@@V?$allocator@D@2@@std@@YAAEAV?$basic_istream@DU?$char_traits@D@std@@@0@$$QEAV10@AEAV?$basic_string@DU?$char_traits@D@std@@V?$allocator@D@2@@0@D@Z 0000000140032bc0 f i main.obj
 0001:00031e30       ?_Delete_this@?$_Func_impl_no_alloc@V<lambda_2>@?1??Startup@CElectricSheep@@UEAA_NXZ@XHH@std@@EEAAX_N@Z 0000000140032e30 f i main.obj
 0001:00031eb0       ?_Get@?$_Func_impl_no_alloc@P6AXPEAVobject@json@boost@@V?$basic_string_view@DU?$char_traits@D@std@@@std@@V?$vector@V?$basic_string@DU?$char_traits@D@std@@V?$allocator@D@2@@std@@V?$allocator@V?$basic_string@DU?$char_traits@D@std@@V?$allocator@D@2@@std@@@2@@5@@ZXPEAV123@V45@V65@@std@@EEBAPEBXXZ 0000000140032eb0 f i JSONStorage.obj
 0001:00031eb0       ?_Get@?$_Func_impl_no_alloc@V<lambda_1>@?1??Render@CStatsConsole@Hud@@UEAA_NNV?$shared_ptr@VCRenderer@DisplayOutput@@@std@@@Z@X$$V@std@@EEBAPEBXXZ 0000000140032eb0 f i main.obj
 0001:00031eb0       ?_Get@?$_Func_impl_no_alloc@V<lambda_1>@?1??Startup@CElectricSheep@@UEAA_NXZ@X$$V@std@@EEBAPEBXXZ 0000000140032eb0 f i main.obj
 0001:00031eb0       ?_Get@?$_Func_impl_no_alloc@V<lambda_2>@?1??Startup@CElectricSheep@@UEAA_NXZ@XHH@std@@EEBAPEBXXZ 0000000140032eb0 f i main.obj
 0001:00031ec0       ?_Target_type@?$_Func_impl_no_alloc@V<lambda_2>@?1??Startup@CElectricSheep@@UEAA_NXZ@XHH@std@@EEBAAEBVtype_info@@XZ 0000000140032ec0 f i main.obj
 0001:00031ed0       ?_Do_call@?$_Func_impl_no_alloc@V<lambda_2>@?1??Startup@CElectricSheep@@UEAA_NXZ@XHH@std@@EEAAX$$QEAH0@Z 0000000140032ed0 f i main.obj
 0001:00031f10       ?_Move@?$_Func_impl_no_alloc@V<lambda_2>@?1??Startup@CElectricSheep@@UEAA_NXZ@XHH@std@@EEAAPEAV?$_Func_base@XHH@2@PEAX@Z 0000000140032f10 f i main.obj
 0001:00031f50       ?_Copy@?$_Func_impl_no_alloc@V<lambda_2>@?1??Startup@CElectricSheep@@UEAA_NXZ@XHH@std@@EEBAPEAV?$_Func_base@XHH@2@PEAX@Z 0000000140032f50 f i main.obj
 0001:00031f90       ?_Delete_this@?$_Func_impl_no_alloc@V<lambda_1>@?1??Render@CStatsConsole@Hud@@UEAA_NNV?$shared_ptr@VCRenderer@DisplayOutput@@@std@@@Z@X$$V@std@@EEAAX_N@Z 0000000140032f90 f i main.obj
 0001:00032010       ?_Target_type@?$_Func_impl_no_alloc@V<lambda_1>@?1??Render@CStatsConsole@Hud@@UEAA_NNV?$shared_ptr@VCRenderer@DisplayOutput@@@std@@@Z@X$$V@std@@EEBAAEBVtype_info@@XZ 0000000140033010 f i main.obj
 0001:00032020       ?_Do_call@?$_Func_impl_no_alloc@V<lambda_1>@?1??Render@CStatsConsole@Hud@@UEAA_NNV?$shared_ptr@VCRenderer@DisplayOutput@@@std@@@Z@X$$V@std@@EEAAXXZ 0000000140033020 f i main.obj
 0001:00032030       ?_Move@?$_Func_impl_no_alloc@V<lambda_1>@?1??Render@CStatsConsole@Hud@@UEAA_NNV?$shared_ptr@VCRenderer@DisplayOutput@@@std@@@Z@X$$V@std@@EEAAPEAV?$_Func_base@X$$V@2@PEAX@Z 0000000140033030 f i main.obj
 0001:00032080       ?_Copy@?$_Func_impl_no_alloc@V<lambda_1>@?1??Render@CStatsConsole@Hud@@UEAA_NNV?$shared_ptr@VCRenderer@DisplayOutput@@@std@@@Z@X$$V@std@@EEBAPEAV?$_Func_base@X$$V@2@PEAX@Z 0000000140033080 f i main.obj
 0001:000320d0       ??$_Uninitialized_move@PEAU?$pair@V?$basic_string@DU?$char_traits@D@std@@V?$allocator@D@2@@std@@UStatText@CStatsConsole@Hud@@@std@@V?$allocator@U?$pair@V?$basic_string@DU?$char_traits@D@std@@V?$allocator@D@2@@std@@UStatText@CStatsConsole@Hud@@@std@@@2@@std@@YAPEAU?$pair@V?$basic_string@DU?$char_traits@D@std@@V?$allocator@D@2@@std@@UStatText@CStatsConsole@Hud@@@0@QEAU10@0PEAU10@AEAV?$allocator@U?$pair@V?$basic_string@DU?$char_traits@D@std@@V?$allocator@D@2@@std@@UStatText@CStatsConsole@Hud@@@std@@@0@@Z 00000001400330d0 f i main.obj
 0001:00032170       ?_Delete_this@?$_Func_impl_no_alloc@P6AXPEAVobject@json@boost@@V?$basic_string_view@DU?$char_traits@D@std@@@std@@V?$vector@V?$basic_string@DU?$char_traits@D@std@@V?$allocator@D@2@@std@@V?$allocator@V?$basic_string@DU?$char_traits@D@std@@V?$allocator@D@2@@std@@@2@@5@@ZXPEAV123@V45@V65@@std@@EEAAX_N@Z 0000000140033170 f i JSONStorage.obj
 0001:00032170       ?_Delete_this@?$_Func_impl_no_alloc@V<lambda_1>@?1??Startup@CElectricSheep@@UEAA_NXZ@X$$V@std@@EEAAX_N@Z 0000000140033170 f i main.obj
 0001:00032180       ?_Target_type@?$_Func_impl_no_alloc@V<lambda_1>@?1??Startup@CElectricSheep@@UEAA_NXZ@X$$V@std@@EEBAAEBVtype_info@@XZ 0000000140033180 f i main.obj
 0001:00032190       ?_Do_call@?$_Func_impl_no_alloc@V<lambda_1>@?1??Startup@CElectricSheep@@UEAA_NXZ@X$$V@std@@EEAAXXZ 0000000140033190 f i main.obj
 0001:000321b0       ?_Copy@?$_Func_impl_no_alloc@V<lambda_1>@?1??Startup@CElectricSheep@@UEAA_NXZ@X$$V@std@@EEBAPEAV?$_Func_base@X$$V@2@PEAX@Z 00000001400331b0 f i main.obj
 0001:000321b0       ?_Move@?$_Func_impl_no_alloc@V<lambda_1>@?1??Startup@CElectricSheep@@UEAA_NXZ@X$$V@std@@EEAAPEAV?$_Func_base@X$$V@2@PEAX@Z 00000001400331b0 f i main.obj
 0001:000321d0       ??_ECEvent@DisplayOutput@@UEAAPEAXI@Z 00000001400331d0 f i * CIL library *:* CIL module *
 0001:000321d0       ??_ECPowerEvent@DisplayOutput@@UEAAPEAXI@Z 00000001400331d0 f i * CIL library *:* CIL module *
 0001:000321d0       ??_GCEvent@DisplayOutput@@UEAAPEAXI@Z 00000001400331d0 f i DisplayDX.obj
 0001:000321d0       ??_GCPowerEvent@DisplayOutput@@UEAAPEAXI@Z 00000001400331d0 f i DisplayDX.obj
 0001:00032220       ??_ECKeyEvent@DisplayOutput@@UEAAPEAXI@Z 0000000140033220 f i * CIL library *:* CIL module *
 0001:00032220       ??_GCKeyEvent@DisplayOutput@@UEAAPEAXI@Z 0000000140033220 f i DisplayDX.obj
 0001:00032270       ??2CMouseEvent@DisplayOutput@@SAPEAX_K@Z 0000000140033270 f i DisplayDX.obj
 0001:00032370       ??_ECMouseEvent@DisplayOutput@@UEAAPEAXI@Z 0000000140033370 f i * CIL library *:* CIL module *
 0001:00032370       ??_GCMouseEvent@DisplayOutput@@UEAAPEAXI@Z 0000000140033370 f i DisplayDX.obj
 0001:000323c0       ?Type@CPowerEvent@DisplayOutput@@UEAA?AW4eEventType@CEvent@2@XZ 00000001400333c0 f i DisplayDX.obj
 0001:000323d0       ?GetNumMonitors@CDisplayDX@DisplayOutput@@UEAAKXZ 00000001400333d0 f i DisplayDX.obj
 0001:000323e0       ?WindowHandle@CDisplayDX@DisplayOutput@@UEAAPEAUHWND__@@XZ 00000001400333e0 f i DisplayDX.obj
 0001:000323f0       ?HasShaders@CDisplayDX@DisplayOutput@@UEAA_NXZ 00000001400333f0 f i DisplayDX.obj
 0001:00032400       ??_ECDisplayDX@DisplayOutput@@UEAAPEAXI@Z 0000000140033400 f i * CIL library *:* CIL module *
 0001:00032400       ??_GCDisplayDX@DisplayOutput@@UEAAPEAXI@Z 0000000140033400 f i DisplayDX.obj
 0001:00032480       ?Instance@?$CLinkPool@$0BI@$03@Memory@@SAAEAV12@XZ 0000000140033480 f i DisplayDX.obj
 0001:00032540       ?Purge@?$CLinkPool@$0BI@$03@Memory@@UEAAXXZ 0000000140033540 f i DisplayDX.obj
 0001:00032580       ?Instance@?$CLinkPool@$0BA@$03@Memory@@SAAEAV12@XZ 0000000140033580 f i DisplayDX.obj
 0001:00032640       ?Purge@?$CLinkPool@$0BA@$03@Memory@@UEAAXXZ 0000000140033640 f i DisplayDX.obj
 0001:00032680       ?Instance@?$CLinkPool@$07$03@Memory@@SAAEAV12@XZ 0000000140033680 f i DisplayDX.obj
 0001:00032740       ?Purge@?$CLinkPool@$07$03@Memory@@UEAAXXZ 0000000140033740 f i DisplayDX.obj
 0001:00032780       ??_E?$CLinkPool@$0BI@$03@Memory@@EEAAPEAXI@Z 0000000140033780 f i * CIL library *:* CIL module *
 0001:00032780       ??_G?$CLinkPool@$0BI@$03@Memory@@EEAAPEAXI@Z 0000000140033780 f i DisplayDX.obj
 0001:000327f0       ??_E?$CLinkPool@$0BA@$03@Memory@@EEAAPEAXI@Z 00000001400337f0 f i * CIL library *:* CIL module *
 0001:000327f0       ??_G?$CLinkPool@$0BA@$03@Memory@@EEAAPEAXI@Z 00000001400337f0 f i DisplayDX.obj
 0001:00032860       ??_E?$CLinkPool@$07$03@Memory@@EEAAPEAXI@Z 0000000140033860 f i * CIL library *:* CIL module *
 0001:00032860       ??_G?$CLinkPool@$07$03@Memory@@EEAAPEAXI@Z 0000000140033860 f i DisplayDX.obj
 0001:000328d0       ??0CException@Base@@AEAA@PEBD0I@Z 00000001400338d0 f i FontDX.obj
 0001:00032980       ?Throw@CException@Base@@SAXPEBD0I@Z 0000000140033980 f i FontDX.obj
 0001:000329c0       ??0CException@Base@@QEAA@AEBV01@@Z 00000001400339c0 f i FontDX.obj
 0001:00032a00       ?Description@DXDLLFun@Base@@UEAAPEBDXZ 0000000140033a00 f i FontDX.obj
 0001:00032a10       ?Shutdown@DXDLLFun@Base@@UEAA_NXZ 0000000140033a10 f i FontDX.obj
 0001:00032a30       ?Instance@DXDLLFun@Base@@SAPEAV12@XZ 0000000140033a30 f i FontDX.obj
 0001:00032b00       ??_EDXDLLFun@Base@@EEAAPEAXI@Z 0000000140033b00 f i * CIL library *:* CIL module *
 0001:00032b00       ??_GDXDLLFun@Base@@EEAAPEAXI@Z 0000000140033b00 f i FontDX.obj
 0001:00032b30       ??_ECFontDX@DisplayOutput@@UEAAPEAXI@Z 0000000140033b30 f i * CIL library *:* CIL module *
 0001:00032b30       ??_GCFontDX@DisplayOutput@@UEAAPEAXI@Z 0000000140033b30 f i FontDX.obj
 0001:00032b90       ??_E?$CSingleton@VDXDLLFun@Base@@@Base@@UEAAPEAXI@Z 0000000140033b90 f i * CIL library *:* CIL module *
 0001:00032b90       ??_G?$CSingleton@VDXDLLFun@Base@@@Base@@UEAAPEAXI@Z 0000000140033b90 f i FontDX.obj
 0001:00032bc0       ?Init@DXDLLFun@Base@@QEAA_NXZ 0000000140033bc0 f i RendererDX.obj
 0001:00033180       ?Dirty@CTexture@DisplayOutput@@UEAA_NXZ 0000000140034180 f i Texture.obj
 0001:00033180       ?GetDreamMetadata@CPlaylist@ContentDecoder@@UEAA_NV?$basic_string_view@DU?$char_traits@D@std@@@std@@PEAUsDreamMetadata@ContentDownloader@@@Z 0000000140034180 f i Player.obj
 0001:00033180       ?HasFreshlyDownloadedSheep@CPlaylist@ContentDecoder@@UEAA_NXZ 0000000140034180 f i Player.obj
 0001:00033180       ?HasShaders@CDisplayOutput@DisplayOutput@@UEAA_NXZ 0000000140034180 f i DisplayOutput.obj
 0001:00033180       ?HasShaders@CRenderer@DisplayOutput@@UEAA_NXZ 0000000140034180 f i RendererDX.obj
 0001:00033180       ?PopFreshlyDownloadedSheep@CPlaylist@ContentDecoder@@UEAA_NAEAV?$basic_string@DU?$char_traits@D@std@@V?$allocator@D@2@@std@@@Z 0000000140034180 f i Player.obj
 0001:00033180       ?do_always_noconv@?$codecvt@GDU_Mbstatet@@@std@@MEBA_NXZ 0000000140034180 f i libcpmt:wlocale.obj
 0001:00033180       ?do_always_noconv@?$codecvt@_WDU_Mbstatet@@@std@@MEBA_NXZ 0000000140034180 f i libcpmt:wlocale.obj
 0001:00033190       ?GetBrightness@CRenderer@DisplayOutput@@UEBAMXZ 0000000140034190 f i RendererDX.obj
 0001:000331a0       ?SetBrightness@CRenderer@DisplayOutput@@UEAAXM@Z 00000001400341a0 f i RendererDX.obj
 0001:000331b0       ?Description@CRendererDX@DisplayOutput@@UEBA?BV?$basic_string@DU?$char_traits@D@std@@V?$allocator@D@2@@std@@XZ 00000001400341b0 f i RendererDX.obj
 0001:000331f0       ??_ECRendererDX@DisplayOutput@@UEAAPEAXI@Z 00000001400341f0 f i * CIL library *:* CIL module *
 0001:000331f0       ??_GCRendererDX@DisplayOutput@@UEAAPEAXI@Z 00000001400341f0 f i RendererDX.obj
 0001:00033230       ??1CShaderUniform@DisplayOutput@@UEAA@XZ 0000000140034230 f i ShaderDX.obj
 0001:000332a0       ??_ECShaderUniform@DisplayOutput@@UEAAPEAXI@Z 00000001400342a0 f i * CIL library *:* CIL module *
 0001:000332a0       ??_GCShaderUniform@DisplayOutput@@UEAAPEAXI@Z 00000001400342a0 f i ShaderDX.obj
 0001:000332e0       ?Uniform@CShader@DisplayOutput@@MEBA?AV?$shared_ptr@VCShaderUniform@DisplayOutput@@@std@@V?$basic_string@DU?$char_traits@D@std@@V?$allocator@D@2@@4@@Z 00000001400342e0 f i ShaderDX.obj
 0001:000333d0       ??0CShaderUniformDX@DisplayOutput@@QEAA@PEAUIDirect3DDevice9@@V?$basic_string@DU?$char_traits@D@std@@V?$allocator@D@2@@std@@W4eUniformType@1@II@Z 00000001400343d0 f i ShaderDX.obj
 0001:00033b30       ??_ECShaderUniformDX@DisplayOutput@@UEAAPEAXI@Z 0000000140034b30 f i * CIL library *:* CIL module *
 0001:00033b30       ??_GCShaderUniformDX@DisplayOutput@@UEAAPEAXI@Z 0000000140034b30 f i ShaderDX.obj
 0001:00033b90       ??_ECShaderDX@DisplayOutput@@UEAAPEAXI@Z 0000000140034b90 f i * CIL library *:* CIL module *
 0001:00033b90       ??_GCShaderDX@DisplayOutput@@UEAAPEAXI@Z 0000000140034b90 f i ShaderDX.obj
 0001:00033c10       ??A?$map@V?$basic_string@DU?$char_traits@D@std@@V?$allocator@D@2@@std@@V?$shared_ptr@VCShaderUniform@DisplayOutput@@@2@U?$less@V?$basic_string@DU?$char_traits@D@std@@V?$allocator@D@2@@std@@@2@V?$allocator@U?$pair@$$CBV?$basic_string@DU?$char_traits@D@std@@V?$allocator@D@2@@std@@V?$shared_ptr@VCShaderUniform@DisplayOutput@@@2@@std@@@2@@std@@QEAAAEAV?$shared_ptr@VCShaderUniform@DisplayOutput@@@1@$$QEAV?$basic_string@DU?$char_traits@D@std@@V?$allocator@D@2@@1@@Z 0000000140034c10 f i ShaderDX.obj
 0001:00033d10       ??_E?$_Ref_count_obj2@VCShaderUniformDX@DisplayOutput@@@std@@UEAAPEAXI@Z 0000000140034d10 f i * CIL library *:* CIL module *
 0001:00033d10       ??_G?$_Ref_count_obj2@VCShaderUniformDX@DisplayOutput@@@std@@UEAAPEAXI@Z 0000000140034d10 f i ShaderDX.obj
 0001:00033d40       ??$_Find_lower_bound@V?$basic_string@DU?$char_traits@D@std@@V?$allocator@D@2@@std@@@?$_Tree@V?$_Tmap_traits@V?$basic_string@DU?$char_traits@D@std@@V?$allocator@D@2@@std@@V?$shared_ptr@VCBlend@DisplayOutput@@@2@U?$less@V?$basic_string@DU?$char_traits@D@std@@V?$allocator@D@2@@std@@@2@V?$allocator@U?$pair@$$CBV?$basic_string@DU?$char_traits@D@std@@V?$allocator@D@2@@std@@V?$shared_ptr@VCBlend@DisplayOutput@@@2@@std@@@2@$0A@@std@@@std@@IEBA?AU?$_Tree_find_result@PEAU?$_Tree_node@U?$pair@$$CBV?$basic_string@DU?$char_traits@D@std@@V?$allocator@D@2@@std@@V?$shared_ptr@VCBlend@DisplayOutput@@@2@@std@@PEAX@std@@@1@AEBV?$basic_string@DU?$char_traits@D@std@@V?$allocator@D@2@@1@@Z 0000000140034d40 f i Renderer.obj
 0001:00033d40       ??$_Find_lower_bound@V?$basic_string@DU?$char_traits@D@std@@V?$allocator@D@2@@std@@@?$_Tree@V?$_Tmap_traits@V?$basic_string@DU?$char_traits@D@std@@V?$allocator@D@2@@std@@V?$shared_ptr@VCShaderUniform@DisplayOutput@@@2@U?$less@V?$basic_string@DU?$char_traits@D@std@@V?$allocator@D@2@@std@@@2@V?$allocator@U?$pair@$$CBV?$basic_string@DU?$char_traits@D@std@@V?$allocator@D@2@@std@@V?$shared_ptr@VCShaderUniform@DisplayOutput@@@2@@std@@@2@$0A@@std@@@std@@IEBA?AU?$_Tree_find_result@PEAU?$_Tree_node@U?$pair@$$CBV?$basic_string@DU?$char_traits@D@std@@V?$allocator@D@2@@std@@V?$shared_ptr@VCShaderUniform@DisplayOutput@@@2@@std@@PEAX@std@@@1@AEBV?$basic_string@DU?$char_traits@D@std@@V?$allocator@D@2@@1@@Z 0000000140034d40 f i ShaderDX.obj
 0001:00033e20       ?GetDescription@CImageFormat@DisplayOutput@@QEBA?AV?$basic_string@DU?$char_traits@D@std@@V?$allocator@D@2@@std@@XZ 0000000140034e20 f i TextureFlatDX.obj
 0001:000341b0       ?IsYUVTexture@CTexture@DisplayOutput@@UEBA_NXZ 00000001400351b0 f i TextureFlatDX.obj
 0001:000341c0       ?Reupload@CTextureFlat@DisplayOutput@@UEAA_NXZ 00000001400351c0 f i TextureFlatDX.obj
 0001:00034200       ?Dirty@CTextureFlat@DisplayOutput@@UEAA_NXZ 0000000140035200 f i TextureFlatDX.obj
 0001:00034210       ?GetRect@CTextureFlat@DisplayOutput@@UEAAAEAVCRect@Math@Base@@XZ 0000000140035210 f i TextureFlatDX.obj
 0001:00034220       ?SetRect@CTextureFlat@DisplayOutput@@UEAAXAEBVCRect@Math@Base@@@Z 0000000140035220 f i TextureFlatDX.obj
 0001:00034230       ??_ECTextureFlatDX@DisplayOutput@@UEAAPEAXI@Z 0000000140035230 f i * CIL library *:* CIL module *
 0001:00034230       ??_GCTextureFlatDX@DisplayOutput@@UEAAPEAXI@Z 0000000140035230 f i TextureFlatDX.obj
 0001:00034290       ??1_System_error_message@std@@QEAA@XZ 0000000140035290 f i EDreamClient.obj
 0001:000342a0       ?name@_System_error_category@std@@UEBAPEBDXZ 00000001400352a0 f i EDreamClient.obj
 0001:000342b0       ?message@_System_error_category@std@@UEBA?AV?$basic_string@DU?$char_traits@D@std@@V?$allocator@D@2@@2@H@Z 00000001400352b0 f i EDreamClient.obj
 0001:00034350       ?default_error_condition@_System_error_category@std@@UEBA?AVerror_condition@2@H@Z 0000000140035350 f i EDreamClient.obj
 0001:000343d0       ??0source_location@boost@@QEAA@PEBDI0I@Z 00000001400353d0 f i EDreamClient.obj
 0001:000343f0       ?name@std_category@detail@system@boost@@UEBAPEBDXZ 00000001400353f0 f i EDreamClient.obj
 0001:00034400       ?message@std_category@detail@system@boost@@UEBA?AV?$basic_string@DU?$char_traits@D@std@@V?$allocator@D@2@@std@@H@Z 0000000140035400 f i EDreamClient.obj
 0001:00034420       ?default_error_condition@std_category@detail@system@boost@@UEBA?AVerror_condition@std@@H@Z 0000000140035420 f i EDreamClient.obj
 0001:00034470       ?assign@error_code@system@boost@@QEAAXAEBV123@PEBUsource_location@3@@Z 0000000140035470 f i EDreamClient.obj
 0001:000344c0       ??Berror_code@system@boost@@QEBA_NXZ 00000001400354c0 f i EDreamClient.obj
 0001:000344e0       ?equivalent@std_category@detail@system@boost@@UEBA_NHAEBVerror_condition@std@@@Z 00000001400354e0 f i EDreamClient.obj
 0001:000345f0       ?equivalent@std_category@detail@system@boost@@UEBA_NAEBVerror_code@std@@H@Z 00000001400355f0 f i EDreamClient.obj
 0001:00034760       ??Berror_category@system@boost@@QEBAAEBV0std@@XZ 0000000140035760 f i EDreamClient.obj
 0001:00034810       ??0system_error@system@boost@@QEAA@AEBVerror_code@12@@Z 0000000140035810 f i EDreamClient.obj
 0001:00034900       ??_Edefault_resource@detail@json@boost@@UEAAPEAXI@Z 0000000140035900 f i * CIL library *:* CIL module *
 0001:00034900       ??_Ememory_resource@pmr@container@boost@@UEAAPEAXI@Z 0000000140035900 f i * CIL library *:* CIL module *
 0001:00034900       ??_Gdefault_resource@detail@json@boost@@UEAAPEAXI@Z 0000000140035900 f i EDreamClient.obj
 0001:00034900       ??_Gmemory_resource@pmr@container@boost@@UEAAPEAXI@Z 0000000140035900 f i EDreamClient.obj
 0001:00034930       ??0scalar@detail@json@boost@@QEAA@Vstorage_ptr@23@@Z 0000000140035930 f i EDreamClient.obj
 0001:00034990       ??0scalar@detail@json@boost@@QEAA@_NVstorage_ptr@23@@Z 0000000140035990 f i EDreamClient.obj
 0001:000349f0       ??0scalar@detail@json@boost@@QEAA@_JVstorage_ptr@23@@Z 00000001400359f0 f i EDreamClient.obj
 0001:00034a50       ??0scalar@detail@json@boost@@QEAA@_KVstorage_ptr@23@@Z 0000000140035a50 f i EDreamClient.obj
 0001:00034ab0       ??0scalar@detail@json@boost@@QEAA@NVstorage_ptr@23@@Z 0000000140035ab0 f i EDreamClient.obj
 0001:00034b10       ?destroy@string_impl@detail@json@boost@@QEAAXAEBVstorage_ptr@34@@Z 0000000140035b10 f i EDreamClient.obj
 0001:00034ba0       ??0value@json@boost@@QEAA@AEBVarray@12@Vstorage_ptr@12@@Z 0000000140035ba0 f i EDreamClient.obj
 0001:00034c10       ??0value@json@boost@@QEAA@AEBVobject@12@Vstorage_ptr@12@@Z 0000000140035c10 f i EDreamClient.obj
 0001:00034c80       ??1key_value_pair@json@boost@@QEAA@XZ 0000000140035c80 f i EDreamClient.obj
 0001:00034ce0       ??1unchecked_array@detail@json@boost@@QEAA@XZ 0000000140035ce0 f i EDreamClient.obj
 0001:00034d40       ??1revert_construct@array@json@boost@@QEAA@XZ 0000000140035d40 f i EDreamClient.obj
 0001:00034d50       ??1revert_construct@object@json@boost@@QEAA@XZ 0000000140035d50 f i EDreamClient.obj
 0001:00034d60       ?reserve@object@json@boost@@QEAAX_K@Z 0000000140035d60 f i EDreamClient.obj
 0001:00034de0       ??1unchecked_object@detail@json@boost@@QEAA@XZ 0000000140035de0 f i EDreamClient.obj
 0001:00034e50       ??1local_const_stream@detail@json@boost@@QEAA@XZ 0000000140035e50 f i EDreamClient.obj
 0001:00034e50       ??1local_stream@detail@json@boost@@QEAA@XZ 0000000140035e50 f i EDreamClient.obj
 0001:00034e60       ?is_valid_utf8@detail@json@boost@@YA_NPEBDG@Z 0000000140035e60 f i EDreamClient.obj
 0001:00034f80       ??1parser@json@boost@@QEAA@XZ 0000000140035f80 f i EDreamClient.obj
 0001:00034f80       ??1stream_parser@json@boost@@QEAA@XZ 0000000140035f80 f i EDreamClient.obj
 0001:00034ff0       ??_Garray@json@boost@@QEAAPEAXI@Z 0000000140035ff0 f i EDreamClient.obj
 0001:00035040       ??_Emonotonic_resource@json@boost@@UEAAPEAXI@Z 0000000140036040 f i * CIL library *:* CIL module *
 0001:00035040       ??_Gmonotonic_resource@json@boost@@UEAAPEAXI@Z 0000000140036040 f i EDreamClient.obj
 0001:00035130       ?allocate@table@object@json@boost@@SAPEAU1234@_K0AEBVstorage_ptr@34@@Z 0000000140036130 f i EDreamClient.obj
 0001:000351e0       ??_Gobject@json@boost@@QEAAPEAXI@Z 00000001400361e0 f i EDreamClient.obj
 0001:00035240       ?destroy@object@json@boost@@AEAAXXZ 0000000140036240 f i EDreamClient.obj
 0001:000352d0       ?destroy@object@json@boost@@AEAAXPEAVkey_value_pair@23@0@Z 00000001400362d0 f i EDreamClient.obj
 0001:00035370       ??$count_valid@$0A@@detail@json@boost@@YAPEBDPEBD0@Z 0000000140036370 f i EDreamClient.obj
 0001:00035560       ?parse_unsigned@detail@json@boost@@YA_K_KPEBD0@Z 0000000140036560 f i EDreamClient.obj
 0001:00035670       ?count_whitespace@detail@json@boost@@YAPEBDPEBD0@Z 0000000140036670 f i EDreamClient.obj
 0001:00035750       ?dec_to_float@detail@json@boost@@YAN_KH_N@Z 0000000140036750 f i EDreamClient.obj
 0001:00035820       ?suspend@serializer@json@boost@@AEAA_NW4state@123@@Z 0000000140036820 f i EDreamClient.obj
 0001:00035860       ?suspend@serializer@json@boost@@AEAA_NW4state@123@PEBVkey_value_pair@23@PEBVobject@23@@Z 0000000140036860 f i EDreamClient.obj
 0001:00035860       ?suspend@serializer@json@boost@@AEAA_NW4state@123@PEBVvalue@23@PEBVarray@23@@Z 0000000140036860 f i EDreamClient.obj
 0001:00035900       ??_Gstring@json@boost@@QEAAPEAXI@Z 0000000140036900 f i EDreamClient.obj
 0001:00035950       ??1stack@value_stack@json@boost@@QEAA@XZ 0000000140036950 f i EDreamClient.obj
 0001:00035a20       ?grow_one@stack@value_stack@json@boost@@QEAAXXZ 0000000140036a20 f i EDreamClient.obj
 0001:00035b50       ?grow@stack@value_stack@json@boost@@QEAAX_K@Z 0000000140036b50 f i EDreamClient.obj
 0001:00035cb0       ?on_object_end@handler@detail@json@boost@@QEAA_N_KAEAVerror_code@system@4@@Z 0000000140036cb0 f i EDreamClient.obj
 0001:00035d80       ?on_key@handler@detail@json@boost@@QEAA_NV?$basic_string_view@D@core@4@_KAEAVerror_code@system@4@@Z 0000000140036d80 f i EDreamClient.obj
 0001:00035e20       ?on_bool@handler@detail@json@boost@@QEAA_N_NAEAVerror_code@system@4@@Z 0000000140036e20 f i EDreamClient.obj
 0001:00035e80       ?on_null@handler@detail@json@boost@@QEAA_NAEAVerror_code@system@4@@Z 0000000140036e80 f i EDreamClient.obj
 0001:00035ed0       ?multipleOfPowerOf5@detail@ryu@1json@boost@@YA_N_KI@Z 0000000140036ed0 f i EDreamClient.obj
 0001:00035f30       ?d2d@detail@ryu@1json@boost@@YA?AUfloating_decimal_64@12134@_KI@Z 0000000140036f30 f i EDreamClient.obj
 0001:000364e0       ?to_chars@detail@ryu@1json@boost@@YAHUfloating_decimal_64@12134@_NQEAD@Z 00000001400374e0 f i EDreamClient.obj
 0001:000368d0       ?shl@bigint@fast_float@detail@charconv@3json@boost@@QEAA_N_K@Z 00000001400378d0 f i EDreamClient.obj
 0001:000369f0       ?pow5@bigint@fast_float@detail@charconv@3json@boost@@QEAA_NI@Z 00000001400379f0 f i EDreamClient.obj
 0001:00036b20       ?LogException@JSONUtil@@SAXAEBVexception@std@@V?$basic_string_view@DU?$char_traits@D@std@@@3@@Z 0000000140037b20 f i EDreamClient.obj
 0001:00036c10       ?run@?$thread_data@P6AXXZ@detail@boost@@UEAAXXZ 0000000140037c10 f i EDreamClient.obj
 0001:00036c10       ?run@?$thread_data@P6A_NXZ@detail@boost@@UEAAXXZ 0000000140037c10 f i EDreamClient.obj
 0001:00036c20       ?last_error@?$basic_parser@Uhandler@detail@json@boost@@@json@boost@@QEBA?AVerror_code@system@3@XZ 0000000140037c20 f i EDreamClient.obj
 0001:00036c40       ?read@?$basic_istream@DU?$char_traits@D@std@@@std@@QEAAAEAV12@PEAD_J@Z 0000000140037c40 f i EDreamClient.obj
 0001:00036d90       ??$throw_exception@Vsystem_error@system@boost@@@boost@@YAXAEBVsystem_error@system@0@AEBUsource_location@0@@Z 0000000140037d90 f i EDreamClient.obj
 0001:00036dc0       ??$find_in_object@V?$basic_string_view@D@core@boost@@@detail@json@boost@@YA?AU?$pair@PEAVkey_value_pair@json@boost@@_K@std@@AEBVobject@12@V?$basic_string_view@D@core@2@@Z 0000000140037dc0 f i EDreamClient.obj
 0001:00036f40       ??$?0W4error@json@boost@@@error_code@system@boost@@QEAA@W4error@json@2@PEAX@Z 0000000140037f40 f i EDreamClient.obj
 0001:00036fe0       ?fail@?$basic_parser@Uhandler@detail@json@boost@@@json@boost@@QEAAXVerror_code@system@3@@Z 0000000140037fe0 f i EDreamClient.obj
 0001:000370c0       ?write_some@?$basic_parser@Uhandler@detail@json@boost@@@json@boost@@QEAA_K_NPEBD_KAEAVerror_code@system@3@@Z 00000001400380c0 f i EDreamClient.obj
 0001:00037330       ??$write_null@$00@serializer@json@boost@@AEAA_NAEAVstream@detail@12@@Z 0000000140038330 f i EDreamClient.obj
 0001:00037440       ??$write_null@$0A@@serializer@json@boost@@AEAA_NAEAVstream@detail@12@@Z 0000000140038440 f i EDreamClient.obj
 0001:00037580       ??$emplace_back@Vvalue@json@boost@@@array@json@boost@@QEAAAEAVvalue@12@$$QEAV312@@Z 0000000140038580 f i EDreamClient.obj
 0001:00037680       ??$throw_exception@Vbad_alloc@std@@@boost@@YAXAEBVbad_alloc@std@@AEBUsource_location@0@@Z 0000000140038680 f i EDreamClient.obj
 0001:000376b0       ??$?0Vstorage_ptr@json@boost@@AEAPEAEAEA_K@?$basic_parser@Uhandler@detail@json@boost@@@json@boost@@QEAA@AEBUparse_options@12@$$QEAVstorage_ptr@12@AEAPEAEAEA_K@Z 00000001400386b0 f i EDreamClient.obj
 0001:00037770       ??$write_value@$00@serializer@json@boost@@AEAA_NAEAVstream@detail@12@@Z 0000000140038770 f i EDreamClient.obj
 0001:000378a0       ??$write_value@$0A@@serializer@json@boost@@AEAA_NAEAVstream@detail@12@@Z 00000001400388a0 f i EDreamClient.obj
 0001:00037e40       ??$write_array@$00@serializer@json@boost@@AEAA_NAEAVstream@detail@12@@Z 0000000140038e40 f i EDreamClient.obj
 0001:00037f50       ??$write_array@$0A@@serializer@json@boost@@AEAA_NAEAVstream@detail@12@@Z 0000000140038f50 f i EDreamClient.obj
 0001:000380b0       ??$write_object@$00@serializer@json@boost@@AEAA_NAEAVstream@detail@12@@Z 00000001400390b0 f i EDreamClient.obj
 0001:00038210       ??$write_object@$0A@@serializer@json@boost@@AEAA_NAEAVstream@detail@12@@Z 0000000140039210 f i EDreamClient.obj
 0001:000383d0       ??$write_string@$00@serializer@json@boost@@AEAA_NAEAVstream@detail@12@@Z 00000001400393d0 f i EDreamClient.obj
 0001:000387c0       ??$write_string@$0A@@serializer@json@boost@@AEAA_NAEAVstream@detail@12@@Z 00000001400397c0 f i EDreamClient.obj
 0001:00038c90       ??$small_mul@$0DO@@fast_float@detail@charconv@1json@boost@@YA_NAEAU?$stackvec@$0DO@@012134@_K@Z 0000000140039c90 f i EDreamClient.obj
 0001:00038d00       ??$heap_new@V?$thread_data@P6AXXZ@detail@boost@@P6AXXZ@detail@boost@@YAPEAV?$thread_data@P6AXXZ@01@$$QEAP6AXXZ@Z 0000000140039d00 f i EDreamClient.obj
 0001:00038d70       ??$make_shared@VCFileDownloader@Network@@AEAY0N@$$CBD@std@@YA?AV?$shared_ptr@VCFileDownloader@Network@@@0@AEAY0N@$$CBD@Z 0000000140039d70 f i EDreamClient.obj
 0001:00038fd0       ??$make_shared@VCFileDownloader@Network@@AEAY0O@$$CBD@std@@YA?AV?$shared_ptr@VCFileDownloader@Network@@@0@AEAY0O@$$CBD@Z 0000000140039fd0 f i EDreamClient.obj
 0001:00039230       ??$make_shared@VCFileDownloader@Network@@AEAY0BA@$$CBD@std@@YA?AV?$shared_ptr@VCFileDownloader@Network@@@0@AEAY0BA@$$CBD@Z 000000014003a230 f i EDreamClient.obj
 0001:00039490       ??$?0AEAY00$$CBDAEAY00$$CBD$0A@@?$tuple@V?$basic_string@DU?$char_traits@D@std@@V?$allocator@D@2@@std@@V12@@std@@QEAA@AEAY00$$CBD0@Z 000000014003a490 f i EDreamClient.obj
 0001:00039500       ??$make_shared@VCFileDownloader@Network@@AEAY0M@$$CBD@std@@YA?AV?$shared_ptr@VCFileDownloader@Network@@@0@AEAY0M@$$CBD@Z 000000014003a500 f i EDreamClient.obj
 0001:00039760       ??$_Reallocate_grow_by@V<lambda_1>@?1??reserve@?$basic_string@DU?$char_traits@D@std@@V?$allocator@D@2@@std@@QEAAX_K@Z@$$V@?$basic_string@DU?$char_traits@D@std@@V?$allocator@D@2@@std@@AEAAAEAV01@_KV<lambda_1>@?1??reserve@01@QEAAX0@Z@@Z 000000014003a760 f i EDreamClient.obj
 0001:000398b0       ??0?$wrapexcept@Vsystem_error@system@boost@@@boost@@QEAA@AEBU01@@Z 000000014003a8b0 f i EDreamClient.obj
 0001:00039980       ??0?$wrapexcept@Vbad_alloc@std@@@boost@@QEAA@AEBVbad_alloc@std@@AEBUsource_location@1@@Z 000000014003a980 f i EDreamClient.obj
 0001:00039a20       ?_Destroy@?$_Ref_count@Vdo_init@openssl_init_base@detail@ssl@asio@boost@@@std@@EEAAXXZ 000000014003aa20 f i EDreamClient.obj
 0001:00039a40       ??1?$_Temporary_owner@Vdo_init@openssl_init_base@detail@ssl@asio@boost@@@std@@QEAA@XZ 000000014003aa40 f i EDreamClient.obj
 0001:00039a60       ?rethrow@?$wrapexcept@Vsystem_error@system@boost@@@boost@@UEBAXXZ 000000014003aa60 f i EDreamClient.obj
 0001:00039a90       ?clone@?$wrapexcept@Vsystem_error@system@boost@@@boost@@UEBAPEBVclone_base@exception_detail@2@XZ 000000014003aa90 f i EDreamClient.obj
 0001:00039af0       ??0?$wrapexcept@Vsystem_error@system@boost@@@boost@@QEAA@AEBVsystem_error@system@1@AEBUsource_location@1@@Z 000000014003aaf0 f i EDreamClient.obj
 0001:00039bc0       ??_E?$thread_data@P6AXXZ@detail@boost@@UEAAPEAXI@Z 000000014003abc0 f i * CIL library *:* CIL module *
 0001:00039bc0       ??_E?$thread_data@P6A_NXZ@detail@boost@@UEAAPEAXI@Z 000000014003abc0 f i * CIL library *:* CIL module *
 0001:00039bc0       ??_G?$thread_data@P6AXXZ@detail@boost@@UEAAPEAXI@Z 000000014003abc0 f i EDreamClient.obj
 0001:00039bc0       ??_G?$thread_data@P6A_NXZ@detail@boost@@UEAAPEAXI@Z 000000014003abc0 f i EDreamClient.obj
 0001:00039c00       ??$parse_document@$00@?$basic_parser@Uhandler@detail@json@boost@@@json@boost@@AEAAPEBDPEBDU?$integral_constant@_N$00@std@@@Z 000000014003ac00 f i EDreamClient.obj
 0001:00039df0       ??$parse_document@$0A@@?$basic_parser@Uhandler@detail@json@boost@@@json@boost@@AEAAPEBDPEBDU?$integral_constant@_N$0A@@std@@@Z 000000014003adf0 f i EDreamClient.obj
 0001:0003a010       ??$write_number@$00@serializer@json@boost@@AEAA_NAEAVstream@detail@12@@Z 000000014003b010 f i EDreamClient.obj
 0001:0003a200       ??$write_true@$00@serializer@json@boost@@AEAA_NAEAVstream@detail@12@@Z 000000014003b200 f i EDreamClient.obj
 0001:0003a310       ??$write_false@$00@serializer@json@boost@@AEAA_NAEAVstream@detail@12@@Z 000000014003b310 f i EDreamClient.obj
 0001:0003a450       ??$write_number@$0A@@serializer@json@boost@@AEAA_NAEAVstream@detail@12@@Z 000000014003b450 f i EDreamClient.obj
 0001:0003a620       ??$construct_value@Vvalue@json@boost@@Ukey_t@detail@23@AEAV?$basic_string_view@D@core@3@AEAVstorage_ptr@23@@access@detail@json@boost@@SAAEAVvalue@23@PEAV423@$$QEAUkey_t@123@AEAV?$basic_string_view@D@core@3@AEAVstorage_ptr@23@@Z 000000014003b620 f i EDreamClient.obj
 0001:0003a740       ??$construct_value@Vvalue@json@boost@@Ukey_t@detail@23@AEAV?$basic_string_view@D@core@3@AEAV673@AEAVstorage_ptr@23@@access@detail@json@boost@@SAAEAVvalue@23@PEAV423@$$QEAUkey_t@123@AEAV?$basic_string_view@D@core@3@2AEAVstorage_ptr@23@@Z 000000014003b740 f i EDreamClient.obj
 0001:0003a8b0       ??$long_mul@$0DO@@fast_float@detail@charconv@1json@boost@@YA_NAEAU?$stackvec@$0DO@@012134@U?$span@_K@012134@@Z 000000014003b8b0 f i EDreamClient.obj
 0001:0003aab0       ??$from_chars_advanced@ND@fast_float@detail@charconv@1json@boost@@YA?AU?$from_chars_result_t@D@2134@PEBD0AEANU?$parse_options_t@D@012134@@Z 000000014003bab0 f i EDreamClient.obj
 0001:0003b5c0       ?maybe_suspend@?$basic_parser@Uhandler@detail@json@boost@@@json@boost@@AEAAPEBDPEBDW4state@123@@Z 000000014003c5c0 f i EDreamClient.obj
 0001:0003b650       ?suspend@?$basic_parser@Uhandler@detail@json@boost@@@json@boost@@AEAAPEBDPEBDW4state@123@@Z 000000014003c650 f i EDreamClient.obj
 0001:0003b6c0       ??$parse_value@$00$0A@@?$basic_parser@Uhandler@detail@json@boost@@@json@boost@@AEAAPEBDPEBDU?$integral_constant@_N$00@std@@U?$integral_constant@_N$0A@@4@_N3@Z 000000014003c6c0 f i EDreamClient.obj
 0001:0003bb10       ??$parse_value@$00$00@?$basic_parser@Uhandler@detail@json@boost@@@json@boost@@AEAAPEBDPEBDU?$integral_constant@_N$00@std@@1_N2@Z 000000014003cb10 f i EDreamClient.obj
 0001:0003bf70       ??$parse_comment@$00@?$basic_parser@Uhandler@detail@json@boost@@@json@boost@@AEAAPEBDPEBDU?$integral_constant@_N$00@std@@_N@Z 000000014003cf70 f i EDreamClient.obj
 0001:0003c0c0       ??$parse_value@$0A@$0A@@?$basic_parser@Uhandler@detail@json@boost@@@json@boost@@AEAAPEBDPEBDU?$integral_constant@_N$0A@@std@@1_N2@Z 000000014003d0c0 f i EDreamClient.obj
 0001:0003c560       ??$parse_value@$0A@$00@?$basic_parser@Uhandler@detail@json@boost@@@json@boost@@AEAAPEBDPEBDU?$integral_constant@_N$0A@@std@@U?$integral_constant@_N$00@4@_N3@Z 000000014003d560 f i EDreamClient.obj
 0001:0003ca10       ??$parse_comment@$0A@@?$basic_parser@Uhandler@detail@json@boost@@@json@boost@@AEAAPEBDPEBDU?$integral_constant@_N$0A@@std@@_N@Z 000000014003da10 f i EDreamClient.obj
 0001:0003cbc0       ??$large_add_from@$0DO@@fast_float@detail@charconv@1json@boost@@YA_NAEAU?$stackvec@$0DO@@012134@U?$span@_K@012134@_K@Z 000000014003dbc0 f i EDreamClient.obj
 0001:0003cd30       ??$parse_infnan@ND@detail@fast_float@0charconv@0json@boost@@YA?AU?$from_chars_result_t@D@2034@PEBD0AEAN@Z 000000014003dd30 f i EDreamClient.obj
 0001:0003ceb0       ??$heap_new@V?$thread_data@P6A_NXZ@detail@boost@@P6A_NXZ@detail@boost@@YAPEAV?$thread_data@P6A_NXZ@01@$$QEAP6A_NXZ@Z 000000014003deb0 f i EDreamClient.obj
 0001:0003cf20       ?fail@?$basic_parser@Uhandler@detail@json@boost@@@json@boost@@AEAAPEBDPEBDW4error@23@PEBUsource_location@3@@Z 000000014003df20 f i EDreamClient.obj
 0001:0003cff0       ?fail@?$basic_parser@Uhandler@detail@json@boost@@@json@boost@@AEAAPEBDPEBD@Z 000000014003dff0 f i EDreamClient.obj
 0001:0003d000       ??$parse_literal@$0A@@?$basic_parser@Uhandler@detail@json@boost@@@json@boost@@AEAAPEBDPEBDU?$integral_constant@H$0A@@std@@@Z 000000014003e000 f i EDreamClient.obj
 0001:0003d0f0       ??$parse_literal@$00@?$basic_parser@Uhandler@detail@json@boost@@@json@boost@@AEAAPEBDPEBDU?$integral_constant@H$00@std@@@Z 000000014003e0f0 f i EDreamClient.obj
 0001:0003d1e0       ??$parse_literal@$01@?$basic_parser@Uhandler@detail@json@boost@@@json@boost@@AEAAPEBDPEBDU?$integral_constant@H$01@std@@@Z 000000014003e1e0 f i EDreamClient.obj
 0001:0003d2e0       ??$parse_literal@$02@?$basic_parser@Uhandler@detail@json@boost@@@json@boost@@AEAAPEBDPEBDU?$integral_constant@H$02@std@@@Z 000000014003e2e0 f i EDreamClient.obj
 0001:0003d3f0       ??$parse_literal@$04@?$basic_parser@Uhandler@detail@json@boost@@@json@boost@@AEAAPEBDPEBDU?$integral_constant@H$04@std@@@Z 000000014003e3f0 f i EDreamClient.obj
 0001:0003d4f0       ??$parse_unescaped@$00$0A@@?$basic_parser@Uhandler@detail@json@boost@@@json@boost@@AEAAPEBDPEBDU?$integral_constant@_N$00@std@@U?$integral_constant@_N$0A@@4@_N@Z 000000014003e4f0 f i EDreamClient.obj
 0001:0003d770       ??$parse_array@$00$0A@@?$basic_parser@Uhandler@detail@json@boost@@@json@boost@@AEAAPEBDPEBDU?$integral_constant@_N$00@std@@U?$integral_constant@_N$0A@@4@_N3@Z 000000014003e770 f i EDreamClient.obj
 0001:0003dae0       ??$parse_object@$00$0A@@?$basic_parser@Uhandler@detail@json@boost@@@json@boost@@AEAAPEBDPEBDU?$integral_constant@_N$00@std@@U?$integral_constant@_N$0A@@4@_N3@Z 000000014003eae0 f i EDreamClient.obj
 0001:0003df50       ??$resume_value@$0A@@?$basic_parser@Uhandler@detail@json@boost@@@json@boost@@AEAAPEBDPEBDU?$integral_constant@_N$0A@@std@@_N2@Z 000000014003ef50 f i EDreamClient.obj
 0001:0003e1d0       ??$parse_array@$00$00@?$basic_parser@Uhandler@detail@json@boost@@@json@boost@@AEAAPEBDPEBDU?$integral_constant@_N$00@std@@1_N2@Z 000000014003f1d0 f i EDreamClient.obj
 0001:0003e5b0       ??$parse_object@$00$00@?$basic_parser@Uhandler@detail@json@boost@@@json@boost@@AEAAPEBDPEBDU?$integral_constant@_N$00@std@@1_N2@Z 000000014003f5b0 f i EDreamClient.obj
 0001:0003eb20       ??$resume_value@$00@?$basic_parser@Uhandler@detail@json@boost@@@json@boost@@AEAAPEBDPEBDU?$integral_constant@_N$00@std@@_N2@Z 000000014003fb20 f i EDreamClient.obj
 0001:0003ed80       ??$parse_mantissa@D@fast_float@detail@charconv@1json@boost@@YAXAEAUbigint@012134@AEAU?$parsed_number_string_t@D@012134@_KAEA_K@Z 000000014003fd80 f i EDreamClient.obj
 0001:0003f5b0       ??$positive_digit_comp@N@fast_float@detail@charconv@1json@boost@@YA?AUadjusted_mantissa@012134@AEAUbigint@012134@H@Z 00000001400405b0 f i EDreamClient.obj
 0001:0003f7d0       ??R<lambda_1>@?1???$positive_digit_comp@N@fast_float@detail@charconv@2json@boost@@YA?AUadjusted_mantissa@123245@AEAUbigint@123245@H@Z@QEBA@AEAU6123245@H@Z 00000001400407d0 f i EDreamClient.obj
 0001:0003f890       ??$negative_digit_comp@N@fast_float@detail@charconv@1json@boost@@YA?AUadjusted_mantissa@012134@AEAUbigint@012134@U5012134@H@Z 0000000140040890 f i EDreamClient.obj
 0001:0003fb50       ?suspend_or_fail@?$basic_parser@Uhandler@detail@json@boost@@@json@boost@@AEAAPEBDW4state@123@_K@Z 0000000140040b50 f i EDreamClient.obj
 0001:0003fc10       ?maybe_suspend@?$basic_parser@Uhandler@detail@json@boost@@@json@boost@@AEAAPEBDPEBDW4state@123@_K@Z 0000000140040c10 f i EDreamClient.obj
 0001:0003fcc0       ??$count_valid@$00@detail@json@boost@@YAPEBDPEBD0@Z 0000000140040cc0 f i EDreamClient.obj
 0001:0003fd70       ??$parse_escaped@$00@?$basic_parser@Uhandler@detail@json@boost@@@json@boost@@AEAAPEBDPEBD_KU?$integral_constant@_N$00@std@@_N3@Z 0000000140040d70 f i EDreamClient.obj
 0001:00040fe0       ??$parse_literal@$0?0@?$basic_parser@Uhandler@detail@json@boost@@@json@boost@@AEAAPEBDPEBDU?$integral_constant@H$0?0@std@@@Z 0000000140041fe0 f i EDreamClient.obj
 0001:00041240       ??$parse_unescaped@$0A@$0A@@?$basic_parser@Uhandler@detail@json@boost@@@json@boost@@AEAAPEBDPEBDU?$integral_constant@_N$0A@@std@@1_N@Z 0000000140042240 f i EDreamClient.obj
 0001:000414f0       ??$parse_escaped@$0A@@?$basic_parser@Uhandler@detail@json@boost@@@json@boost@@AEAAPEBDPEBD_KU?$integral_constant@_N$0A@@std@@_N3@Z 00000001400424f0 f i EDreamClient.obj
 0001:00042910       ??$parse_array@$0A@$0A@@?$basic_parser@Uhandler@detail@json@boost@@@json@boost@@AEAAPEBDPEBDU?$integral_constant@_N$0A@@std@@1_N2@Z 0000000140043910 f i EDreamClient.obj
 0001:00042d30       ??$parse_object@$0A@$0A@@?$basic_parser@Uhandler@detail@json@boost@@@json@boost@@AEAAPEBDPEBDU?$integral_constant@_N$0A@@std@@1_N2@Z 0000000140043d30 f i EDreamClient.obj
 0001:000432b0       ??$parse_array@$0A@$00@?$basic_parser@Uhandler@detail@json@boost@@@json@boost@@AEAAPEBDPEBDU?$integral_constant@_N$0A@@std@@U?$integral_constant@_N$00@4@_N3@Z 00000001400442b0 f i EDreamClient.obj
 0001:000436d0       ??$parse_object@$0A@$00@?$basic_parser@Uhandler@detail@json@boost@@@json@boost@@AEAAPEBDPEBDU?$integral_constant@_N$0A@@std@@U?$integral_constant@_N$00@4@_N3@Z 00000001400446d0 f i EDreamClient.obj
 0001:00043c40       ??$parse_unescaped@$00$00@?$basic_parser@Uhandler@detail@json@boost@@@json@boost@@AEAAPEBDPEBDU?$integral_constant@_N$00@std@@1_N@Z 0000000140044c40 f i EDreamClient.obj
 0001:00043ed0       ??$parse_string@$0A@$00@?$basic_parser@Uhandler@detail@json@boost@@@json@boost@@AEAAPEBDPEBDU?$integral_constant@_N$0A@@std@@U?$integral_constant@_N$00@4@_N@Z 0000000140044ed0 f i EDreamClient.obj
 0001:00043f90       ??$parse_number@$00$0DA@$0A@@?$basic_parser@Uhandler@detail@json@boost@@@json@boost@@AEAAPEBDPEBDU?$integral_constant@_N$00@std@@U?$integral_constant@D$0DA@@4@U?$integral_constant@W4number_precision@json@boost@@$0A@@4@@Z 0000000140044f90 f i EDreamClient.obj
 0001:00044460       ??$parse_number@$00$0CN@$0A@@?$basic_parser@Uhandler@detail@json@boost@@@json@boost@@AEAAPEBDPEBDU?$integral_constant@_N$00@std@@U?$integral_constant@D$0CN@@4@U?$integral_constant@W4number_precision@json@boost@@$0A@@4@@Z 0000000140045460 f i EDreamClient.obj
 0001:00044c30       ??$parse_number@$00$0CL@$0A@@?$basic_parser@Uhandler@detail@json@boost@@@json@boost@@AEAAPEBDPEBDU?$integral_constant@_N$00@std@@U?$integral_constant@D$0CL@@4@U?$integral_constant@W4number_precision@json@boost@@$0A@@4@@Z 0000000140045c30 f i EDreamClient.obj
 0001:00045300       ??$parse_number@$00$0DA@$00@?$basic_parser@Uhandler@detail@json@boost@@@json@boost@@AEAAPEBDPEBDU?$integral_constant@_N$00@std@@U?$integral_constant@D$0DA@@4@U?$integral_constant@W4number_precision@json@boost@@$00@4@@Z 0000000140046300 f i EDreamClient.obj
 0001:00045900       ??$parse_number@$00$0DA@$01@?$basic_parser@Uhandler@detail@json@boost@@@json@boost@@AEAAPEBDPEBDU?$integral_constant@_N$00@std@@U?$integral_constant@D$0DA@@4@U?$integral_constant@W4number_precision@json@boost@@$01@4@@Z 0000000140046900 f i EDreamClient.obj
 0001:00045c80       ??$parse_number@$00$0CN@$00@?$basic_parser@Uhandler@detail@json@boost@@@json@boost@@AEAAPEBDPEBDU?$integral_constant@_N$00@std@@U?$integral_constant@D$0CN@@4@U?$integral_constant@W4number_precision@json@boost@@$00@4@@Z 0000000140046c80 f i EDreamClient.obj
 0001:00046540       ??$parse_number@$00$0CN@$01@?$basic_parser@Uhandler@detail@json@boost@@@json@boost@@AEAAPEBDPEBDU?$integral_constant@_N$00@std@@U?$integral_constant@D$0CN@@4@U?$integral_constant@W4number_precision@json@boost@@$01@4@@Z 0000000140047540 f i EDreamClient.obj
 0001:00046c10       ??$parse_number@$00$0CL@$00@?$basic_parser@Uhandler@detail@json@boost@@@json@boost@@AEAAPEBDPEBDU?$integral_constant@_N$00@std@@U?$integral_constant@D$0CL@@4@U?$integral_constant@W4number_precision@json@boost@@$00@4@@Z 0000000140047c10 f i EDreamClient.obj
 0001:000473c0       ??$parse_number@$00$0CL@$01@?$basic_parser@Uhandler@detail@json@boost@@@json@boost@@AEAAPEBDPEBDU?$integral_constant@_N$00@std@@U?$integral_constant@D$0CL@@4@U?$integral_constant@W4number_precision@json@boost@@$01@4@@Z 00000001400483c0 f i EDreamClient.obj
 0001:000479b0       ??$parse_unescaped@$0A@$00@?$basic_parser@Uhandler@detail@json@boost@@@json@boost@@AEAAPEBDPEBDU?$integral_constant@_N$0A@@std@@U?$integral_constant@_N$00@4@_N@Z 00000001400489b0 f i EDreamClient.obj
 0001:00047c70       ?append@?$sbo_buffer@$0CC@@detail@json@boost@@QEAAPEADPEBD_K@Z 0000000140048c70 f i EDreamClient.obj
 0001:00047d80       ?maybe_suspend@?$basic_parser@Uhandler@detail@json@boost@@@json@boost@@AEAAPEBDPEBDW4state@123@AEBUnumber@123@@Z 0000000140048d80 f i EDreamClient.obj
 0001:00047e20       ?suspend@?$basic_parser@Uhandler@detail@json@boost@@@json@boost@@AEAAPEBDPEBDW4state@123@AEBUnumber@123@@Z 0000000140048e20 f i EDreamClient.obj
 0001:00047ea0       ??$parse_number@$0A@$0A@$0A@@?$basic_parser@Uhandler@detail@json@boost@@@json@boost@@AEAAPEBDPEBDU?$integral_constant@_N$0A@@std@@U?$integral_constant@D$0A@@4@U?$integral_constant@W4number_precision@json@boost@@$0A@@4@@Z 0000000140048ea0 f i EDreamClient.obj
 0001:00048780       ??$parse_literal@$03@?$basic_parser@Uhandler@detail@json@boost@@@json@boost@@AEAAPEBDPEBDU?$integral_constant@H$03@std@@@Z 0000000140049780 f i EDreamClient.obj
 0001:00048890       ??$parse_number@$0A@$0A@$00@?$basic_parser@Uhandler@detail@json@boost@@@json@boost@@AEAAPEBDPEBDU?$integral_constant@_N$0A@@std@@U?$integral_constant@D$0A@@4@U?$integral_constant@W4number_precision@json@boost@@$00@4@@Z 0000000140049890 f i EDreamClient.obj
 0001:00049240       ??$parse_number@$0A@$0A@$01@?$basic_parser@Uhandler@detail@json@boost@@@json@boost@@AEAAPEBDPEBDU?$integral_constant@_N$0A@@std@@U?$integral_constant@D$0A@@4@U?$integral_constant@W4number_precision@json@boost@@$01@4@@Z 000000014004a240 f i EDreamClient.obj
 0001:00049a00       ?PrettyPrintJSON@JSONUtil@@SAXAEAV?$basic_ostream@DU?$char_traits@D@std@@@std@@AEBVvalue@json@boost@@PEAV?$basic_string@DU?$char_traits@D@std@@V?$allocator@D@2@@3@@Z 000000014004aa00 f i JSONStorage.obj
 0001:00049f50       ??_D?$basic_ofstream@DU?$char_traits@D@std@@@std@@QEAAXXZ 000000014004af50 f i JSONStorage.obj
 0001:00049ff0       ?close@?$basic_ofstream@DU?$char_traits@D@std@@@std@@QEAAXXZ 000000014004aff0 f i JSONStorage.obj
 0001:0004a090       ??0?$vector@V?$basic_string@DU?$char_traits@D@std@@V?$allocator@D@2@@std@@V?$allocator@V?$basic_string@DU?$char_traits@D@std@@V?$allocator@D@2@@std@@@2@@std@@QEAA@AEBV01@@Z 000000014004b090 f i JSONStorage.obj
 0001:0004a1a0       ?seekg@?$basic_istream@DU?$char_traits@D@std@@@std@@QEAAAEAV12@_JH@Z 000000014004b1a0 f i JSONStorage.obj
 0001:0004a390       ??6?$basic_ostream@DU?$char_traits@D@std@@@std@@QEAAAEAV01@PEAV?$basic_streambuf@DU?$char_traits@D@std@@@1@@Z 000000014004b390 f i JSONStorage.obj
 0001:0004a6b0       ??6?$basic_ostream@DU?$char_traits@D@std@@@std@@QEAAAEAV01@_J@Z 000000014004b6b0 f i JSONStorage.obj
 0001:0004a8c0       ??_E?$basic_ofstream@DU?$char_traits@D@std@@@std@@UEAAPEAXI@Z 000000014004b8c0 f i * CIL library *:* CIL module *
 0001:0004a8c0       ??_G?$basic_ofstream@DU?$char_traits@D@std@@@std@@UEAAPEAXI@Z 000000014004b8c0 f i JSONStorage.obj
 0001:0004a900       ??0?$basic_ofstream@DU?$char_traits@D@std@@@std@@QEAA@PEBDHH@Z 000000014004b900 f i JSONStorage.obj
 0001:0004ab10       ??$GetOrSetValue@_N@JSONStorage@TupleStorage@@AEAA_NV?$basic_string_view@DU?$char_traits@D@std@@@std@@AEA_NV?$function@$$A6A_NPEAVvalue@json@boost@@@Z@3@_NV?$function@$$A6AXPEAVobject@json@boost@@V?$basic_string_view@DU?$char_traits@D@std@@@std@@_N@Z@3@@Z 000000014004bb10 f i JSONStorage.obj
 0001:0004b1b0       ??$GetOrSetValue@H@JSONStorage@TupleStorage@@AEAA_NV?$basic_string_view@DU?$char_traits@D@std@@@std@@AEAHV?$function@$$A6AHPEAVvalue@json@boost@@@Z@3@_NV?$function@$$A6AXPEAVobject@json@boost@@V?$basic_string_view@DU?$char_traits@D@std@@@std@@H@Z@3@@Z 000000014004c1b0 f i JSONStorage.obj
 0001:0004b850       ??$GetOrSetValue@N@JSONStorage@TupleStorage@@AEAA_NV?$basic_string_view@DU?$char_traits@D@std@@@std@@AEANV?$function@$$A6ANPEAVvalue@json@boost@@@Z@3@_NV?$function@$$A6AXPEAVobject@json@boost@@V?$basic_string_view@DU?$char_traits@D@std@@@std@@N@Z@3@@Z 000000014004c850 f i JSONStorage.obj
 0001:0004c1f0       ??$GetOrSetValue@_K@JSONStorage@TupleStorage@@AEAA_NV?$basic_string_view@DU?$char_traits@D@std@@@std@@AEA_KV?$function@$$A6A_KPEAVvalue@json@boost@@@Z@3@_NV?$function@$$A6AXPEAVobject@json@boost@@V?$basic_string_view@DU?$char_traits@D@std@@@std@@_K@Z@3@@Z 000000014004d1f0 f i JSONStorage.obj
 0001:0004cb90       ??$GetOrSetValue@V?$basic_string@DU?$char_traits@D@std@@V?$allocator@D@2@@std@@@JSONStorage@TupleStorage@@AEAA_NV?$basic_string_view@DU?$char_traits@D@std@@@std@@AEAV?$basic_string@DU?$char_traits@D@std@@V?$allocator@D@2@@3@V?$function@$$A6A?AV?$basic_string@DU?$char_traits@D@std@@V?$allocator@D@2@@std@@PEAVvalue@json@boost@@@Z@3@_NV?$function@$$A6AXPEAVobject@json@boost@@V?$basic_string_view@DU?$char_traits@D@std@@@std@@V?$basic_string@DU?$char_traits@D@std@@V?$allocator@D@2@@5@@Z@3@@Z 000000014004db90 f i JSONStorage.obj
 0001:0004d310       ??$GetOrSetValue@V?$vector@V?$basic_string@DU?$char_traits@D@std@@V?$allocator@D@2@@std@@V?$allocator@V?$basic_string@DU?$char_traits@D@std@@V?$allocator@D@2@@std@@@2@@std@@@JSONStorage@TupleStorage@@AEAA_NV?$basic_string_view@DU?$char_traits@D@std@@@std@@AEAV?$vector@V?$basic_string@DU?$char_traits@D@std@@V?$allocator@D@2@@std@@V?$allocator@V?$basic_string@DU?$char_traits@D@std@@V?$allocator@D@2@@std@@@2@@3@V?$function@$$A6A?AV?$vector@V?$basic_string@DU?$char_traits@D@std@@V?$allocator@D@2@@std@@V?$allocator@V?$basic_string@DU?$char_traits@D@std@@V?$allocator@D@2@@std@@@2@@std@@PEAVvalue@json@boost@@@Z@3@_NV?$function@$$A6AXPEAVobject@json@boost@@V?$basic_string_view@DU?$char_traits@D@std@@@std@@V?$vector@V?$basic_string@DU?$char_traits@D@std@@V?$allocator@D@2@@std@@V?$allocator@V?$basic_string@DU?$char_traits@D@std@@V?$allocator@D@2@@std@@@2@@5@@Z@3@@Z 000000014004e310 f i JSONStorage.obj
 0001:0004dab0       ??1?$_Tidy_guard@V?$vector@V?$basic_string@DU?$char_traits@D@std@@V?$allocator@D@2@@std@@V?$allocator@V?$basic_string@DU?$char_traits@D@std@@V?$allocator@D@2@@std@@@2@@std@@@std@@QEAA@XZ 000000014004eab0 f i JSONStorage.obj
 0001:0004dac0       ??$emplace_impl@AEAV?$basic_string_view@D@core@boost@@AEAVarray@json@3@@object@json@boost@@AEAA?AU?$pair@PEAVkey_value_pair@json@boost@@_N@std@@V?$basic_string_view@D@core@2@AEAV562@AEAVarray@12@@Z 000000014004eac0 f i JSONStorage.obj
 0001:0004dcf0       ??$emplace_impl@AEAV?$basic_string_view@D@core@boost@@AEA_N@object@json@boost@@AEAA?AU?$pair@PEAVkey_value_pair@json@boost@@_N@std@@V?$basic_string_view@D@core@2@AEAV562@AEA_N@Z 000000014004ecf0 f i JSONStorage.obj
 0001:0004df10       ??$emplace_impl@AEAV?$basic_string_view@D@core@boost@@AEAH@object@json@boost@@AEAA?AU?$pair@PEAVkey_value_pair@json@boost@@_N@std@@V?$basic_string_view@D@core@2@AEAV562@AEAH@Z 000000014004ef10 f i JSONStorage.obj
 0001:0004e140       ??$emplace_impl@AEAV?$basic_string_view@D@core@boost@@AEAN@object@json@boost@@AEAA?AU?$pair@PEAVkey_value_pair@json@boost@@_N@std@@V?$basic_string_view@D@core@2@AEAV562@AEAN@Z 000000014004f140 f i JSONStorage.obj
 0001:0004e370       ??$emplace_impl@AEAV?$basic_string_view@D@core@boost@@AEA_K@object@json@boost@@AEAA?AU?$pair@PEAVkey_value_pair@json@boost@@_N@std@@V?$basic_string_view@D@core@2@AEAV562@AEA_K@Z 000000014004f370 f i JSONStorage.obj
 0001:0004e5a0       ??$emplace_impl@AEAV?$basic_string_view@D@core@boost@@AEAV?$basic_string@DU?$char_traits@D@std@@V?$allocator@D@2@@std@@@object@json@boost@@AEAA?AU?$pair@PEAVkey_value_pair@json@boost@@_N@std@@V?$basic_string_view@D@core@2@AEAV562@AEAV?$basic_string@DU?$char_traits@D@std@@V?$allocator@D@2@@4@@Z 000000014004f5a0 f i JSONStorage.obj
 0001:0004e840       ?_Target_type@?$_Func_impl_no_alloc@P6AXPEAVobject@json@boost@@V?$basic_string_view@DU?$char_traits@D@std@@@std@@V?$vector@V?$basic_string@DU?$char_traits@D@std@@V?$allocator@D@2@@std@@V?$allocator@V?$basic_string@DU?$char_traits@D@std@@V?$allocator@D@2@@std@@@2@@5@@ZXPEAV123@V45@V65@@std@@EEBAAEBVtype_info@@XZ 000000014004f840 f i JSONStorage.obj
 0001:0004e850       ?_Do_call@?$_Func_impl_no_alloc@P6AXPEAVobject@json@boost@@V?$basic_string_view@DU?$char_traits@D@std@@@std@@V?$vector@V?$basic_string@DU?$char_traits@D@std@@V?$allocator@D@2@@std@@V?$allocator@V?$basic_string@DU?$char_traits@D@std@@V?$allocator@D@2@@std@@@2@@5@@ZXPEAV123@V45@V65@@std@@EEAAX$$QEAPEAVobject@json@boost@@$$QEAV?$basic_string_view@DU?$char_traits@D@std@@@2@$$QEAV?$vector@V?$basic_string@DU?$char_traits@D@std@@V?$allocator@D@2@@std@@V?$allocator@V?$basic_string@DU?$char_traits@D@std@@V?$allocator@D@2@@std@@@2@@2@@Z 000000014004f850 f i JSONStorage.obj
 0001:0004e8b0       ?_Copy@?$_Func_impl_no_alloc@P6AXPEAVobject@json@boost@@V?$basic_string_view@DU?$char_traits@D@std@@@std@@V?$vector@V?$basic_string@DU?$char_traits@D@std@@V?$allocator@D@2@@std@@V?$allocator@V?$basic_string@DU?$char_traits@D@std@@V?$allocator@D@2@@std@@@2@@5@@ZXPEAV123@V45@V65@@std@@EEBAPEAV?$_Func_base@XPEAVobject@json@boost@@V?$basic_string_view@DU?$char_traits@D@std@@@std@@V?$vector@V?$basic_string@DU?$char_traits@D@std@@V?$allocator@D@2@@std@@V?$allocator@V?$basic_string@DU?$char_traits@D@std@@V?$allocator@D@2@@std@@@2@@5@@2@PEAX@Z 000000014004f8b0 f i JSONStorage.obj
 0001:0004e8b0       ?_Move@?$_Func_impl_no_alloc@P6AXPEAVobject@json@boost@@V?$basic_string_view@DU?$char_traits@D@std@@@std@@V?$vector@V?$basic_string@DU?$char_traits@D@std@@V?$allocator@D@2@@std@@V?$allocator@V?$basic_string@DU?$char_traits@D@std@@V?$allocator@D@2@@std@@@2@@5@@ZXPEAV123@V45@V65@@std@@EEAAPEAV?$_Func_base@XPEAVobject@json@boost@@V?$basic_string_view@DU?$char_traits@D@std@@@std@@V?$vector@V?$basic_string@DU?$char_traits@D@std@@V?$allocator@D@2@@std@@V?$allocator@V?$basic_string@DU?$char_traits@D@std@@V?$allocator@D@2@@std@@@2@@5@@2@PEAX@Z 000000014004f8b0 f i JSONStorage.obj
 0001:0004e8d0       ??$emplace_impl@AEAV?$basic_string_view@D@core@boost@@AEAVobject@json@3@@object@json@boost@@AEAA?AU?$pair@PEAVkey_value_pair@json@boost@@_N@std@@V?$basic_string_view@D@core@2@AEAV562@AEAV012@@Z 000000014004f8d0 f i JSONStorage.obj
 0001:0004eaf4       ??_E?$basic_ofstream@DU?$char_traits@D@std@@@std@@$4PPPPPPPM@A@EAAPEAXI@Z 000000014004faf4 f i JSONStorage.obj
 0001:0004eb00       ??1CPlaylist@ContentDecoder@@UEAA@XZ 000000014004fb00 f i Player.obj
 0001:0004eb10       ??_ECPlaylist@ContentDecoder@@UEAAPEAXI@Z 000000014004fb10 f i * CIL library *:* CIL module *
 0001:0004eb10       ??_GCPlaylist@ContentDecoder@@UEAAPEAXI@Z 000000014004fb10 f i Player.obj
 0001:0004eb40       ??0CDreamPlaylist@ContentDecoder@@QEAA@AEBV?$basic_string@DU?$char_traits@D@std@@V?$allocator@D@2@@std@@@Z 000000014004fb40 f i Player.obj
 0001:0004ee60       ??1CDreamPlaylist@ContentDecoder@@UEAA@XZ 000000014004fe60 f i Player.obj
 0001:0004f010       ?Add@CDreamPlaylist@ContentDecoder@@UEAA_NAEBV?$basic_string@DU?$char_traits@D@std@@V?$allocator@D@2@@std@@@Z 0000000140050010 f i Player.obj
 0001:0004f090       ?Size@CDreamPlaylist@ContentDecoder@@UEAAIXZ 0000000140050090 f i Player.obj
 0001:0004f0f0       ?Clear@CDreamPlaylist@ContentDecoder@@UEAAXXZ 00000001400500f0 f i Player.obj
 0001:0004f2e0       ?PopFreshlyDownloadedSheep@CDreamPlaylist@ContentDecoder@@UEAA_NAEAV?$basic_string@DU?$char_traits@D@std@@V?$allocator@D@2@@std@@@Z 00000001400502e0 f i Player.obj
 0001:0004f3b0       ?HasFreshlyDownloadedSheep@CDreamPlaylist@ContentDecoder@@UEAA_NXZ 00000001400503b0 f i Player.obj
 0001:0004f420       ?Next@CDreamPlaylist@ContentDecoder@@UEAA_NAEAV?$basic_string@DU?$char_traits@D@std@@V?$allocator@D@2@@std@@AEA_NI1_N_N@Z 0000000140050420 f i Player.obj
 0001:0004fce0       ?GetDreamMetadata@CDreamPlaylist@ContentDecoder@@UEAA_NV?$basic_string_view@DU?$char_traits@D@std@@@std@@PEAUsDreamMetadata@ContentDownloader@@@Z 0000000140050ce0 f i Player.obj
 0001:0004ff10       ?Override@CDreamPlaylist@ContentDecoder@@UEAAXI@Z 0000000140050f10 f i Player.obj
 0001:0004ff60       ?Delete@CDreamPlaylist@ContentDecoder@@UEAAXV?$basic_string_view@DU?$char_traits@D@std@@@std@@@Z 0000000140050f60 f i Player.obj
 0001:00050060       ??_ECDreamPlaylist@ContentDecoder@@UEAAPEAXI@Z 0000000140051060 f i * CIL library *:* CIL module *
 0001:00050060       ??_GCDreamPlaylist@ContentDecoder@@UEAAPEAXI@Z 0000000140051060 f i Player.obj
 0001:000500a0       ??0SheepArray@ContentDownloader@@QEAA@AEBU01@@Z 00000001400510a0 f i Player.obj
 0001:00050210       ??_ECPlayer@@UEAAPEAXI@Z   0000000140051210 f i * CIL library *:* CIL module *
 0001:00050210       ??_GCPlayer@@UEAAPEAXI@Z   0000000140051210 f i Player.obj
 0001:00050250       ??1?$CBlockingQueue@V?$basic_string@DU?$char_traits@D@std@@V?$allocator@D@2@@std@@@Base@@QEAA@XZ 0000000140051250 f i Player.obj
 0001:00050330       ?clear@?$CBlockingQueue@V?$basic_string@DU?$char_traits@D@std@@V?$allocator@D@2@@std@@@Base@@QEAAX_K@Z 0000000140051330 f i Player.obj
 0001:00050380       ?pop@?$CBlockingQueue@V?$basic_string@DU?$char_traits@D@std@@V?$allocator@D@2@@std@@@Base@@QEAA_NAEAV?$basic_string@DU?$char_traits@D@std@@V?$allocator@D@2@@std@@_N1@Z 0000000140051380 f i Player.obj
 0001:00050510       ?push@?$CBlockingQueue@V?$basic_string@DU?$char_traits@D@std@@V?$allocator@D@2@@std@@@Base@@QEAA_NAEBV?$basic_string@DU?$char_traits@D@std@@V?$allocator@D@2@@std@@_N1@Z 0000000140051510 f i Player.obj
 0001:00050660       ??0?$CBlockingQueue@V?$basic_string@DU?$char_traits@D@std@@V?$allocator@D@2@@std@@@Base@@QEAA@XZ 0000000140051660 f i Player.obj
 0001:00050730       ??1?$vector@V?$shared_ptr@UDisplayUnit@CPlayer@@@std@@V?$allocator@V?$shared_ptr@UDisplayUnit@CPlayer@@@std@@@2@@std@@QEAA@XZ 0000000140051730 f i Player.obj
 0001:00050730       ??1?$vector@V?$shared_ptr@VCClip@ContentDecoder@@@std@@V?$allocator@V?$shared_ptr@VCClip@ContentDecoder@@@std@@@2@@std@@QEAA@XZ 0000000140051730 f i Player.obj
 0001:000507a0       ?erase@?$vector@V?$shared_ptr@VCClip@ContentDecoder@@@std@@V?$allocator@V?$shared_ptr@VCClip@ContentDecoder@@@std@@@2@@std@@QEAA?AV?$_Vector_iterator@V?$_Vector_val@U?$_Simple_types@V?$shared_ptr@VCClip@ContentDecoder@@@std@@@std@@@std@@@2@V?$_Vector_const_iterator@V?$_Vector_val@U?$_Simple_types@V?$shared_ptr@VCClip@ContentDecoder@@@std@@@std@@@std@@@2@@Z 00000001400517a0 f i Player.obj
 0001:00050890       ??1?$CSingleton@VCPlayer@@@Base@@UEAA@XZ 0000000140051890 f i Player.obj
 0001:000508a0       ??4?$basic_string@_WU?$char_traits@_W@std@@V?$allocator@_W@2@@std@@QEAAAEAV01@AEBV01@@Z 00000001400518a0 f i Player.obj
 0001:00050920       ??_E?$CSingleton@VCPlayer@@@Base@@UEAAPEAXI@Z 0000000140051920 f i * CIL library *:* CIL module *
 0001:00050920       ??_G?$CSingleton@VCPlayer@@@Base@@UEAAPEAXI@Z 0000000140051920 f i Player.obj
 0001:00050950       ??$emplace@AEBV?$shared_ptr@UDisplayUnit@CPlayer@@@std@@@?$vector@V?$shared_ptr@UDisplayUnit@CPlayer@@@std@@V?$allocator@V?$shared_ptr@UDisplayUnit@CPlayer@@@std@@@2@@std@@QEAA?AV?$_Vector_iterator@V?$_Vector_val@U?$_Simple_types@V?$shared_ptr@UDisplayUnit@CPlayer@@@std@@@std@@@std@@@1@V?$_Vector_const_iterator@V?$_Vector_val@U?$_Simple_types@V?$shared_ptr@UDisplayUnit@CPlayer@@@std@@@std@@@std@@@1@AEBV?$shared_ptr@UDisplayUnit@CPlayer@@@1@@Z 0000000140051950 f i Player.obj
 0001:00050ae0       ??$_Reallocate_for@V<lambda_1>@?1??assign@?$basic_string@_WU?$char_traits@_W@std@@V?$allocator@_W@2@@std@@QEAAAEAV34@QEB_W_K@Z@PEB_W@?$basic_string@_WU?$char_traits@_W@std@@V?$allocator@_W@2@@std@@AEAAAEAV01@_KV<lambda_1>@?1??assign@01@QEAAAEAV01@QEB_W0@Z@PEB_W@Z 0000000140051ae0 f i Player.obj
 0001:00050c40       ?_Destroy@?$_Ref_count_obj2@VCClip@ContentDecoder@@@std@@EEAAXXZ 0000000140051c40 f i Player.obj
 0001:00050c50       ?_Destroy@?$_Ref_count_obj2@UDisplayUnit@CPlayer@@@std@@EEAAXXZ 0000000140051c50 f i Player.obj
 0001:00050cf0       ??_E?$_Ref_count_obj2@VCClip@ContentDecoder@@@std@@UEAAPEAXI@Z 0000000140051cf0 f i * CIL library *:* CIL module *
 0001:00050cf0       ??_G?$_Ref_count_obj2@VCClip@ContentDecoder@@@std@@UEAAPEAXI@Z 0000000140051cf0 f i Player.obj
 0001:00050d20       ??_E?$_Ref_count_obj2@VCDreamPlaylist@ContentDecoder@@@std@@UEAAPEAXI@Z 0000000140051d20 f i * CIL library *:* CIL module *
 0001:00050d20       ??_G?$_Ref_count_obj2@VCDreamPlaylist@ContentDecoder@@@std@@UEAAPEAXI@Z 0000000140051d20 f i Player.obj
 0001:00050d50       ??_E?$_Ref_count_obj2@UDisplayUnit@CPlayer@@@std@@UEAAPEAXI@Z 0000000140051d50 f i * CIL library *:* CIL module *
 0001:00050d50       ??_G?$_Ref_count_obj2@UDisplayUnit@CPlayer@@@std@@UEAAPEAXI@Z 0000000140051d50 f i Player.obj
 0001:00050d80       ??$_Sort_unchecked@PEAPEAUsDreamMetadata@ContentDownloader@@V<lambda_1>@?BF@??Next@CDreamPlaylist@ContentDecoder@@UEAA_NAEAV?$basic_string@DU?$char_traits@D@std@@V?$allocator@D@2@@std@@AEA_NI1_N_N@Z@@std@@YAXPEAPEAUsDreamMetadata@ContentDownloader@@0_JV<lambda_1>@?BF@??Next@CDreamPlaylist@ContentDecoder@@UEAA_NAEAV?$basic_string@DU?$char_traits@D@std@@V?$allocator@D@2@@0@AEA_NI3_N_N@Z@@Z 0000000140051d80 f i Player.obj
 0001:000511c0       ??$_Emplace_reallocate@AEBV?$shared_ptr@UDisplayUnit@CPlayer@@@std@@@?$vector@V?$shared_ptr@UDisplayUnit@CPlayer@@@std@@V?$allocator@V?$shared_ptr@UDisplayUnit@CPlayer@@@std@@@2@@std@@AEAAPEAV?$shared_ptr@UDisplayUnit@CPlayer@@@1@QEAV21@AEBV21@@Z 00000001400521c0 f i Player.obj
 0001:000511c0       ??$_Emplace_reallocate@AEBV?$shared_ptr@VCClip@ContentDecoder@@@std@@@?$vector@V?$shared_ptr@VCClip@ContentDecoder@@@std@@V?$allocator@V?$shared_ptr@VCClip@ContentDecoder@@@std@@@2@@std@@AEAAPEAV?$shared_ptr@VCClip@ContentDecoder@@@1@QEAV21@AEBV21@@Z 00000001400521c0 f i Player.obj
 0001:00051380       ??$_Insert_range_unchecked@V?$_List_unchecked_const_iterator@V?$_List_val@U?$_List_simple_types@U?$pair@$$CBV?$basic_string_view@DU?$char_traits@D@std@@@std@@PEAUsDreamMetadata@ContentDownloader@@@std@@@std@@@std@@U_Iterator_base0@2@@std@@V12@@?$_Hash@V?$_Umap_traits@V?$basic_string_view@DU?$char_traits@D@std@@@std@@PEAUsDreamMetadata@ContentDownloader@@V?$_Uhash_compare@V?$basic_string_view@DU?$char_traits@D@std@@@std@@U?$hash@V?$basic_string_view@DU?$char_traits@D@std@@@std@@@2@U?$equal_to@V?$basic_string_view@DU?$char_traits@D@std@@@std@@@2@@2@V?$allocator@U?$pair@$$CBV?$basic_string_view@DU?$char_traits@D@std@@@std@@PEAUsDreamMetadata@ContentDownloader@@@std@@@2@$0A@@std@@@std@@IEAAXV?$_List_unchecked_const_iterator@V?$_List_val@U?$_List_simple_types@U?$pair@$$CBV?$basic_string_view@DU?$char_traits@D@std@@@std@@PEAUsDreamMetadata@ContentDownloader@@@std@@@std@@@std@@U_Iterator_base0@2@@1@V21@@Z 0000000140052380 f i Player.obj
 0001:000515f0       ??1CClip@ContentDecoder@@QEAA@XZ 00000001400525f0 f i Player.obj
 0001:00051740       ??$heap_new@V?$thread_data@V?$bind_t@XV?$mf0@XVCPlayer@@@_mfi@boost@@V?$list1@V?$value@PEAVCPlayer@@@_bi@boost@@@_bi@3@@_bi@boost@@@detail@boost@@V?$bind_t@XV?$mf0@XVCPlayer@@@_mfi@boost@@V?$list1@V?$value@PEAVCPlayer@@@_bi@boost@@@_bi@3@@_bi@3@@detail@boost@@YAPEAV?$thread_data@V?$bind_t@XV?$mf0@XVCPlayer@@@_mfi@boost@@V?$list1@V?$value@PEAVCPlayer@@@_bi@boost@@@_bi@3@@_bi@boost@@@01@$$QEAV?$bind_t@XV?$mf0@XVCPlayer@@@_mfi@boost@@V?$list1@V?$value@PEAVCPlayer@@@_bi@boost@@@_bi@3@@_bi@1@@Z 0000000140052740 f i Player.obj
 0001:00051840       ??$_Pop_heap_hole_by_index@PEAPEAUsDreamMetadata@ContentDownloader@@PEAU12@V<lambda_1>@?BF@??Next@CDreamPlaylist@ContentDecoder@@UEAA_NAEAV?$basic_string@DU?$char_traits@D@std@@V?$allocator@D@2@@std@@AEA_NI1_N_N@Z@@std@@YAXPEAPEAUsDreamMetadata@ContentDownloader@@_J1$$QEAPEAU12@V<lambda_1>@?BF@??Next@CDreamPlaylist@ContentDecoder@@UEAA_NAEAV?$basic_string@DU?$char_traits@D@std@@V?$allocator@D@2@@0@AEA_NI4_N_N@Z@@Z 0000000140052840 f i Player.obj
 0001:00051920       ??$_Guess_median_unchecked@PEAPEAUsDreamMetadata@ContentDownloader@@V<lambda_1>@?BF@??Next@CDreamPlaylist@ContentDecoder@@UEAA_NAEAV?$basic_string@DU?$char_traits@D@std@@V?$allocator@D@2@@std@@AEA_NI1_N_N@Z@@std@@YAXPEAPEAUsDreamMetadata@ContentDownloader@@00V<lambda_1>@?BF@??Next@CDreamPlaylist@ContentDecoder@@UEAA_NAEAV?$basic_string@DU?$char_traits@D@std@@V?$allocator@D@2@@0@AEA_NI2_N_N@Z@@Z 0000000140052920 f i Player.obj
 0001:00051b20       ??_ECVote@@UEAAPEAXI@Z     0000000140052b20 f i * CIL library *:* CIL module *
 0001:00051b20       ??_GCVote@@UEAAPEAXI@Z     0000000140052b20 f i Voting.obj
 0001:00051b60       ??1?$CBlockingQueue@UVotingInfo@CVote@@@Base@@QEAA@XZ 0000000140052b60 f i Voting.obj
 0001:00051c40       ?pop@?$CBlockingQueue@UVotingInfo@CVote@@@Base@@QEAA_NAEAUVotingInfo@CVote@@_N1@Z 0000000140052c40 f i Voting.obj
 0001:00051fb0       ?_Tidy@?$deque@UVotingInfo@CVote@@V?$allocator@UVotingInfo@CVote@@@std@@@std@@AEAAXXZ 0000000140052fb0 f i Voting.obj
 0001:000520d0       ?_Growmap@?$deque@UVotingInfo@CVote@@V?$allocator@UVotingInfo@CVote@@@std@@@std@@AEAAX_K@Z 00000001400530d0 f i Voting.obj
 0001:000522d0       ??$_Emplace_reallocate@AEBI@?$vector@IV?$allocator@I@std@@@std@@AEAAPEAIQEAIAEBI@Z 00000001400532d0 f i Voting.obj
 0001:00052470       ??$heap_new@V?$thread_data@V?$bind_t@XV?$mf0@XVCVote@@@_mfi@boost@@V?$list1@V?$value@PEAVCVote@@@_bi@boost@@@_bi@3@@_bi@boost@@@detail@boost@@V?$bind_t@XV?$mf0@XVCVote@@@_mfi@boost@@V?$list1@V?$value@PEAVCVote@@@_bi@boost@@@_bi@3@@_bi@3@@detail@boost@@YAPEAV?$thread_data@V?$bind_t@XV?$mf0@XVCVote@@@_mfi@boost@@V?$list1@V?$value@PEAVCVote@@@_bi@boost@@@_bi@3@@_bi@boost@@@01@$$QEAV?$bind_t@XV?$mf0@XVCVote@@@_mfi@boost@@V?$list1@V?$value@PEAVCVote@@@_bi@boost@@@_bi@3@@_bi@1@@Z 0000000140053470 f i Voting.obj
 0001:000524e0       ??_ECDisplayOutput@DisplayOutput@@UEAAPEAXI@Z 00000001400534e0 f i * CIL library *:* CIL module *
 0001:000524e0       ??_GCDisplayOutput@DisplayOutput@@UEAAPEAXI@Z 00000001400534e0 f i DisplayOutput.obj
 0001:00052520       ?pop@?$queue@V?$shared_ptr@VCEvent@DisplayOutput@@@std@@V?$deque@V?$shared_ptr@VCEvent@DisplayOutput@@@std@@V?$allocator@V?$shared_ptr@VCEvent@DisplayOutput@@@std@@@2@@2@@std@@QEAAXXZ 0000000140053520 f i DisplayOutput.obj
 0001:000525b0       ?GetChannels@CImageFormat@DisplayOutput@@QEBAIXZ 00000001400535b0 f i Image.obj
 0001:00052670       ?getBPPixel@CImageFormat@DisplayOutput@@QEBAIXZ 0000000140053670 f i Image.obj
 0001:00052720       ??0CException@Base@@AEAA@AEBV?$basic_string@DU?$char_traits@D@std@@V?$allocator@D@2@@std@@QEBDI@Z 0000000140053720 f i LoadDDS.obj
 0001:000527b0       ?Throw@CException@Base@@SAXAEBV?$basic_string@DU?$char_traits@D@std@@V?$allocator@D@2@@std@@PEBDI@Z 00000001400537b0 f i LoadDDS.obj
 0001:000527f0       ??_ECBaseFont@DisplayOutput@@UEAAPEAXI@Z 00000001400537f0 f i * CIL library *:* CIL module *
 0001:000527f0       ??_GCBaseFont@DisplayOutput@@UEAAPEAXI@Z 00000001400537f0 f i Font.obj
 0001:00052830       ?GetTextExtent@CRenderer@DisplayOutput@@UEAA?AVCVector2_x86@Math@Base@45@V?$shared_ptr@VCBaseFont@DisplayOutput@@@std@@AEBV?$basic_string@DU?$char_traits@D@std@@V?$allocator@D@2@@7@@Z 0000000140053830 f i Renderer.obj
 0001:000528a0       ??_ECRenderer@DisplayOutput@@UEAAPEAXI@Z 00000001400538a0 f i * CIL library *:* CIL module *
 0001:000528a0       ??_GCRenderer@DisplayOutput@@UEAAPEAXI@Z 00000001400538a0 f i Renderer.obj
 0001:000528e0       ??A?$map@V?$basic_string@DU?$char_traits@D@std@@V?$allocator@D@2@@std@@V?$shared_ptr@VCBlend@DisplayOutput@@@2@U?$less@V?$basic_string@DU?$char_traits@D@std@@V?$allocator@D@2@@std@@@2@V?$allocator@U?$pair@$$CBV?$basic_string@DU?$char_traits@D@std@@V?$allocator@D@2@@std@@V?$shared_ptr@VCBlend@DisplayOutput@@@2@@std@@@2@@std@@QEAAAEAV?$shared_ptr@VCBlend@DisplayOutput@@@1@AEBV?$basic_string@DU?$char_traits@D@std@@V?$allocator@D@2@@1@@Z 00000001400538e0 f i Renderer.obj
 0001:000529d0       ?_Destroy@?$_Ref_count@VCBlend@DisplayOutput@@@std@@EEAAXXZ 00000001400539d0 f i Renderer.obj
 0001:000529f0       ??1?$_Temporary_owner@VCBlend@DisplayOutput@@@std@@QEAA@XZ 00000001400539f0 f i Renderer.obj
 0001:00052a10       ??_ECShader@DisplayOutput@@UEAAPEAXI@Z 0000000140053a10 f i * CIL library *:* CIL module *
 0001:00052a10       ??_GCShader@DisplayOutput@@UEAAPEAXI@Z 0000000140053a10 f i Shader.obj
 0001:00052a50       ??_ECTexture@DisplayOutput@@UEAAPEAXI@Z 0000000140053a50 f i * CIL library *:* CIL module *
 0001:00052a50       ??_GCTexture@DisplayOutput@@UEAAPEAXI@Z 0000000140053a50 f i Texture.obj
 0001:00052a80       ??_ECTextureFlat@DisplayOutput@@UEAAPEAXI@Z 0000000140053a80 f i * CIL library *:* CIL module *
 0001:00052a80       ??_GCTextureFlat@DisplayOutput@@UEAAPEAXI@Z 0000000140053a80 f i TextureFlat.obj
 0001:00052ac0       ??_ECFileDownloader@Network@@UEAAPEAXI@Z 0000000140053ac0 f i * CIL library *:* CIL module *
 0001:00052ac0       ??_GCFileDownloader@Network@@UEAAPEAXI@Z 0000000140053ac0 f i Download.obj
 0001:00052b00       ??_ECFileDownloader_TimeCondition@Network@@UEAAPEAXI@Z 0000000140053b00 f i * CIL library *:* CIL module *
 0001:00052b00       ??_GCFileDownloader_TimeCondition@Network@@UEAAPEAXI@Z 0000000140053b00 f i Download.obj
 0001:00052b40       ??_ECCurlTransfer@Network@@UEAAPEAXI@Z 0000000140053b40 f i * CIL library *:* CIL module *
 0001:00052b40       ??_GCCurlTransfer@Network@@UEAAPEAXI@Z 0000000140053b40 f i Networking.obj
 0001:00052b80       ??6?$basic_ostream@DU?$char_traits@D@std@@@std@@QEAAAEAV01@J@Z 0000000140053b80 f i Networking.obj
 0001:00052d90       ??6?$basic_ostream@DU?$char_traits@D@std@@@std@@QEAAAEAV01@H@Z 0000000140053d90 f i Networking.obj
 0001:00052fa0       ?_Erase_unchecked@?$_Tree@V?$_Tmap_traits@V?$basic_string@DU?$char_traits@D@std@@V?$allocator@D@2@@std@@V12@U?$less@V?$basic_string@DU?$char_traits@D@std@@V?$allocator@D@2@@std@@@2@V?$allocator@U?$pair@$$CBV?$basic_string@DU?$char_traits@D@std@@V?$allocator@D@2@@std@@V12@@std@@@2@$0A@@std@@@std@@AEAAPEAU?$_Tree_node@U?$pair@$$CBV?$basic_string@DU?$char_traits@D@std@@V?$allocator@D@2@@std@@V12@@std@@PEAX@2@V?$_Tree_unchecked_const_iterator@V?$_Tree_val@U?$_Tree_simple_types@U?$pair@$$CBV?$basic_string@DU?$char_traits@D@std@@V?$allocator@D@2@@std@@V12@@std@@@std@@@std@@U_Iterator_base0@2@@2@@Z 0000000140053fa0 f i Networking.obj
 0001:00053030       ??$_Try_emplace@AEBV?$basic_string@DU?$char_traits@D@std@@V?$allocator@D@2@@std@@$$V@?$map@V?$basic_string@DU?$char_traits@D@std@@V?$allocator@D@2@@std@@V12@U?$less@V?$basic_string@DU?$char_traits@D@std@@V?$allocator@D@2@@std@@@2@V?$allocator@U?$pair@$$CBV?$basic_string@DU?$char_traits@D@std@@V?$allocator@D@2@@std@@V12@@std@@@2@@std@@AEAA?AU?$pair@PEAU?$_Tree_node@U?$pair@$$CBV?$basic_string@DU?$char_traits@D@std@@V?$allocator@D@2@@std@@V12@@std@@PEAX@std@@_N@1@AEBV?$basic_string@DU?$char_traits@D@std@@V?$allocator@D@2@@1@@Z 0000000140054030 f i Networking.obj
 0001:000531d0       ??1?$_Alloc_construct_ptr@V?$allocator@U?$_Tree_node@U?$pair@$$CBV?$basic_string@DU?$char_traits@D@std@@V?$allocator@D@2@@std@@V12@@std@@PEAX@std@@@std@@@std@@QEAA@XZ 00000001400541d0 f i Networking.obj
 0001:000531d0       ??1?$_Tree_temp_node_alloc@V?$allocator@U?$_Tree_node@U?$pair@$$CBV?$basic_string@DU?$char_traits@D@std@@V?$allocator@D@2@@std@@V12@@std@@PEAX@std@@@std@@@std@@QEAA@XZ 00000001400541d0 f i Networking.obj
 0001:000531f0       ??_ECFileUploader@Network@@UEAAPEAXI@Z 00000001400541f0 f i * CIL library *:* CIL module *
 0001:000531f0       ??_GCFileUploader@Network@@UEAAPEAXI@Z 00000001400541f0 f i Upload.obj
 0001:00053230       ?_Make_ec@std@@YA?AVerror_code@1@W4__std_win_error@@@Z 0000000140054230 f i storage.obj
 0001:00053250       ?_Throw_system_error_from_std_win_error@std@@YAXW4__std_win_error@@@Z 0000000140054250 f i storage.obj
 0001:00053290       ?_Convert_narrow_to_wide@filesystem@std@@YA?AV?$basic_string@_WU?$char_traits@_W@std@@V?$allocator@_W@2@@2@W4__std_code_page@@V?$basic_string_view@DU?$char_traits@D@std@@@2@@Z 0000000140054290 f i storage.obj
 0001:00053410       ??0filesystem_error@filesystem@std@@QEAA@AEBV?$basic_string@DU?$char_traits@D@std@@V?$allocator@D@2@@2@AEBVpath@12@Verror_code@2@@Z 0000000140054410 f i storage.obj
 0001:00053540       ?what@filesystem_error@filesystem@std@@UEBAPEBDXZ 0000000140054540 f i storage.obj
 0001:00053550       ?_Pretty_message@filesystem_error@filesystem@std@@CA?AV?$basic_string@DU?$char_traits@D@std@@V?$allocator@D@2@@3@V?$basic_string_view@DU?$char_traits@D@std@@@3@AEBVpath@23@1@Z 0000000140054550 f i storage.obj
 0001:000537c0       ??_Efilesystem_error@filesystem@std@@UEAAPEAXI@Z 00000001400547c0 f i * CIL library *:* CIL module *
 0001:000537c0       ??_Gfilesystem_error@filesystem@std@@UEAAPEAXI@Z 00000001400547c0 f i storage.obj
 0001:00053910       ??1filesystem_error@filesystem@std@@UEAA@XZ 0000000140054910 f i storage.obj
 0001:00053a30       ??0filesystem_error@filesystem@std@@QEAA@AEBV012@@Z 0000000140054a30 f i storage.obj
 0001:00053ac0       ?_Throw_fs_error@filesystem@std@@YAXPEBDW4__std_win_error@@AEBVpath@12@@Z 0000000140054ac0 f i storage.obj
 0001:00053b30       ?_Throw_fs_error@filesystem@std@@YAXPEBDAEBVerror_code@2@AEBVpath@12@@Z 0000000140054b30 f i storage.obj
 0001:00053b90       ?append@?$basic_string@_WU?$char_traits@_W@std@@V?$allocator@_W@2@@std@@QEAAAEAV12@_K_W@Z 0000000140054b90 f i storage.obj
 0001:00053c10       ??$_Convert_wide_to_narrow_replace_chars@U?$char_traits@D@std@@V?$allocator@D@2@@filesystem@std@@YA?AV?$basic_string@DU?$char_traits@D@std@@V?$allocator@D@2@@1@W4__std_code_page@@V?$basic_string_view@_WU?$char_traits@_W@std@@@1@AEBV?$allocator@D@1@@Z 0000000140054c10 f i storage.obj
 0001:00053d00       ??$_Reallocate_grow_by@V<lambda_1>@?1??append@?$basic_string@_WU?$char_traits@_W@std@@V?$allocator@_W@2@@std@@QEAAAEAV34@_K_W@Z@_K_W@?$basic_string@_WU?$char_traits@_W@std@@V?$allocator@_W@2@@std@@AEAAAEAV01@_KV<lambda_1>@?1??append@01@QEAAAEAV01@0_W@Z@_K_W@Z 0000000140054d00 f i storage.obj
 0001:00053ec0       ?push_back@?$basic_string@_WU?$char_traits@_W@std@@V?$allocator@_W@2@@std@@QEAAX_W@Z 0000000140054ec0 f i std.ixx.obj
 0001:00053f00       ?append@?$basic_string@_WU?$char_traits@_W@std@@V?$allocator@_W@2@@std@@QEAAAEAV12@QEB_W_K@Z 0000000140054f00 f i std.ixx.obj
 0001:00053f90       ??4?$basic_string@_WU?$char_traits@_W@std@@V?$allocator@_W@2@@std@@QEAAAEAV01@$$QEAV01@@Z 0000000140054f90 f i std.ixx.obj
 0001:00054030       ??$_Reallocate_grow_by@V<lambda_1>@?1??push_back@?$basic_string@_WU?$char_traits@_W@std@@V?$allocator@_W@2@@std@@QEAAX_W@Z@_W@?$basic_string@_WU?$char_traits@_W@std@@V?$allocator@_W@2@@std@@AEAAAEAV01@_KV<lambda_1>@?1??push_back@01@QEAAX_W@Z@_W@Z 0000000140055030 f i std.ixx.obj
 0001:000541c0       ??$_Reallocate_grow_by@V<lambda_1>@?1??append@?$basic_string@_WU?$char_traits@_W@std@@V?$allocator@_W@2@@std@@QEAAAEAV34@QEB_W_K@Z@PEB_W_K@?$basic_string@_WU?$char_traits@_W@std@@V?$allocator@_W@2@@std@@AEAAAEAV01@_KV<lambda_1>@?1??append@01@QEAAAEAV01@QEB_W0@Z@PEB_W_K@Z 00000001400551c0 f i std.ixx.obj
 0001:0005437c       __tailMerge_d3d9_dll       000000014005537c     d3d9:d3d9.dll
 0001:000543f5       __imp_load_Direct3DCreate9 00000001400553f5 f   d3d9:d3d9.dll
 0001:00054401       __tailMerge_ws2_32_dll     0000000140055401     ws2_32:WS2_32.dll
 0001:0005447a       __imp_load_WSAStartup      000000014005547a f   ws2_32:WS2_32.dll
 0001:00054486       __imp_load_WSACleanup      0000000140055486 f   ws2_32:WS2_32.dll
 0001:00054492       __imp_load_select          0000000140055492 f   ws2_32:WS2_32.dll
 0001:000544a0       ?DloadAcquireSectionWriteAccess@@YAXXZ 00000001400554a0 f i delayimp:delayhlp.obj
 0001:0005454c       ?DloadGetSRWLockFunctionPointers@@YAEXZ 000000014005554c f i delayimp:delayhlp.obj
 0001:000545ec       ?DloadMakePermanentImageCommit@@YAXPEAX_K@Z 00000001400555ec f i delayimp:delayhlp.obj
 0001:00054684       ?DloadObtainSection@@YAPEAXPEAK0@Z 0000000140055684 f i delayimp:delayhlp.obj
 0001:00054720       ?DloadProtectSection@@YAXKPEAK@Z 0000000140055720 f i delayimp:delayhlp.obj
 0001:000547b0       ?DloadReleaseSectionWriteAccess@@YAXXZ 00000001400557b0 f i delayimp:delayhlp.obj
 0001:00054844       __delayLoadHelper2         0000000140055844 f   delayimp:delayhlp.obj
 0001:00054b20       _guard_check_icall_nop     0000000140055b20 f i odbccp32:guard_check.obj
 0001:00054b30       ??0bad_function_call@std@@QEAA@AEBV01@@Z 0000000140055b30 f i libcpmt:xthrow.obj
 0001:00054b6c       ??0bad_function_call@std@@QEAA@XZ 0000000140055b6c f i libcpmt:xthrow.obj
 0001:00054b84       ??0length_error@std@@QEAA@AEBV01@@Z 0000000140055b84 f i libcpmt:xthrow.obj
 0001:00054bc0       ??0length_error@std@@QEAA@PEBD@Z 0000000140055bc0 f i libcpmt:xthrow.obj
 0001:00054c08       ??0out_of_range@std@@QEAA@PEBD@Z 0000000140055c08 f i libcpmt:xthrow.obj
 0001:00054c50       ?_Xbad_alloc@std@@YAXXZ    0000000140055c50 f   libcpmt:xthrow.obj
 0001:00054c50       ?__scrt_throw_std_bad_alloc@@YAXXZ 0000000140055c50 f   LIBCMT:throw_bad_alloc.obj
 0001:00054c70       ?_Xbad_function_call@std@@YAXXZ 0000000140055c70 f   libcpmt:xthrow.obj
 0001:00054c90       ?_Xlength_error@std@@YAXPEBD@Z 0000000140055c90 f   libcpmt:xthrow.obj
 0001:00054cb4       ?_Xout_of_range@std@@YAXPEBD@Z 0000000140055cb4 f   libcpmt:xthrow.obj
 0001:00054cd8       ?_Xruntime_error@std@@YAXPEBD@Z 0000000140055cd8 f   libcpmt:xthrow.obj
 0001:00054cfc       ?what@bad_function_call@std@@UEBAPEBDXZ 0000000140055cfc f i libcpmt:xthrow.obj
 0001:00054d04       _Smtx_lock_exclusive       0000000140055d04 f   libcpmt:sharedmutex.obj
 0001:00054d0c       _Smtx_lock_shared          0000000140055d0c f   libcpmt:sharedmutex.obj
 0001:00054d14       _Smtx_unlock_exclusive     0000000140055d14 f   libcpmt:sharedmutex.obj
 0001:00054d1c       _Smtx_unlock_shared        0000000140055d1c f   libcpmt:sharedmutex.obj
 0001:00054d24       _Stolx                     0000000140055d24 f   libcpmt:xstol.obj
 0001:00054e04       ??0_Init_locks@std@@QEAA@XZ 0000000140055e04 f   libcpmt:xlock.obj
 0001:00054e48       ??0_Lockit@std@@QEAA@H@Z   0000000140055e48 f   libcpmt:xlock.obj
 0001:00054e84       ??1_Init_locks@std@@QEAA@XZ 0000000140055e84 f   libcpmt:xlock.obj
 0001:00054ec0       ??1_Lockit@std@@QEAA@XZ    0000000140055ec0 f   libcpmt:xlock.obj
 0001:00054ef4       ?uncaught_exceptions@std@@YAHXZ 0000000140055ef4 f   libcpmt:uncaught_exceptions.obj
 0001:00054efc       ??$_Parse_fp_with_locale@$0A@@?$num_get@DV?$istreambuf_iterator@DU?$char_traits@D@std@@@std@@@std@@CA?AU_Num_get_parse_result@1@QEADHAEAV?$istreambuf_iterator@DU?$char_traits@D@std@@@1@1AEBVlocale@1@@Z 0000000140055efc f i libcpmt:locale.obj
 0001:00056414       ??$_Parse_int_with_locale@$0A@@?$num_get@DV?$istreambuf_iterator@DU?$char_traits@D@std@@@std@@@std@@CA?AU_Num_get_parse_result@1@QEADAEAV?$istreambuf_iterator@DU?$char_traits@D@std@@@1@1HAEBVlocale@1@@Z 0000000140057414 f i libcpmt:locale.obj
 0001:00056de8       ??$use_facet@V?$num_get@DV?$istreambuf_iterator@DU?$char_traits@D@std@@@std@@@std@@@std@@YAAEBV?$num_get@DV?$istreambuf_iterator@DU?$char_traits@D@std@@@std@@@0@AEBVlocale@0@@Z 0000000140057de8 f i libcpmt:locale.obj
 0001:00056f00       ?_Getcat@?$num_get@DV?$istreambuf_iterator@DU?$char_traits@D@std@@@std@@@std@@SA_KPEAPEBVfacet@locale@2@PEBV42@@Z 0000000140057f00 f i libcpmt:locale.obj
 0001:00056fbc       ?_Locimp_Addfac@_Locimp@locale@std@@CAXPEAV123@PEAVfacet@23@_K@Z 0000000140057fbc f   libcpmt:locale.obj
 0001:000570b0       ?_Locinfo_Addcats@_Locinfo@std@@SAAEAV12@PEAV12@HPEBD@Z 00000001400580b0 f   libcpmt:locale.obj
 0001:000571b4       ?_Locinfo_ctor@_Locinfo@std@@SAXPEAV12@HPEBD@Z 00000001400581b4 f   libcpmt:locale.obj
 0001:0005720c       ?_Makeloc@_Locimp@locale@std@@CAPEAV123@AEBV_Locinfo@3@HPEAV123@PEBV23@@Z 000000014005820c f   libcpmt:locale.obj
 0001:00057700       ?do_get@?$num_get@DV?$istreambuf_iterator@DU?$char_traits@D@std@@@std@@@std@@MEBA?AV?$istreambuf_iterator@DU?$char_traits@D@std@@@2@V32@0AEAVios_base@2@AEAHAEAG@Z 0000000140058700 f i libcpmt:locale.obj
 0001:0005786c       ?do_get@?$num_get@DV?$istreambuf_iterator@DU?$char_traits@D@std@@@std@@@std@@MEBA?AV?$istreambuf_iterator@DU?$char_traits@D@std@@@2@V32@0AEAVios_base@2@AEAHAEAI@Z 000000014005886c f i libcpmt:locale.obj
 0001:000578ec       ?do_get@?$num_get@DV?$istreambuf_iterator@DU?$char_traits@D@std@@@std@@@std@@MEBA?AV?$istreambuf_iterator@DU?$char_traits@D@std@@@2@V32@0AEAVios_base@2@AEAHAEAJ@Z 00000001400588ec f i libcpmt:locale.obj
 0001:00057a0c       ?do_get@?$num_get@DV?$istreambuf_iterator@DU?$char_traits@D@std@@@std@@@std@@MEBA?AV?$istreambuf_iterator@DU?$char_traits@D@std@@@2@V32@0AEAVios_base@2@AEAHAEAK@Z 0000000140058a0c f i libcpmt:locale.obj
 0001:00057b2c       ?do_get@?$num_get@DV?$istreambuf_iterator@DU?$char_traits@D@std@@@std@@@std@@MEBA?AV?$istreambuf_iterator@DU?$char_traits@D@std@@@2@V32@0AEAVios_base@2@AEAHAEAM@Z 0000000140058b2c f i libcpmt:locale.obj
 0001:00057c74       ?do_get@?$num_get@DV?$istreambuf_iterator@DU?$char_traits@D@std@@@std@@@std@@MEBA?AV?$istreambuf_iterator@DU?$char_traits@D@std@@@2@V32@0AEAVios_base@2@AEAHAEAN@Z 0000000140058c74 f i libcpmt:locale.obj
 0001:00057dbc       ?do_get@?$num_get@DV?$istreambuf_iterator@DU?$char_traits@D@std@@@std@@@std@@MEBA?AV?$istreambuf_iterator@DU?$char_traits@D@std@@@2@V32@0AEAVios_base@2@AEAHAEAO@Z 0000000140058dbc f i libcpmt:locale.obj
 0001:00057e40       ?do_get@?$num_get@DV?$istreambuf_iterator@DU?$char_traits@D@std@@@std@@@std@@MEBA?AV?$istreambuf_iterator@DU?$char_traits@D@std@@@2@V32@0AEAVios_base@2@AEAHAEAPEAX@Z 0000000140058e40 f i libcpmt:locale.obj
 0001:00057f88       ?do_get@?$num_get@DV?$istreambuf_iterator@DU?$char_traits@D@std@@@std@@@std@@MEBA?AV?$istreambuf_iterator@DU?$char_traits@D@std@@@2@V32@0AEAVios_base@2@AEAHAEA_J@Z 0000000140058f88 f i libcpmt:locale.obj
 0001:000580a8       ?do_get@?$num_get@DV?$istreambuf_iterator@DU?$char_traits@D@std@@@std@@@std@@MEBA?AV?$istreambuf_iterator@DU?$char_traits@D@std@@@2@V32@0AEAVios_base@2@AEAHAEA_K@Z 00000001400590a8 f i libcpmt:locale.obj
 0001:000581c8       ?do_get@?$num_get@DV?$istreambuf_iterator@DU?$char_traits@D@std@@@std@@@std@@MEBA?AV?$istreambuf_iterator@DU?$char_traits@D@std@@@2@V32@0AEAVios_base@2@AEAHAEA_N@Z 00000001400591c8 f i libcpmt:locale.obj
 0001:000584d8       ??0_Locimp@locale@std@@AEAA@_N@Z 00000001400594d8 f i libcpmt:locale0.obj
 0001:00058560       ??_E_Locimp@locale@std@@MEAAPEAXI@Z 0000000140059560 f i libcpmt:locale0.obj
 0001:00058560       ??_G_Locimp@locale@std@@MEAAPEAXI@Z 0000000140059560 f i libcpmt:locale0.obj
 0001:000585bc       ?_Facet_Register@std@@YAXPEAV_Facet_base@1@@Z 00000001400595bc f   libcpmt:locale0.obj
 0001:000585f4       ?_Getgloballocale@locale@std@@CAPEAV_Locimp@12@XZ 00000001400595f4 f   libcpmt:locale0.obj
 0001:000585fc       ?_Init@locale@std@@CAPEAV_Locimp@12@_N@Z 00000001400595fc f   libcpmt:locale0.obj
 0001:000586f0       ?_Locimp_dtor@_Locimp@locale@std@@CAXPEAV123@@Z 00000001400596f0 f   libcpmt:locale0.obj
 0001:0005876c       ?_Locinfo_ctor@_Locinfo@std@@SAXPEAV12@PEBD@Z 000000014005976c f   libcpmt:locale0.obj
 0001:000587d8       ?_Locinfo_dtor@_Locinfo@std@@SAXPEAV12@@Z 00000001400597d8 f   libcpmt:locale0.obj
 0001:000587f4       ?_New_Locimp@_Locimp@locale@std@@CAPEAV123@_N@Z 00000001400597f4 f   libcpmt:locale0.obj
 0001:00058824       ?_Setgloballocale@locale@std@@CAXPEAX@Z 0000000140059824 f   libcpmt:locale0.obj
 0001:00058858       _Deletegloballocale        0000000140059858 f   libcpmt:locale0.obj
 0001:000588c8       ?_Addstd@ios_base@std@@SAXPEAV12@@Z 00000001400598c8 f   libcpmt:ios.obj
 0001:0005893c       ?_Ios_base_dtor@ios_base@std@@CAXPEAV12@@Z 000000014005993c f   libcpmt:ios.obj
 0001:000589b4       ?_Tidy@ios_base@std@@AEAAXXZ 00000001400599b4 f i libcpmt:ios.obj
 0001:00058a34       ?_Syserror_map@std@@YAPEBDH@Z 0000000140059a34 f   libcpmt:syserror.obj
 0001:00058a5c       ?_Winerror_map@std@@YAHH@Z 0000000140059a5c f   libcpmt:syserror.obj
 0001:00058a80       _Getdateorder              0000000140059a80 f   libcpmt:xdateord.obj
 0001:00058adc       _Getctype                  0000000140059adc f   libcpmt:_tolower.obj
 0001:00058b9c       _Tolower                   0000000140059b9c f   libcpmt:_tolower.obj
 0001:00058cd0       _Getcvt                    0000000140059cd0 f   libcpmt:xwctomb.obj
 0001:00058d68       _Wcrtomb                   0000000140059d68 f   libcpmt:xwctomb.obj
 0001:00058de4       _Toupper                   0000000140059de4 f   libcpmt:_toupper.obj
 0001:00058f28       ??0system_error@std@@QEAA@HAEBVerror_category@1@PEBD@Z 0000000140059f28 f i libcpmt:thread0.obj
 0001:00059048       ?_Throw_Cpp_error@std@@YAXH@Z 000000014005a048 f   libcpmt:thread0.obj
 0001:00059090       ?_Fiopen@std@@YAPEAU_iobuf@@PEBDHH@Z 000000014005a090 f   libcpmt:fiopen.obj
 0001:00059148       _Mtx_lock                  000000014005a148 f   libcpmt:mutex.obj
 0001:00059150       _Mtx_unlock                000000014005a150 f   libcpmt:mutex.obj
 0001:000592a4       ?setprecision@std@@YA?AU?$_Smanip@_J@1@_J@Z 000000014005a2a4 f   libcpmt:iomanip.obj
 0001:000592b8       ?setw@std@@YA?AU?$_Smanip@_J@1@_J@Z 000000014005a2b8 f   libcpmt:iomanip.obj
 0001:000592dc       __std_system_error_allocate_message 000000014005a2dc f   libcpmt:syserror_import_lib.obj
 0001:00059374       __std_system_error_deallocate_message 000000014005a374 f   libcpmt:syserror_import_lib.obj
 0001:00059380       __std_find_trivial_1       000000014005a380 f   libcpmt:vector_algorithms.obj
 0001:00059450       __std_find_trivial_2       000000014005a450 f   libcpmt:vector_algorithms.obj
 0001:00059520       __std_find_trivial_4       000000014005a520 f   libcpmt:vector_algorithms.obj
 0001:000595d0       __std_reverse_trivially_swappable_1 000000014005a5d0 f   libcpmt:vector_algorithms.obj
 0001:000596c0       __std_fs_code_page         000000014005a6c0 f   libcpmt:filesystem.obj
 0001:000596e8       __std_fs_convert_narrow_to_wide 000000014005a6e8 f   libcpmt:filesystem.obj
 0001:00059730       __std_fs_convert_wide_to_narrow_replace_chars 000000014005a730 f   libcpmt:filesystem.obj
 0001:000597fc       __std_fs_create_directory  000000014005a7fc f   libcpmt:filesystem.obj
 0001:00059874       __std_fs_get_stats         000000014005a874 f   libcpmt:filesystem.obj
 0001:00059ba4       __std_fs_open_handle       000000014005aba4 f   libcpmt:filesystem.obj
 0001:00059bfc       ?_CallMemberFunction0@@YAXQEAX0@Z 000000014005abfc f i libcpmt:excptptr.obj
 0001:00059c00       ?_CallMemberFunction1@@YAXQEAX00@Z 000000014005ac00 f i libcpmt:excptptr.obj
 0001:00059c0c       ?_CallMemberFunction2@@YAXQEAX00H@Z 000000014005ac0c f i libcpmt:excptptr.obj
 0001:00059c1c       _Stoulx                    000000014005ac1c f   libcpmt:xstoul.obj
 0001:00059df8       _Mtxdst                    000000014005adf8 f   libcpmt:xmtx.obj
 0001:00059e00       _Mtxinit                   000000014005ae00 f   libcpmt:xmtx.obj
 0001:00059e10       _Mtxlock                   000000014005ae10 f   libcpmt:xmtx.obj
 0001:00059e18       _Mtxunlock                 000000014005ae18 f   libcpmt:xmtx.obj
 0001:00059e20       ??$_Construct@$00PEBG@?$basic_string@GU?$char_traits@G@std@@V?$allocator@G@2@@std@@AEAAXQEBG_K@Z 000000014005ae20 f i libcpmt:wlocale.obj
 0001:00059e20       ??$_Construct@$00PEB_W@?$basic_string@_WU?$char_traits@_W@std@@V?$allocator@_W@2@@std@@AEAAXQEB_W_K@Z 000000014005ae20 f i libcpmt:wlocale.obj
 0001:00059f78       ??$_Construct@$01PEBG@?$basic_string@GU?$char_traits@G@std@@V?$allocator@G@2@@std@@AEAAXQEBG_K@Z 000000014005af78 f i libcpmt:wlocale.obj
 0001:0005a0bc       ??$_Construct@$0A@G@?$basic_string@GU?$char_traits@G@std@@V?$allocator@G@2@@std@@AEAAXG_K@Z 000000014005b0bc f i libcpmt:wlocale.obj
 0001:0005a0bc       ??$_Construct@$0A@_W@?$basic_string@_WU?$char_traits@_W@std@@V?$allocator@_W@2@@std@@AEAAX_W_K@Z 000000014005b0bc f i libcpmt:wlocale.obj
 0001:0005a218       ??$_Copy_unchecked@PEA_WPEA_WV?$ostreambuf_iterator@GU?$char_traits@G@std@@@std@@@std@@YA?AV?$ostreambuf_iterator@GU?$char_traits@G@std@@@0@PEA_W0V10@@Z 000000014005b218 f i libcpmt:wlocale.obj
 0001:0005a218       ??$_Copy_unchecked@PEA_WPEA_WV?$ostreambuf_iterator@_WU?$char_traits@_W@std@@@std@@@std@@YA?AV?$ostreambuf_iterator@_WU?$char_traits@_W@std@@@0@PEA_W0V10@@Z 000000014005b218 f i libcpmt:wlocale.obj
 0001:0005a2d0       ??$_Fput_v3@$0A@@?$num_put@GV?$ostreambuf_iterator@GU?$char_traits@G@std@@@std@@@std@@AEBA?AV?$ostreambuf_iterator@GU?$char_traits@G@std@@@1@V21@AEAVios_base@1@GPEBD_K_N@Z 000000014005b2d0 f i libcpmt:wlocale.obj
 0001:0005a770       ??$_Fput_v3@$0A@@?$num_put@_WV?$ostreambuf_iterator@_WU?$char_traits@_W@std@@@std@@@std@@AEBA?AV?$ostreambuf_iterator@_WU?$char_traits@_W@std@@@1@V21@AEAVios_base@1@_WPEBD_K_N@Z 000000014005b770 f i libcpmt:wlocale.obj
 0001:0005ac10       ??$_Getint_v2@V?$istreambuf_iterator@GU?$char_traits@G@std@@@std@@G@std@@YAHAEAV?$istreambuf_iterator@GU?$char_traits@G@std@@@0@0HHAEAH1AEBV?$ctype@G@0@@Z 000000014005bc10 f i libcpmt:wlocale.obj
 0001:0005ac10       ??$_Getint_v2@V?$istreambuf_iterator@_WU?$char_traits@_W@std@@@std@@_W@std@@YAHAEAV?$istreambuf_iterator@_WU?$char_traits@_W@std@@@0@0HHAEAH1AEBV?$ctype@_W@0@@Z 000000014005bc10 f i libcpmt:wlocale.obj
 0001:0005b138       ??$_Getloctxt@V?$istreambuf_iterator@GU?$char_traits@G@std@@@std@@D@std@@YAHAEAV?$istreambuf_iterator@GU?$char_traits@G@std@@@0@0_KPEBDW4_Case_sensitive@0@@Z 000000014005c138 f i libcpmt:wlocale.obj
 0001:0005b138       ??$_Getloctxt@V?$istreambuf_iterator@_WU?$char_traits@_W@std@@@std@@D@std@@YAHAEAV?$istreambuf_iterator@_WU?$char_traits@_W@std@@@0@0_KPEBDW4_Case_sensitive@0@@Z 000000014005c138 f i libcpmt:wlocale.obj
 0001:0005b404       ??$_Getloctxt@V?$istreambuf_iterator@GU?$char_traits@G@std@@@std@@G@std@@YAHAEAV?$istreambuf_iterator@GU?$char_traits@G@std@@@0@0_KPEBGW4_Case_sensitive@0@@Z 000000014005c404 f i libcpmt:wlocale.obj
 0001:0005b6f8       ??$_Getloctxt@V?$istreambuf_iterator@_WU?$char_traits@_W@std@@@std@@_W@std@@YAHAEAV?$istreambuf_iterator@_WU?$char_traits@_W@std@@@0@0_KPEB_WW4_Case_sensitive@0@@Z 000000014005c6f8 f i libcpmt:wlocale.obj
 0001:0005b9ec       ??$_Getvals@G@?$_Mpunct@G@std@@IEAAXGPEBUlconv@@@Z 000000014005c9ec f i libcpmt:wlocale.obj
 0001:0005badc       ??$_Getvals@G@?$numpunct@G@std@@IEAAXGPEBUlconv@@U_Cvtvec@@@Z 000000014005cadc f i libcpmt:wlocale.obj
 0001:0005bb68       ??$_Getvals@G@?$time_get@GV?$istreambuf_iterator@GU?$char_traits@G@std@@@std@@@std@@IEAAXGAEBV_Locinfo@1@@Z 000000014005cb68 f i libcpmt:wlocale.obj
 0001:0005bc64       ??$_Getvals@_W@?$time_get@_WV?$istreambuf_iterator@_WU?$char_traits@_W@std@@@std@@@std@@IEAAX_WAEBV_Locinfo@1@@Z 000000014005cc64 f i libcpmt:wlocale.obj
 0001:0005bd44       ??$_Hash_array_representation@G@std@@YA_KQEBG_K@Z 000000014005cd44 f i libcpmt:wlocale.obj
 0001:0005bd44       ??$_Hash_array_representation@_W@std@@YA_KQEB_W_K@Z 000000014005cd44 f i libcpmt:wlocale.obj
 0001:0005bd7c       ??$_LStrcoll@G@std@@YAHPEBG000PEBU_Collvec@@@Z 000000014005cd7c f i libcpmt:wlocale.obj
 0001:0005bdb8       ??$_LStrxfrm@G@std@@YA_KPEAG0PEBG1PEBU_Collvec@@@Z 000000014005cdb8 f i libcpmt:wlocale.obj
 0001:0005bdec       ??$_Maklocstr@G@std@@YAPEAGPEBDPEAGAEBU_Cvtvec@@@Z 000000014005cdec f i libcpmt:wlocale.obj
 0001:0005bdec       ??$_Maklocstr@_W@std@@YAPEA_WPEBDPEA_WAEBU_Cvtvec@@@Z 000000014005cdec f i libcpmt:wlocale.obj
 0001:0005bed0       ??$_Parse_fp_with_locale@$0A@@?$num_get@GV?$istreambuf_iterator@GU?$char_traits@G@std@@@std@@@std@@CA?AU_Num_get_parse_result@1@QEADHAEAV?$istreambuf_iterator@GU?$char_traits@G@std@@@1@1AEBVlocale@1@@Z 000000014005ced0 f i libcpmt:wlocale.obj
 0001:0005d5f8       ??$_Parse_fp_with_locale@$0A@@?$num_get@_WV?$istreambuf_iterator@_WU?$char_traits@_W@std@@@std@@@std@@CA?AU_Num_get_parse_result@1@QEADHAEAV?$istreambuf_iterator@_WU?$char_traits@_W@std@@@1@1AEBVlocale@1@@Z 000000014005e5f8 f i libcpmt:wlocale.obj
 0001:0005ed20       ??$_Parse_int_with_locale@$0A@@?$num_get@GV?$istreambuf_iterator@GU?$char_traits@G@std@@@std@@@std@@CA?AU_Num_get_parse_result@1@QEADAEAV?$istreambuf_iterator@GU?$char_traits@G@std@@@1@1HAEBVlocale@1@@Z 000000014005fd20 f i libcpmt:wlocale.obj
 0001:0005f794       ??$_Parse_int_with_locale@$0A@@?$num_get@_WV?$istreambuf_iterator@_WU?$char_traits@_W@std@@@std@@@std@@CA?AU_Num_get_parse_result@1@QEADAEAV?$istreambuf_iterator@_WU?$char_traits@_W@std@@@1@1HAEBVlocale@1@@Z 0000000140060794 f i libcpmt:wlocale.obj
 0001:00060208       ??$_Reallocate_grow_by@V<lambda_1>@?1??append@?$basic_string@GU?$char_traits@G@std@@V?$allocator@G@2@@std@@QEAAAEAV34@QEBG_K@Z@PEBG_K@?$basic_string@GU?$char_traits@G@std@@V?$allocator@G@2@@std@@AEAAAEAV01@_KV<lambda_1>@?1??append@01@QEAAAEAV01@QEBG0@Z@PEBG_K@Z 0000000140061208 f i libcpmt:wlocale.obj
 0001:00060448       ??$_Reallocate_grow_by@V<lambda_1>@?1??append@?$basic_string@GU?$char_traits@G@std@@V?$allocator@G@2@@std@@QEAAAEAV34@_KG@Z@_KG@?$basic_string@GU?$char_traits@G@std@@V?$allocator@G@2@@std@@AEAAAEAV01@_KV<lambda_1>@?1??append@01@QEAAAEAV01@0G@Z@_KG@Z 0000000140061448 f i libcpmt:wlocale.obj
 0001:0006067c       ??$_Reallocate_grow_by@V<lambda_1>@?1??insert@?$basic_string@GU?$char_traits@G@std@@V?$allocator@G@2@@std@@QEAAAEAV34@_K0G@Z@_K_KG@?$basic_string@GU?$char_traits@G@std@@V?$allocator@G@2@@std@@AEAAAEAV01@_KV<lambda_1>@?1??insert@01@QEAAAEAV01@00G@Z@_K2G@Z 000000014006167c f i libcpmt:wlocale.obj
 0001:0006067c       ??$_Reallocate_grow_by@V<lambda_1>@?1??insert@?$basic_string@_WU?$char_traits@_W@std@@V?$allocator@_W@2@@std@@QEAAAEAV34@_K0_W@Z@_K_K_W@?$basic_string@_WU?$char_traits@_W@std@@V?$allocator@_W@2@@std@@AEAAAEAV01@_KV<lambda_1>@?1??insert@01@QEAAAEAV01@00_W@Z@_K3_W@Z 000000014006167c f i libcpmt:wlocale.obj
 0001:00060894       ??$_Reallocate_grow_by@V<lambda_1>@?1??push_back@?$basic_string@GU?$char_traits@G@std@@V?$allocator@G@2@@std@@QEAAXG@Z@G@?$basic_string@GU?$char_traits@G@std@@V?$allocator@G@2@@std@@AEAAAEAV01@_KV<lambda_1>@?1??push_back@01@QEAAXG@Z@G@Z 0000000140061894 f i libcpmt:wlocale.obj
 0001:00060aa4       ??$use_facet@V?$codecvt@GDU_Mbstatet@@@std@@@std@@YAAEBV?$codecvt@GDU_Mbstatet@@@0@AEBVlocale@0@@Z 0000000140061aa4 f i libcpmt:wlocale.obj
 0001:00060bbc       ??$use_facet@V?$codecvt@_WDU_Mbstatet@@@std@@@std@@YAAEBV?$codecvt@_WDU_Mbstatet@@@0@AEBVlocale@0@@Z 0000000140061bbc f i libcpmt:wlocale.obj
 0001:00060cd4       ??$use_facet@V?$collate@G@std@@@std@@YAAEBV?$collate@G@0@AEBVlocale@0@@Z 0000000140061cd4 f i libcpmt:wlocale.obj
 0001:00060dec       ??$use_facet@V?$collate@_W@std@@@std@@YAAEBV?$collate@_W@0@AEBVlocale@0@@Z 0000000140061dec f i libcpmt:wlocale.obj
 0001:00060f04       ??$use_facet@V?$ctype@G@std@@@std@@YAAEBV?$ctype@G@0@AEBVlocale@0@@Z 0000000140061f04 f i libcpmt:wlocale.obj
 0001:0006101c       ??$use_facet@V?$ctype@_W@std@@@std@@YAAEBV?$ctype@_W@0@AEBVlocale@0@@Z 000000014006201c f i libcpmt:wlocale.obj
 0001:00061134       ??$use_facet@V?$messages@G@std@@@std@@YAAEBV?$messages@G@0@AEBVlocale@0@@Z 0000000140062134 f i libcpmt:wlocale.obj
 0001:0006124c       ??$use_facet@V?$messages@_W@std@@@std@@YAAEBV?$messages@_W@0@AEBVlocale@0@@Z 000000014006224c f i libcpmt:wlocale.obj
 0001:00061364       ??$use_facet@V?$money_get@GV?$istreambuf_iterator@GU?$char_traits@G@std@@@std@@@std@@@std@@YAAEBV?$money_get@GV?$istreambuf_iterator@GU?$char_traits@G@std@@@std@@@0@AEBVlocale@0@@Z 0000000140062364 f i libcpmt:wlocale.obj
 0001:0006147c       ??$use_facet@V?$money_get@_WV?$istreambuf_iterator@_WU?$char_traits@_W@std@@@std@@@std@@@std@@YAAEBV?$money_get@_WV?$istreambuf_iterator@_WU?$char_traits@_W@std@@@std@@@0@AEBVlocale@0@@Z 000000014006247c f i libcpmt:wlocale.obj
 0001:00061594       ??$use_facet@V?$money_put@GV?$ostreambuf_iterator@GU?$char_traits@G@std@@@std@@@std@@@std@@YAAEBV?$money_put@GV?$ostreambuf_iterator@GU?$char_traits@G@std@@@std@@@0@AEBVlocale@0@@Z 0000000140062594 f i libcpmt:wlocale.obj
 0001:000616ac       ??$use_facet@V?$money_put@_WV?$ostreambuf_iterator@_WU?$char_traits@_W@std@@@std@@@std@@@std@@YAAEBV?$money_put@_WV?$ostreambuf_iterator@_WU?$char_traits@_W@std@@@std@@@0@AEBVlocale@0@@Z 00000001400626ac f i libcpmt:wlocale.obj
 0001:000617c4       ??$use_facet@V?$moneypunct@G$00@std@@@std@@YAAEBV?$moneypunct@G$00@0@AEBVlocale@0@@Z 00000001400627c4 f i libcpmt:wlocale.obj
 0001:000618dc       ??$use_facet@V?$moneypunct@G$0A@@std@@@std@@YAAEBV?$moneypunct@G$0A@@0@AEBVlocale@0@@Z 00000001400628dc f i libcpmt:wlocale.obj
 0001:000619f4       ??$use_facet@V?$moneypunct@_W$00@std@@@std@@YAAEBV?$moneypunct@_W$00@0@AEBVlocale@0@@Z 00000001400629f4 f i libcpmt:wlocale.obj
 0001:00061b0c       ??$use_facet@V?$moneypunct@_W$0A@@std@@@std@@YAAEBV?$moneypunct@_W$0A@@0@AEBVlocale@0@@Z 0000000140062b0c f i libcpmt:wlocale.obj
 0001:00061c24       ??$use_facet@V?$num_get@GV?$istreambuf_iterator@GU?$char_traits@G@std@@@std@@@std@@@std@@YAAEBV?$num_get@GV?$istreambuf_iterator@GU?$char_traits@G@std@@@std@@@0@AEBVlocale@0@@Z 0000000140062c24 f i libcpmt:wlocale.obj
 0001:00061d3c       ??$use_facet@V?$num_get@_WV?$istreambuf_iterator@_WU?$char_traits@_W@std@@@std@@@std@@@std@@YAAEBV?$num_get@_WV?$istreambuf_iterator@_WU?$char_traits@_W@std@@@std@@@0@AEBVlocale@0@@Z 0000000140062d3c f i libcpmt:wlocale.obj
 0001:00061e54       ??$use_facet@V?$num_put@GV?$ostreambuf_iterator@GU?$char_traits@G@std@@@std@@@std@@@std@@YAAEBV?$num_put@GV?$ostreambuf_iterator@GU?$char_traits@G@std@@@std@@@0@AEBVlocale@0@@Z 0000000140062e54 f i libcpmt:wlocale.obj
 0001:00061f6c       ??$use_facet@V?$num_put@_WV?$ostreambuf_iterator@_WU?$char_traits@_W@std@@@std@@@std@@@std@@YAAEBV?$num_put@_WV?$ostreambuf_iterator@_WU?$char_traits@_W@std@@@std@@@0@AEBVlocale@0@@Z 0000000140062f6c f i libcpmt:wlocale.obj
 0001:00062084       ??$use_facet@V?$numpunct@G@std@@@std@@YAAEBV?$numpunct@G@0@AEBVlocale@0@@Z 0000000140063084 f i libcpmt:wlocale.obj
 0001:0006219c       ??$use_facet@V?$numpunct@_W@std@@@std@@YAAEBV?$numpunct@_W@0@AEBVlocale@0@@Z 000000014006319c f i libcpmt:wlocale.obj
 0001:000622b4       ??$use_facet@V?$time_get@GV?$istreambuf_iterator@GU?$char_traits@G@std@@@std@@@std@@@std@@YAAEBV?$time_get@GV?$istreambuf_iterator@GU?$char_traits@G@std@@@std@@@0@AEBVlocale@0@@Z 00000001400632b4 f i libcpmt:wlocale.obj
 0001:000623cc       ??$use_facet@V?$time_get@_WV?$istreambuf_iterator@_WU?$char_traits@_W@std@@@std@@@std@@@std@@YAAEBV?$time_get@_WV?$istreambuf_iterator@_WU?$char_traits@_W@std@@@std@@@0@AEBVlocale@0@@Z 00000001400633cc f i libcpmt:wlocale.obj
 0001:000624e4       ??$use_facet@V?$time_put@GV?$ostreambuf_iterator@GU?$char_traits@G@std@@@std@@@std@@@std@@YAAEBV?$time_put@GV?$ostreambuf_iterator@GU?$char_traits@G@std@@@std@@@0@AEBVlocale@0@@Z 00000001400634e4 f i libcpmt:wlocale.obj
 0001:000625fc       ??$use_facet@V?$time_put@_WV?$ostreambuf_iterator@_WU?$char_traits@_W@std@@@std@@@std@@@std@@YAAEBV?$time_put@_WV?$ostreambuf_iterator@_WU?$char_traits@_W@std@@@std@@@0@AEBVlocale@0@@Z 00000001400635fc f i libcpmt:wlocale.obj
 0001:00062714       ??1?$_Tidy_guard@V?$_Mpunct@D@std@@@std@@QEAA@XZ 0000000140063714 f i libcpmt:xlocale.obj
 0001:00062714       ??1?$_Tidy_guard@V?$_Mpunct@G@std@@@std@@QEAA@XZ 0000000140063714 f i libcpmt:wlocale.obj
 0001:00062714       ??1?$_Tidy_guard@V?$_Mpunct@_W@std@@@std@@QEAA@XZ 0000000140063714 f i libcpmt:wlocale.obj
 0001:0006274c       ??1?$_Tidy_guard@V?$numpunct@G@std@@@std@@QEAA@XZ 000000014006374c f i libcpmt:wlocale.obj
 0001:0006274c       ??1?$_Tidy_guard@V?$numpunct@_W@std@@@std@@QEAA@XZ 000000014006374c f i libcpmt:wlocale.obj
 0001:0006277c       ??1?$_Tidy_guard@V?$time_get@GV?$istreambuf_iterator@GU?$char_traits@G@std@@@std@@@std@@@std@@QEAA@XZ 000000014006377c f i libcpmt:wlocale.obj
 0001:0006277c       ??1?$_Tidy_guard@V?$time_get@_WV?$istreambuf_iterator@_WU?$char_traits@_W@std@@@std@@@std@@@std@@QEAA@XZ 000000014006377c f i libcpmt:wlocale.obj
 0001:000627ac       ??1?$basic_string@GU?$char_traits@G@std@@V?$allocator@G@2@@std@@QEAA@XZ 00000001400637ac f i libcpmt:wlocale.obj
 0001:000627b4       ??4?$basic_string@GU?$char_traits@G@std@@V?$allocator@G@2@@std@@QEAAAEAV01@$$QEAV01@@Z 00000001400637b4 f i libcpmt:wlocale.obj
 0001:00062824       ??R<lambda_1>@?1??insert@?$basic_string@GU?$char_traits@G@std@@V?$allocator@G@2@@std@@QEAAAEAV23@_K0G@Z@QEBA@QEAGQEBG000G@Z 0000000140063824 f i libcpmt:wlocale.obj
 0001:00062824       ??R<lambda_1>@?1??insert@?$basic_string@_WU?$char_traits@_W@std@@V?$allocator@_W@2@@std@@QEAAAEAV23@_K0_W@Z@QEBA@QEA_WQEB_W0001@Z 0000000140063824 f i libcpmt:wlocale.obj
 0001:000628ac       ??_E?$_Mpunct@G@std@@MEAAPEAXI@Z 00000001400638ac f i libcpmt:wlocale.obj
 0001:000628ac       ??_E?$moneypunct@G$00@std@@MEAAPEAXI@Z 00000001400638ac f i libcpmt:wlocale.obj
 0001:000628ac       ??_E?$moneypunct@G$0A@@std@@MEAAPEAXI@Z 00000001400638ac f i libcpmt:wlocale.obj
 0001:000628ac       ??_G?$_Mpunct@G@std@@MEAAPEAXI@Z 00000001400638ac f i libcpmt:wlocale.obj
 0001:000628ac       ??_G?$moneypunct@G$00@std@@MEAAPEAXI@Z 00000001400638ac f i libcpmt:wlocale.obj
 0001:000628ac       ??_G?$moneypunct@G$0A@@std@@MEAAPEAXI@Z 00000001400638ac f i libcpmt:wlocale.obj
 0001:00062914       ??_E?$_Mpunct@_W@std@@MEAAPEAXI@Z 0000000140063914 f i libcpmt:wlocale.obj
 0001:00062914       ??_E?$moneypunct@_W$00@std@@MEAAPEAXI@Z 0000000140063914 f i libcpmt:wlocale.obj
 0001:00062914       ??_E?$moneypunct@_W$0A@@std@@MEAAPEAXI@Z 0000000140063914 f i libcpmt:wlocale.obj
 0001:00062914       ??_G?$_Mpunct@_W@std@@MEAAPEAXI@Z 0000000140063914 f i libcpmt:wlocale.obj
 0001:00062914       ??_G?$moneypunct@_W$00@std@@MEAAPEAXI@Z 0000000140063914 f i libcpmt:wlocale.obj
 0001:00062914       ??_G?$moneypunct@_W$0A@@std@@MEAAPEAXI@Z 0000000140063914 f i libcpmt:wlocale.obj
 0001:0006297c       ??_E?$codecvt@GDU_Mbstatet@@@std@@MEAAPEAXI@Z 000000014006397c f i libcpmt:wlocale.obj
 0001:0006297c       ??_E?$codecvt@_WDU_Mbstatet@@@std@@MEAAPEAXI@Z 000000014006397c f i libcpmt:wlocale.obj
 0001:0006297c       ??_G?$codecvt@GDU_Mbstatet@@@std@@MEAAPEAXI@Z 000000014006397c f i libcpmt:wlocale.obj
 0001:0006297c       ??_G?$codecvt@_WDU_Mbstatet@@@std@@MEAAPEAXI@Z 000000014006397c f i libcpmt:wlocale.obj
 0001:000629a8       ??_E?$collate@G@std@@MEAAPEAXI@Z 00000001400639a8 f i libcpmt:wlocale.obj
 0001:000629a8       ??_G?$collate@G@std@@MEAAPEAXI@Z 00000001400639a8 f i libcpmt:wlocale.obj
 0001:000629f4       ??_E?$collate@_W@std@@MEAAPEAXI@Z 00000001400639f4 f i libcpmt:wlocale.obj
 0001:000629f4       ??_G?$collate@_W@std@@MEAAPEAXI@Z 00000001400639f4 f i libcpmt:wlocale.obj
 0001:00062a40       ??_E?$ctype@G@std@@MEAAPEAXI@Z 0000000140063a40 f i libcpmt:wlocale.obj
 0001:00062a40       ??_G?$ctype@G@std@@MEAAPEAXI@Z 0000000140063a40 f i libcpmt:wlocale.obj
 0001:00062a9c       ??_E?$ctype@_W@std@@MEAAPEAXI@Z 0000000140063a9c f i libcpmt:wlocale.obj
 0001:00062a9c       ??_G?$ctype@_W@std@@MEAAPEAXI@Z 0000000140063a9c f i libcpmt:wlocale.obj
 0001:00062af8       ??_E?$numpunct@G@std@@MEAAPEAXI@Z 0000000140063af8 f i libcpmt:wlocale.obj
 0001:00062af8       ??_G?$numpunct@G@std@@MEAAPEAXI@Z 0000000140063af8 f i libcpmt:wlocale.obj
 0001:00062b58       ??_E?$numpunct@_W@std@@MEAAPEAXI@Z 0000000140063b58 f i libcpmt:wlocale.obj
 0001:00062b58       ??_G?$numpunct@_W@std@@MEAAPEAXI@Z 0000000140063b58 f i libcpmt:wlocale.obj
 0001:00062bb8       ??_E?$time_get@GV?$istreambuf_iterator@GU?$char_traits@G@std@@@std@@@std@@MEAAPEAXI@Z 0000000140063bb8 f i libcpmt:wlocale.obj
 0001:00062bb8       ??_G?$time_get@GV?$istreambuf_iterator@GU?$char_traits@G@std@@@std@@@std@@MEAAPEAXI@Z 0000000140063bb8 f i libcpmt:wlocale.obj
 0001:00062c18       ??_E?$time_get@_WV?$istreambuf_iterator@_WU?$char_traits@_W@std@@@std@@@std@@MEAAPEAXI@Z 0000000140063c18 f i libcpmt:wlocale.obj
 0001:00062c18       ??_G?$time_get@_WV?$istreambuf_iterator@_WU?$char_traits@_W@std@@@std@@@std@@MEAAPEAXI@Z 0000000140063c18 f i libcpmt:wlocale.obj
 0001:00062c78       ??_E?$time_put@GV?$ostreambuf_iterator@GU?$char_traits@G@std@@@std@@@std@@MEAAPEAXI@Z 0000000140063c78 f i libcpmt:wlocale.obj
 0001:00062c78       ??_G?$time_put@GV?$ostreambuf_iterator@GU?$char_traits@G@std@@@std@@@std@@MEAAPEAXI@Z 0000000140063c78 f i libcpmt:wlocale.obj
 0001:00062cc4       ??_E?$time_put@_WV?$ostreambuf_iterator@_WU?$char_traits@_W@std@@@std@@@std@@MEAAPEAXI@Z 0000000140063cc4 f i libcpmt:wlocale.obj
 0001:00062cc4       ??_G?$time_put@_WV?$ostreambuf_iterator@_WU?$char_traits@_W@std@@@std@@@std@@MEAAPEAXI@Z 0000000140063cc4 f i libcpmt:wlocale.obj
 0001:00062d10       ?_Eos@?$basic_string@GU?$char_traits@G@std@@V?$allocator@G@2@@std@@AEAAX_K@Z 0000000140063d10 f i libcpmt:wlocale.obj
 0001:00062da4       ?_Ffmt@?$num_put@GV?$ostreambuf_iterator@GU?$char_traits@G@std@@@std@@@std@@AEBAPEADPEADDH@Z 0000000140063da4 f i libcpmt:wlocale.obj
 0001:00062da4       ?_Ffmt@?$num_put@_WV?$ostreambuf_iterator@_WU?$char_traits@_W@std@@@std@@@std@@AEBAPEADPEADDH@Z 0000000140063da4 f i libcpmt:wlocale.obj
 0001:00062e38       ?_Getcat@?$codecvt@GDU_Mbstatet@@@std@@SA_KPEAPEBVfacet@locale@2@PEBV42@@Z 0000000140063e38 f i libcpmt:wlocale.obj
 0001:00062f24       ?_Getcat@?$codecvt@_WDU_Mbstatet@@@std@@SA_KPEAPEBVfacet@locale@2@PEBV42@@Z 0000000140063f24 f i libcpmt:wlocale.obj
 0001:00063010       ?_Getcat@?$collate@G@std@@SA_KPEAPEBVfacet@locale@2@PEBV42@@Z 0000000140064010 f i libcpmt:wlocale.obj
 0001:00063110       ?_Getcat@?$collate@_W@std@@SA_KPEAPEBVfacet@locale@2@PEBV42@@Z 0000000140064110 f i libcpmt:wlocale.obj
 0001:00063210       ?_Getcat@?$ctype@G@std@@SA_KPEAPEBVfacet@locale@2@PEBV42@@Z 0000000140064210 f i libcpmt:wlocale.obj
 0001:00063318       ?_Getcat@?$ctype@_W@std@@SA_KPEAPEBVfacet@locale@2@PEBV42@@Z 0000000140064318 f i libcpmt:wlocale.obj
 0001:00063420       ?_Getcat@?$messages@G@std@@SA_KPEAPEBVfacet@locale@2@PEBV42@@Z 0000000140064420 f i libcpmt:wlocale.obj
 0001:000634dc       ?_Getcat@?$messages@_W@std@@SA_KPEAPEBVfacet@locale@2@PEBV42@@Z 00000001400644dc f i libcpmt:wlocale.obj
 0001:00063598       ?_Getcat@?$money_get@GV?$istreambuf_iterator@GU?$char_traits@G@std@@@std@@@std@@SA_KPEAPEBVfacet@locale@2@PEBV42@@Z 0000000140064598 f i libcpmt:wlocale.obj
 0001:00063654       ?_Getcat@?$money_get@_WV?$istreambuf_iterator@_WU?$char_traits@_W@std@@@std@@@std@@SA_KPEAPEBVfacet@locale@2@PEBV42@@Z 0000000140064654 f i libcpmt:wlocale.obj
 0001:00063710       ?_Getcat@?$money_put@GV?$ostreambuf_iterator@GU?$char_traits@G@std@@@std@@@std@@SA_KPEAPEBVfacet@locale@2@PEBV42@@Z 0000000140064710 f i libcpmt:wlocale.obj
 0001:000637cc       ?_Getcat@?$money_put@_WV?$ostreambuf_iterator@_WU?$char_traits@_W@std@@@std@@@std@@SA_KPEAPEBVfacet@locale@2@PEBV42@@Z 00000001400647cc f i libcpmt:wlocale.obj
 0001:00063888       ?_Getcat@?$moneypunct@G$00@std@@SA_KPEAPEBVfacet@locale@2@PEBV42@@Z 0000000140064888 f i libcpmt:wlocale.obj
 0001:00063960       ?_Getcat@?$moneypunct@G$0A@@std@@SA_KPEAPEBVfacet@locale@2@PEBV42@@Z 0000000140064960 f i libcpmt:wlocale.obj
 0001:00063a38       ?_Getcat@?$moneypunct@_W$00@std@@SA_KPEAPEBVfacet@locale@2@PEBV42@@Z 0000000140064a38 f i libcpmt:wlocale.obj
 0001:00063b10       ?_Getcat@?$moneypunct@_W$0A@@std@@SA_KPEAPEBVfacet@locale@2@PEBV42@@Z 0000000140064b10 f i libcpmt:wlocale.obj
 0001:00063be8       ?_Getcat@?$num_get@GV?$istreambuf_iterator@GU?$char_traits@G@std@@@std@@@std@@SA_KPEAPEBVfacet@locale@2@PEBV42@@Z 0000000140064be8 f i libcpmt:wlocale.obj
 0001:00063ca4       ?_Getcat@?$num_get@_WV?$istreambuf_iterator@_WU?$char_traits@_W@std@@@std@@@std@@SA_KPEAPEBVfacet@locale@2@PEBV42@@Z 0000000140064ca4 f i libcpmt:wlocale.obj
 0001:00063d60       ?_Getcat@?$num_put@GV?$ostreambuf_iterator@GU?$char_traits@G@std@@@std@@@std@@SA_KPEAPEBVfacet@locale@2@PEBV42@@Z 0000000140064d60 f i libcpmt:wlocale.obj
 0001:00063e1c       ?_Getcat@?$num_put@_WV?$ostreambuf_iterator@_WU?$char_traits@_W@std@@@std@@@std@@SA_KPEAPEBVfacet@locale@2@PEBV42@@Z 0000000140064e1c f i libcpmt:wlocale.obj
 0001:00063ed8       ?_Getcat@?$numpunct@G@std@@SA_KPEAPEBVfacet@locale@2@PEBV42@@Z 0000000140064ed8 f i libcpmt:wlocale.obj
 0001:00063fa0       ?_Getcat@?$numpunct@_W@std@@SA_KPEAPEBVfacet@locale@2@PEBV42@@Z 0000000140064fa0 f i libcpmt:wlocale.obj
 0001:00064068       ?_Getcat@?$time_get@GV?$istreambuf_iterator@GU?$char_traits@G@std@@@std@@@std@@SA_KPEAPEBVfacet@locale@2@PEBV42@@Z 0000000140065068 f i libcpmt:wlocale.obj
 0001:00064150       ?_Getcat@?$time_get@_WV?$istreambuf_iterator@_WU?$char_traits@_W@std@@@std@@@std@@SA_KPEAPEBVfacet@locale@2@PEBV42@@Z 0000000140065150 f i libcpmt:wlocale.obj
 0001:00064238       ?_Getcat@?$time_put@GV?$ostreambuf_iterator@GU?$char_traits@G@std@@@std@@@std@@SA_KPEAPEBVfacet@locale@2@PEBV42@@Z 0000000140065238 f i libcpmt:wlocale.obj
 0001:00064328       ?_Getcat@?$time_put@_WV?$ostreambuf_iterator@_WU?$char_traits@_W@std@@@std@@@std@@SA_KPEAPEBVfacet@locale@2@PEBV42@@Z 0000000140065328 f i libcpmt:wlocale.obj
 0001:00064418       ?_Getfmt@?$time_get@GV?$istreambuf_iterator@GU?$char_traits@G@std@@@std@@@std@@IEBA?AV?$istreambuf_iterator@GU?$char_traits@G@std@@@2@V32@0AEAVios_base@2@AEAHPEAUtm@@PEBD@Z 0000000140065418 f i libcpmt:wlocale.obj
 0001:0006475c       ?_Getfmt@?$time_get@_WV?$istreambuf_iterator@_WU?$char_traits@_W@std@@@std@@@std@@IEBA?AV?$istreambuf_iterator@_WU?$char_traits@_W@std@@@2@V32@0AEAVios_base@2@AEAHPEAUtm@@PEBD@Z 000000014006575c f i libcpmt:wlocale.obj
 0001:00064aa0       ?_Getmfld@?$money_get@GV?$istreambuf_iterator@GU?$char_traits@G@std@@@std@@@std@@AEBA?AV?$basic_string@DU?$char_traits@D@std@@V?$allocator@D@2@@2@AEAV?$istreambuf_iterator@GU?$char_traits@G@std@@@2@0_NAEAVios_base@2@AEAY0M@G@Z 0000000140065aa0 f i libcpmt:wlocale.obj
 0001:00065c80       ?_Getmfld@?$money_get@_WV?$istreambuf_iterator@_WU?$char_traits@_W@std@@@std@@@std@@AEBA?AV?$basic_string@DU?$char_traits@D@std@@V?$allocator@D@2@@2@AEAV?$istreambuf_iterator@_WU?$char_traits@_W@std@@@2@0_NAEAVios_base@2@AEAY0M@_W@Z 0000000140066c80 f i libcpmt:wlocale.obj
 0001:00066e60       ?_Getvals@?$_Mpunct@_W@std@@IEAAX_WPEBUlconv@@@Z 0000000140067e60 f i libcpmt:wlocale.obj
 0001:00066ee8       ?_Inc@?$istreambuf_iterator@GU?$char_traits@G@std@@@std@@AEAAXXZ 0000000140067ee8 f i libcpmt:wlocale.obj
 0001:00066ee8       ?_Inc@?$istreambuf_iterator@_WU?$char_traits@_W@std@@@std@@AEAAXXZ 0000000140067ee8 f i libcpmt:wlocale.obj
 0001:00066f50       ?_Init@?$_Mpunct@G@std@@IEAAXAEBV_Locinfo@2@_N@Z 0000000140067f50 f i libcpmt:wlocale.obj
 0001:00067098       ?_Init@?$_Mpunct@_W@std@@IEAAXAEBV_Locinfo@2@_N@Z 0000000140068098 f i libcpmt:wlocale.obj
 0001:000671e0       ?_Init@?$numpunct@G@std@@IEAAXAEBV_Locinfo@2@_N@Z 00000001400681e0 f i libcpmt:wlocale.obj
 0001:0006736c       ?_Init@?$numpunct@_W@std@@IEAAXAEBV_Locinfo@2@_N@Z 000000014006836c f i libcpmt:wlocale.obj
 0001:000674dc       ?_Iput@?$num_put@GV?$ostreambuf_iterator@GU?$char_traits@G@std@@@std@@@std@@AEBA?AV?$ostreambuf_iterator@GU?$char_traits@G@std@@@2@V32@AEAVios_base@2@GPEAD_K@Z 00000001400684dc f i libcpmt:wlocale.obj
 0001:000678e8       ?_Iput@?$num_put@_WV?$ostreambuf_iterator@_WU?$char_traits@_W@std@@@std@@@std@@AEBA?AV?$ostreambuf_iterator@_WU?$char_traits@_W@std@@@2@V32@AEAVios_base@2@_WPEAD_K@Z 00000001400688e8 f i libcpmt:wlocale.obj
 0001:00067cf4       ?_Makeushloc@_Locimp@locale@std@@CAXAEBV_Locinfo@3@HPEAV123@PEBV23@@Z 0000000140068cf4 f   libcpmt:wlocale.obj
 0001:00068998       ?_Makewloc@_Locimp@locale@std@@CAXAEBV_Locinfo@3@HPEAV123@PEBV23@@Z 0000000140069998 f   libcpmt:wlocale.obj
 0001:0006963c       ?_Put@?$money_put@GV?$ostreambuf_iterator@GU?$char_traits@G@std@@@std@@@std@@CA?AV?$ostreambuf_iterator@GU?$char_traits@G@std@@@2@V32@V?$_String_const_iterator@V?$_String_val@U?$_Simple_types@G@std@@@std@@@2@_K@Z 000000014006a63c f i libcpmt:wlocale.obj
 0001:0006963c       ?_Put@?$money_put@_WV?$ostreambuf_iterator@_WU?$char_traits@_W@std@@@std@@@std@@CA?AV?$ostreambuf_iterator@_WU?$char_traits@_W@std@@@2@V32@V?$_String_const_iterator@V?$_String_val@U?$_Simple_types@_W@std@@@std@@@2@_K@Z 000000014006a63c f i libcpmt:wlocale.obj
 0001:000696f4       ?_Put@?$num_put@GV?$ostreambuf_iterator@GU?$char_traits@G@std@@@std@@@std@@AEBA?AV?$ostreambuf_iterator@GU?$char_traits@G@std@@@2@V32@PEBG_K@Z 000000014006a6f4 f i libcpmt:wlocale.obj
 0001:000696f4       ?_Put@?$num_put@_WV?$ostreambuf_iterator@_WU?$char_traits@_W@std@@@std@@@std@@AEBA?AV?$ostreambuf_iterator@_WU?$char_traits@_W@std@@@2@V32@PEB_W_K@Z 000000014006a6f4 f i libcpmt:wlocale.obj
 0001:000697ac       ?_Putmfld@?$money_put@GV?$ostreambuf_iterator@GU?$char_traits@G@std@@@std@@@std@@AEBA?AV?$ostreambuf_iterator@GU?$char_traits@G@std@@@2@V32@_NAEAVios_base@2@G1V?$basic_string@GU?$char_traits@G@std@@V?$allocator@G@2@@2@G@Z 000000014006a7ac f i libcpmt:wlocale.obj
 0001:00069ee0       ?_Putmfld@?$money_put@_WV?$ostreambuf_iterator@_WU?$char_traits@_W@std@@@std@@@std@@AEBA?AV?$ostreambuf_iterator@_WU?$char_traits@_W@std@@@2@V32@_NAEAVios_base@2@_W1V?$basic_string@_WU?$char_traits@_W@std@@V?$allocator@_W@2@@2@3@Z 000000014006aee0 f i libcpmt:wlocale.obj
 0001:0006a614       ?_Rep@?$money_put@GV?$ostreambuf_iterator@GU?$char_traits@G@std@@@std@@@std@@CA?AV?$ostreambuf_iterator@GU?$char_traits@G@std@@@2@V32@G_K@Z 000000014006b614 f i libcpmt:wlocale.obj
 0001:0006a614       ?_Rep@?$money_put@_WV?$ostreambuf_iterator@_WU?$char_traits@_W@std@@@std@@@std@@CA?AV?$ostreambuf_iterator@_WU?$char_traits@_W@std@@@2@V32@_W_K@Z 000000014006b614 f i libcpmt:wlocale.obj
 0001:0006a6c4       ?_Rep@?$num_put@GV?$ostreambuf_iterator@GU?$char_traits@G@std@@@std@@@std@@AEBA?AV?$ostreambuf_iterator@GU?$char_traits@G@std@@@2@V32@G_K@Z 000000014006b6c4 f i libcpmt:wlocale.obj
 0001:0006a6c4       ?_Rep@?$num_put@_WV?$ostreambuf_iterator@_WU?$char_traits@_W@std@@@std@@@std@@AEBA?AV?$ostreambuf_iterator@_WU?$char_traits@_W@std@@@2@V32@_W_K@Z 000000014006b6c4 f i libcpmt:wlocale.obj
 0001:0006a774       ?_Tidy_deallocate@?$basic_string@GU?$char_traits@G@std@@V?$allocator@G@2@@std@@AEAAXXZ 000000014006b774 f i libcpmt:wlocale.obj
 0001:0006a858       ?append@?$basic_string@GU?$char_traits@G@std@@V?$allocator@G@2@@std@@QEAAAEAV12@QEBG_K@Z 000000014006b858 f i libcpmt:wlocale.obj
 0001:0006a948       ?append@?$basic_string@GU?$char_traits@G@std@@V?$allocator@G@2@@std@@QEAAAEAV12@_KG@Z 000000014006b948 f i libcpmt:wlocale.obj
 0001:0006aa38       ?do_compare@?$collate@G@std@@MEBAHPEBG000@Z 000000014006ba38 f i libcpmt:wlocale.obj
 0001:0006aa7c       ?do_compare@?$collate@_W@std@@MEBAHPEB_W000@Z 000000014006ba7c f i libcpmt:wlocale.obj
 0001:0006aac0       ?do_curr_symbol@?$_Mpunct@G@std@@MEBA?AV?$basic_string@GU?$char_traits@G@std@@V?$allocator@G@2@@2@XZ 000000014006bac0 f i libcpmt:wlocale.obj
 0001:0006aac0       ?do_falsename@?$numpunct@G@std@@MEBA?AV?$basic_string@GU?$char_traits@G@std@@V?$allocator@G@2@@2@XZ 000000014006bac0 f i libcpmt:wlocale.obj
 0001:0006ab08       ?do_curr_symbol@?$_Mpunct@_W@std@@MEBA?AV?$basic_string@_WU?$char_traits@_W@std@@V?$allocator@_W@2@@2@XZ 000000014006bb08 f i libcpmt:wlocale.obj
 0001:0006ab08       ?do_falsename@?$numpunct@_W@std@@MEBA?AV?$basic_string@_WU?$char_traits@_W@std@@V?$allocator@_W@2@@2@XZ 000000014006bb08 f i libcpmt:wlocale.obj
 0001:0006ab44       ?do_decimal_point@?$_Mpunct@G@std@@MEBAGXZ 000000014006bb44 f i libcpmt:wlocale.obj
 0001:0006ab44       ?do_decimal_point@?$_Mpunct@_W@std@@MEBA_WXZ 000000014006bb44 f i libcpmt:wlocale.obj
 0001:0006ab44       ?do_decimal_point@?$numpunct@G@std@@MEBAGXZ 000000014006bb44 f i libcpmt:wlocale.obj
 0001:0006ab44       ?do_decimal_point@?$numpunct@_W@std@@MEBA_WXZ 000000014006bb44 f i libcpmt:wlocale.obj
 0001:0006ab4c       ?do_encoding@?$codecvt@GDU_Mbstatet@@@std@@MEBAHXZ 000000014006bb4c f i libcpmt:wlocale.obj
 0001:0006ab4c       ?do_encoding@?$codecvt@_WDU_Mbstatet@@@std@@MEBAHXZ 000000014006bb4c f i libcpmt:wlocale.obj
 0001:0006ab58       ?do_frac_digits@?$_Mpunct@D@std@@MEBAHXZ 000000014006bb58 f i libcpmt:xlocale.obj
 0001:0006ab58       ?do_frac_digits@?$_Mpunct@G@std@@MEBAHXZ 000000014006bb58 f i libcpmt:wlocale.obj
 0001:0006ab58       ?do_frac_digits@?$_Mpunct@_W@std@@MEBAHXZ 000000014006bb58 f i libcpmt:wlocale.obj
 0001:0006ab5c       ?do_get@?$messages@G@std@@MEBA?AV?$basic_string@GU?$char_traits@G@std@@V?$allocator@G@2@@2@HHHAEBV32@@Z 000000014006bb5c f i libcpmt:wlocale.obj
 0001:0006ab9c       ?do_get@?$messages@_W@std@@MEBA?AV?$basic_string@_WU?$char_traits@_W@std@@V?$allocator@_W@2@@2@HHHAEBV32@@Z 000000014006bb9c f i libcpmt:wlocale.obj
 0001:0006abdc       ?do_get@?$money_get@GV?$istreambuf_iterator@GU?$char_traits@G@std@@@std@@@std@@MEBA?AV?$istreambuf_iterator@GU?$char_traits@G@std@@@2@V32@0_NAEAVios_base@2@AEAHAEAO@Z 000000014006bbdc f i libcpmt:wlocale.obj
 0001:0006ace0       ?do_get@?$money_get@GV?$istreambuf_iterator@GU?$char_traits@G@std@@@std@@@std@@MEBA?AV?$istreambuf_iterator@GU?$char_traits@G@std@@@2@V32@0_NAEAVios_base@2@AEAHAEAV?$basic_string@GU?$char_traits@G@std@@V?$allocator@G@2@@2@@Z 000000014006bce0 f i libcpmt:wlocale.obj
 0001:0006ae10       ?do_get@?$money_get@_WV?$istreambuf_iterator@_WU?$char_traits@_W@std@@@std@@@std@@MEBA?AV?$istreambuf_iterator@_WU?$char_traits@_W@std@@@2@V32@0_NAEAVios_base@2@AEAHAEAO@Z 000000014006be10 f i libcpmt:wlocale.obj
 0001:0006af14       ?do_get@?$money_get@_WV?$istreambuf_iterator@_WU?$char_traits@_W@std@@@std@@@std@@MEBA?AV?$istreambuf_iterator@_WU?$char_traits@_W@std@@@2@V32@0_NAEAVios_base@2@AEAHAEAV?$basic_string@_WU?$char_traits@_W@std@@V?$allocator@_W@2@@2@@Z 000000014006bf14 f i libcpmt:wlocale.obj
 0001:0006b044       ?do_get@?$num_get@GV?$istreambuf_iterator@GU?$char_traits@G@std@@@std@@@std@@MEBA?AV?$istreambuf_iterator@GU?$char_traits@G@std@@@2@V32@0AEAVios_base@2@AEAHAEAG@Z 000000014006c044 f i libcpmt:wlocale.obj
 0001:0006b1b0       ?do_get@?$num_get@GV?$istreambuf_iterator@GU?$char_traits@G@std@@@std@@@std@@MEBA?AV?$istreambuf_iterator@GU?$char_traits@G@std@@@2@V32@0AEAVios_base@2@AEAHAEAI@Z 000000014006c1b0 f i libcpmt:wlocale.obj
 0001:0006b230       ?do_get@?$num_get@GV?$istreambuf_iterator@GU?$char_traits@G@std@@@std@@@std@@MEBA?AV?$istreambuf_iterator@GU?$char_traits@G@std@@@2@V32@0AEAVios_base@2@AEAHAEAJ@Z 000000014006c230 f i libcpmt:wlocale.obj
 0001:0006b350       ?do_get@?$num_get@GV?$istreambuf_iterator@GU?$char_traits@G@std@@@std@@@std@@MEBA?AV?$istreambuf_iterator@GU?$char_traits@G@std@@@2@V32@0AEAVios_base@2@AEAHAEAK@Z 000000014006c350 f i libcpmt:wlocale.obj
 0001:0006b470       ?do_get@?$num_get@GV?$istreambuf_iterator@GU?$char_traits@G@std@@@std@@@std@@MEBA?AV?$istreambuf_iterator@GU?$char_traits@G@std@@@2@V32@0AEAVios_base@2@AEAHAEAM@Z 000000014006c470 f i libcpmt:wlocale.obj
 0001:0006b5b8       ?do_get@?$num_get@GV?$istreambuf_iterator@GU?$char_traits@G@std@@@std@@@std@@MEBA?AV?$istreambuf_iterator@GU?$char_traits@G@std@@@2@V32@0AEAVios_base@2@AEAHAEAN@Z 000000014006c5b8 f i libcpmt:wlocale.obj
 0001:0006b700       ?do_get@?$num_get@GV?$istreambuf_iterator@GU?$char_traits@G@std@@@std@@@std@@MEBA?AV?$istreambuf_iterator@GU?$char_traits@G@std@@@2@V32@0AEAVios_base@2@AEAHAEAO@Z 000000014006c700 f i libcpmt:wlocale.obj
 0001:0006b784       ?do_get@?$num_get@GV?$istreambuf_iterator@GU?$char_traits@G@std@@@std@@@std@@MEBA?AV?$istreambuf_iterator@GU?$char_traits@G@std@@@2@V32@0AEAVios_base@2@AEAHAEAPEAX@Z 000000014006c784 f i libcpmt:wlocale.obj
 0001:0006b8cc       ?do_get@?$num_get@GV?$istreambuf_iterator@GU?$char_traits@G@std@@@std@@@std@@MEBA?AV?$istreambuf_iterator@GU?$char_traits@G@std@@@2@V32@0AEAVios_base@2@AEAHAEA_J@Z 000000014006c8cc f i libcpmt:wlocale.obj
 0001:0006b9ec       ?do_get@?$num_get@GV?$istreambuf_iterator@GU?$char_traits@G@std@@@std@@@std@@MEBA?AV?$istreambuf_iterator@GU?$char_traits@G@std@@@2@V32@0AEAVios_base@2@AEAHAEA_K@Z 000000014006c9ec f i libcpmt:wlocale.obj
 0001:0006bb0c       ?do_get@?$num_get@GV?$istreambuf_iterator@GU?$char_traits@G@std@@@std@@@std@@MEBA?AV?$istreambuf_iterator@GU?$char_traits@G@std@@@2@V32@0AEAVios_base@2@AEAHAEA_N@Z 000000014006cb0c f i libcpmt:wlocale.obj
 0001:0006be24       ?do_get@?$num_get@_WV?$istreambuf_iterator@_WU?$char_traits@_W@std@@@std@@@std@@MEBA?AV?$istreambuf_iterator@_WU?$char_traits@_W@std@@@2@V32@0AEAVios_base@2@AEAHAEAG@Z 000000014006ce24 f i libcpmt:wlocale.obj
 0001:0006bf90       ?do_get@?$num_get@_WV?$istreambuf_iterator@_WU?$char_traits@_W@std@@@std@@@std@@MEBA?AV?$istreambuf_iterator@_WU?$char_traits@_W@std@@@2@V32@0AEAVios_base@2@AEAHAEAI@Z 000000014006cf90 f i libcpmt:wlocale.obj
 0001:0006c010       ?do_get@?$num_get@_WV?$istreambuf_iterator@_WU?$char_traits@_W@std@@@std@@@std@@MEBA?AV?$istreambuf_iterator@_WU?$char_traits@_W@std@@@2@V32@0AEAVios_base@2@AEAHAEAJ@Z 000000014006d010 f i libcpmt:wlocale.obj
 0001:0006c130       ?do_get@?$num_get@_WV?$istreambuf_iterator@_WU?$char_traits@_W@std@@@std@@@std@@MEBA?AV?$istreambuf_iterator@_WU?$char_traits@_W@std@@@2@V32@0AEAVios_base@2@AEAHAEAK@Z 000000014006d130 f i libcpmt:wlocale.obj
 0001:0006c250       ?do_get@?$num_get@_WV?$istreambuf_iterator@_WU?$char_traits@_W@std@@@std@@@std@@MEBA?AV?$istreambuf_iterator@_WU?$char_traits@_W@std@@@2@V32@0AEAVios_base@2@AEAHAEAM@Z 000000014006d250 f i libcpmt:wlocale.obj
 0001:0006c398       ?do_get@?$num_get@_WV?$istreambuf_iterator@_WU?$char_traits@_W@std@@@std@@@std@@MEBA?AV?$istreambuf_iterator@_WU?$char_traits@_W@std@@@2@V32@0AEAVios_base@2@AEAHAEAN@Z 000000014006d398 f i libcpmt:wlocale.obj
 0001:0006c4e0       ?do_get@?$num_get@_WV?$istreambuf_iterator@_WU?$char_traits@_W@std@@@std@@@std@@MEBA?AV?$istreambuf_iterator@_WU?$char_traits@_W@std@@@2@V32@0AEAVios_base@2@AEAHAEAO@Z 000000014006d4e0 f i libcpmt:wlocale.obj
 0001:0006c564       ?do_get@?$num_get@_WV?$istreambuf_iterator@_WU?$char_traits@_W@std@@@std@@@std@@MEBA?AV?$istreambuf_iterator@_WU?$char_traits@_W@std@@@2@V32@0AEAVios_base@2@AEAHAEAPEAX@Z 000000014006d564 f i libcpmt:wlocale.obj
 0001:0006c6ac       ?do_get@?$num_get@_WV?$istreambuf_iterator@_WU?$char_traits@_W@std@@@std@@@std@@MEBA?AV?$istreambuf_iterator@_WU?$char_traits@_W@std@@@2@V32@0AEAVios_base@2@AEAHAEA_J@Z 000000014006d6ac f i libcpmt:wlocale.obj
 0001:0006c7cc       ?do_get@?$num_get@_WV?$istreambuf_iterator@_WU?$char_traits@_W@std@@@std@@@std@@MEBA?AV?$istreambuf_iterator@_WU?$char_traits@_W@std@@@2@V32@0AEAVios_base@2@AEAHAEA_K@Z 000000014006d7cc f i libcpmt:wlocale.obj
 0001:0006c8ec       ?do_get@?$num_get@_WV?$istreambuf_iterator@_WU?$char_traits@_W@std@@@std@@@std@@MEBA?AV?$istreambuf_iterator@_WU?$char_traits@_W@std@@@2@V32@0AEAVios_base@2@AEAHAEA_N@Z 000000014006d8ec f i libcpmt:wlocale.obj
 0001:0006cc04       ?do_get@?$time_get@GV?$istreambuf_iterator@GU?$char_traits@G@std@@@std@@@std@@MEBA?AV?$istreambuf_iterator@GU?$char_traits@G@std@@@2@V32@0AEAVios_base@2@AEAHPEAUtm@@DD@Z 000000014006dc04 f i libcpmt:wlocale.obj
 0001:0006d180       ?do_get@?$time_get@_WV?$istreambuf_iterator@_WU?$char_traits@_W@std@@@std@@@std@@MEBA?AV?$istreambuf_iterator@_WU?$char_traits@_W@std@@@2@V32@0AEAVios_base@2@AEAHPEAUtm@@DD@Z 000000014006e180 f i libcpmt:wlocale.obj
 0001:0006d6fc       ?do_get_date@?$time_get@GV?$istreambuf_iterator@GU?$char_traits@G@std@@@std@@@std@@MEBA?AV?$istreambuf_iterator@GU?$char_traits@G@std@@@2@V32@0AEAVios_base@2@AEAHPEAUtm@@@Z 000000014006e6fc f i libcpmt:wlocale.obj
 0001:0006e174       ?do_get_date@?$time_get@_WV?$istreambuf_iterator@_WU?$char_traits@_W@std@@@std@@@std@@MEBA?AV?$istreambuf_iterator@_WU?$char_traits@_W@std@@@2@V32@0AEAVios_base@2@AEAHPEAUtm@@@Z 000000014006f174 f i libcpmt:wlocale.obj
 0001:0006ebec       ?do_get_monthname@?$time_get@GV?$istreambuf_iterator@GU?$char_traits@G@std@@@std@@@std@@MEBA?AV?$istreambuf_iterator@GU?$char_traits@G@std@@@2@V32@0AEAVios_base@2@AEAHPEAUtm@@@Z 000000014006fbec f i libcpmt:wlocale.obj
 0001:0006ec48       ?do_get_monthname@?$time_get@_WV?$istreambuf_iterator@_WU?$char_traits@_W@std@@@std@@@std@@MEBA?AV?$istreambuf_iterator@_WU?$char_traits@_W@std@@@2@V32@0AEAVios_base@2@AEAHPEAUtm@@@Z 000000014006fc48 f i libcpmt:wlocale.obj
 0001:0006eca4       ?do_get_time@?$time_get@GV?$istreambuf_iterator@GU?$char_traits@G@std@@@std@@@std@@MEBA?AV?$istreambuf_iterator@GU?$char_traits@G@std@@@2@V32@0AEAVios_base@2@AEAHPEAUtm@@@Z 000000014006fca4 f i libcpmt:wlocale.obj
 0001:0006ef70       ?do_get_time@?$time_get@_WV?$istreambuf_iterator@_WU?$char_traits@_W@std@@@std@@@std@@MEBA?AV?$istreambuf_iterator@_WU?$char_traits@_W@std@@@2@V32@0AEAVios_base@2@AEAHPEAUtm@@@Z 000000014006ff70 f i libcpmt:wlocale.obj
 0001:0006f23c       ?do_get_weekday@?$time_get@GV?$istreambuf_iterator@GU?$char_traits@G@std@@@std@@@std@@MEBA?AV?$istreambuf_iterator@GU?$char_traits@G@std@@@2@V32@0AEAVios_base@2@AEAHPEAUtm@@@Z 000000014007023c f i libcpmt:wlocale.obj
 0001:0006f298       ?do_get_weekday@?$time_get@_WV?$istreambuf_iterator@_WU?$char_traits@_W@std@@@std@@@std@@MEBA?AV?$istreambuf_iterator@_WU?$char_traits@_W@std@@@2@V32@0AEAVios_base@2@AEAHPEAUtm@@@Z 0000000140070298 f i libcpmt:wlocale.obj
 0001:0006f2f4       ?do_get_year@?$time_get@GV?$istreambuf_iterator@GU?$char_traits@G@std@@@std@@@std@@MEBA?AV?$istreambuf_iterator@GU?$char_traits@G@std@@@2@V32@0AEAVios_base@2@AEAHPEAUtm@@@Z 00000001400702f4 f i libcpmt:wlocale.obj
 0001:0006f408       ?do_get_year@?$time_get@_WV?$istreambuf_iterator@_WU?$char_traits@_W@std@@@std@@@std@@MEBA?AV?$istreambuf_iterator@_WU?$char_traits@_W@std@@@2@V32@0AEAVios_base@2@AEAHPEAUtm@@@Z 0000000140070408 f i libcpmt:wlocale.obj
 0001:0006f51c       ?do_grouping@?$_Mpunct@D@std@@MEBA?AV?$basic_string@DU?$char_traits@D@std@@V?$allocator@D@2@@2@XZ 000000014007051c f i libcpmt:xlocale.obj
 0001:0006f51c       ?do_grouping@?$_Mpunct@G@std@@MEBA?AV?$basic_string@DU?$char_traits@D@std@@V?$allocator@D@2@@2@XZ 000000014007051c f i libcpmt:wlocale.obj
 0001:0006f51c       ?do_grouping@?$_Mpunct@_W@std@@MEBA?AV?$basic_string@DU?$char_traits@D@std@@V?$allocator@D@2@@2@XZ 000000014007051c f i libcpmt:wlocale.obj
 0001:0006f51c       ?do_grouping@?$numpunct@G@std@@MEBA?AV?$basic_string@DU?$char_traits@D@std@@V?$allocator@D@2@@2@XZ 000000014007051c f i libcpmt:wlocale.obj
 0001:0006f51c       ?do_grouping@?$numpunct@_W@std@@MEBA?AV?$basic_string@DU?$char_traits@D@std@@V?$allocator@D@2@@2@XZ 000000014007051c f i libcpmt:wlocale.obj
 0001:0006f558       ?do_hash@?$collate@G@std@@MEBAJPEBG0@Z 0000000140070558 f i libcpmt:wlocale.obj
 0001:0006f558       ?do_hash@?$collate@_W@std@@MEBAJPEB_W0@Z 0000000140070558 f i libcpmt:wlocale.obj
 0001:0006f56c       ?do_in@?$codecvt@GDU_Mbstatet@@@std@@MEBAHAEAU_Mbstatet@@PEBD1AEAPEBDPEAG3AEAPEAG@Z 000000014007056c f i libcpmt:wlocale.obj
 0001:0006f56c       ?do_in@?$codecvt@_WDU_Mbstatet@@@std@@MEBAHAEAU_Mbstatet@@PEBD1AEAPEBDPEA_W3AEAPEA_W@Z 000000014007056c f i libcpmt:wlocale.obj
 0001:0006f618       ?do_is@?$ctype@G@std@@MEBAPEBGPEBG0PEAF@Z 0000000140070618 f i libcpmt:wlocale.obj
 0001:0006f618       ?do_is@?$ctype@_W@std@@MEBAPEB_WPEB_W0PEAF@Z 0000000140070618 f i libcpmt:wlocale.obj
 0001:0006f634       ?do_is@?$ctype@G@std@@MEBA_NFG@Z 0000000140070634 f i libcpmt:wlocale.obj
 0001:0006f634       ?do_is@?$ctype@_W@std@@MEBA_NF_W@Z 0000000140070634 f i libcpmt:wlocale.obj
 0001:0006f658       ?do_length@?$codecvt@GDU_Mbstatet@@@std@@MEBAHAEAU_Mbstatet@@PEBD1_K@Z 0000000140070658 f i libcpmt:wlocale.obj
 0001:0006f658       ?do_length@?$codecvt@_WDU_Mbstatet@@@std@@MEBAHAEAU_Mbstatet@@PEBD1_K@Z 0000000140070658 f i libcpmt:wlocale.obj
 0001:0006f6f8       ?do_max_length@?$codecvt@GDU_Mbstatet@@@std@@MEBAHXZ 00000001400706f8 f i libcpmt:wlocale.obj
 0001:0006f6f8       ?do_max_length@?$codecvt@_WDU_Mbstatet@@@std@@MEBAHXZ 00000001400706f8 f i libcpmt:wlocale.obj
 0001:0006f6fc       ?do_narrow@?$ctype@G@std@@MEBADGD@Z 00000001400706fc f i libcpmt:wlocale.obj
 0001:0006f6fc       ?do_narrow@?$ctype@_W@std@@MEBAD_WD@Z 00000001400706fc f i libcpmt:wlocale.obj
 0001:0006f750       ?do_narrow@?$ctype@G@std@@MEBAPEBGPEBG0DPEAD@Z 0000000140070750 f i libcpmt:wlocale.obj
 0001:0006f750       ?do_narrow@?$ctype@_W@std@@MEBAPEB_WPEB_W0DPEAD@Z 0000000140070750 f i libcpmt:wlocale.obj
 0001:0006f7e4       ?do_neg_format@?$_Mpunct@D@std@@MEBA?AUpattern@money_base@2@XZ 00000001400707e4 f i libcpmt:xlocale.obj
 0001:0006f7e4       ?do_neg_format@?$_Mpunct@G@std@@MEBA?AUpattern@money_base@2@XZ 00000001400707e4 f i libcpmt:wlocale.obj
 0001:0006f7e4       ?do_neg_format@?$_Mpunct@_W@std@@MEBA?AUpattern@money_base@2@XZ 00000001400707e4 f i libcpmt:wlocale.obj
 0001:0006f7f0       ?do_negative_sign@?$_Mpunct@G@std@@MEBA?AV?$basic_string@GU?$char_traits@G@std@@V?$allocator@G@2@@2@XZ 00000001400707f0 f i libcpmt:wlocale.obj
 0001:0006f838       ?do_negative_sign@?$_Mpunct@_W@std@@MEBA?AV?$basic_string@_WU?$char_traits@_W@std@@V?$allocator@_W@2@@2@XZ 0000000140070838 f i libcpmt:wlocale.obj
 0001:0006f874       ?do_open@?$messages@D@std@@MEBAHAEBV?$basic_string@DU?$char_traits@D@std@@V?$allocator@D@2@@2@AEBVlocale@2@@Z 0000000140070874 f i libcpmt:xlocale.obj
 0001:0006f874       ?do_open@?$messages@G@std@@MEBAHAEBV?$basic_string@DU?$char_traits@D@std@@V?$allocator@D@2@@2@AEBVlocale@2@@Z 0000000140070874 f i libcpmt:wlocale.obj
 0001:0006f874       ?do_open@?$messages@_W@std@@MEBAHAEBV?$basic_string@DU?$char_traits@D@std@@V?$allocator@D@2@@2@AEBVlocale@2@@Z 0000000140070874 f i libcpmt:wlocale.obj
 0001:0006f878       ?do_out@?$codecvt@GDU_Mbstatet@@@std@@MEBAHAEAU_Mbstatet@@PEBG1AEAPEBGPEAD3AEAPEAD@Z 0000000140070878 f i libcpmt:wlocale.obj
 0001:0006f878       ?do_out@?$codecvt@_WDU_Mbstatet@@@std@@MEBAHAEAU_Mbstatet@@PEB_W1AEAPEB_WPEAD3AEAPEAD@Z 0000000140070878 f i libcpmt:wlocale.obj
 0001:0006f9b8       ?do_pos_format@?$_Mpunct@D@std@@MEBA?AUpattern@money_base@2@XZ 00000001400709b8 f i libcpmt:xlocale.obj
 0001:0006f9b8       ?do_pos_format@?$_Mpunct@G@std@@MEBA?AUpattern@money_base@2@XZ 00000001400709b8 f i libcpmt:wlocale.obj
 0001:0006f9b8       ?do_pos_format@?$_Mpunct@_W@std@@MEBA?AUpattern@money_base@2@XZ 00000001400709b8 f i libcpmt:wlocale.obj
 0001:0006f9c4       ?do_positive_sign@?$_Mpunct@G@std@@MEBA?AV?$basic_string@GU?$char_traits@G@std@@V?$allocator@G@2@@2@XZ 00000001400709c4 f i libcpmt:wlocale.obj
 0001:0006f9c4       ?do_truename@?$numpunct@G@std@@MEBA?AV?$basic_string@GU?$char_traits@G@std@@V?$allocator@G@2@@2@XZ 00000001400709c4 f i libcpmt:wlocale.obj
 0001:0006fa0c       ?do_positive_sign@?$_Mpunct@_W@std@@MEBA?AV?$basic_string@_WU?$char_traits@_W@std@@V?$allocator@_W@2@@2@XZ 0000000140070a0c f i libcpmt:wlocale.obj
 0001:0006fa0c       ?do_truename@?$numpunct@_W@std@@MEBA?AV?$basic_string@_WU?$char_traits@_W@std@@V?$allocator@_W@2@@2@XZ 0000000140070a0c f i libcpmt:wlocale.obj
 0001:0006fa48       ?do_put@?$money_put@GV?$ostreambuf_iterator@GU?$char_traits@G@std@@@std@@@std@@MEBA?AV?$ostreambuf_iterator@GU?$char_traits@G@std@@@2@V32@_NAEAVios_base@2@GAEBV?$basic_string@GU?$char_traits@G@std@@V?$allocator@G@2@@2@@Z 0000000140070a48 f i libcpmt:wlocale.obj
 0001:0006fdf0       ?do_put@?$money_put@GV?$ostreambuf_iterator@GU?$char_traits@G@std@@@std@@@std@@MEBA?AV?$ostreambuf_iterator@GU?$char_traits@G@std@@@2@V32@_NAEAVios_base@2@GO@Z 0000000140070df0 f i libcpmt:wlocale.obj
 0001:000701b4       ?do_put@?$money_put@_WV?$ostreambuf_iterator@_WU?$char_traits@_W@std@@@std@@@std@@MEBA?AV?$ostreambuf_iterator@_WU?$char_traits@_W@std@@@2@V32@_NAEAVios_base@2@_WAEBV?$basic_string@_WU?$char_traits@_W@std@@V?$allocator@_W@2@@2@@Z 00000001400711b4 f i libcpmt:wlocale.obj
 0001:0007055c       ?do_put@?$money_put@_WV?$ostreambuf_iterator@_WU?$char_traits@_W@std@@@std@@@std@@MEBA?AV?$ostreambuf_iterator@_WU?$char_traits@_W@std@@@2@V32@_NAEAVios_base@2@_WO@Z 000000014007155c f i libcpmt:wlocale.obj
 0001:00070920       ?do_put@?$num_put@GV?$ostreambuf_iterator@GU?$char_traits@G@std@@@std@@@std@@MEBA?AV?$ostreambuf_iterator@GU?$char_traits@G@std@@@2@V32@AEAVios_base@2@GJ@Z 0000000140071920 f i libcpmt:wlocale.obj
 0001:00070a24       ?do_put@?$num_put@GV?$ostreambuf_iterator@GU?$char_traits@G@std@@@std@@@std@@MEBA?AV?$ostreambuf_iterator@GU?$char_traits@G@std@@@2@V32@AEAVios_base@2@GK@Z 0000000140071a24 f i libcpmt:wlocale.obj
 0001:00070b28       ?do_put@?$num_put@GV?$ostreambuf_iterator@GU?$char_traits@G@std@@@std@@@std@@MEBA?AV?$ostreambuf_iterator@GU?$char_traits@G@std@@@2@V32@AEAVios_base@2@GN@Z 0000000140071b28 f i libcpmt:wlocale.obj
 0001:00070de0       ?do_put@?$num_put@GV?$ostreambuf_iterator@GU?$char_traits@G@std@@@std@@@std@@MEBA?AV?$ostreambuf_iterator@GU?$char_traits@G@std@@@2@V32@AEAVios_base@2@GO@Z 0000000140071de0 f i libcpmt:wlocale.obj
 0001:00071098       ?do_put@?$num_put@GV?$ostreambuf_iterator@GU?$char_traits@G@std@@@std@@@std@@MEBA?AV?$ostreambuf_iterator@GU?$char_traits@G@std@@@2@V32@AEAVios_base@2@GPEBX@Z 0000000140072098 f i libcpmt:wlocale.obj
 0001:0007113c       ?do_put@?$num_put@GV?$ostreambuf_iterator@GU?$char_traits@G@std@@@std@@@std@@MEBA?AV?$ostreambuf_iterator@GU?$char_traits@G@std@@@2@V32@AEAVios_base@2@G_J@Z 000000014007213c f i libcpmt:wlocale.obj
 0001:00071248       ?do_put@?$num_put@GV?$ostreambuf_iterator@GU?$char_traits@G@std@@@std@@@std@@MEBA?AV?$ostreambuf_iterator@GU?$char_traits@G@std@@@2@V32@AEAVios_base@2@G_K@Z 0000000140072248 f i libcpmt:wlocale.obj
 0001:00071354       ?do_put@?$num_put@GV?$ostreambuf_iterator@GU?$char_traits@G@std@@@std@@@std@@MEBA?AV?$ostreambuf_iterator@GU?$char_traits@G@std@@@2@V32@AEAVios_base@2@G_N@Z 0000000140072354 f i libcpmt:wlocale.obj
 0001:000715cc       ?do_put@?$num_put@_WV?$ostreambuf_iterator@_WU?$char_traits@_W@std@@@std@@@std@@MEBA?AV?$ostreambuf_iterator@_WU?$char_traits@_W@std@@@2@V32@AEAVios_base@2@_WJ@Z 00000001400725cc f i libcpmt:wlocale.obj
 0001:000716d0       ?do_put@?$num_put@_WV?$ostreambuf_iterator@_WU?$char_traits@_W@std@@@std@@@std@@MEBA?AV?$ostreambuf_iterator@_WU?$char_traits@_W@std@@@2@V32@AEAVios_base@2@_WK@Z 00000001400726d0 f i libcpmt:wlocale.obj
 0001:000717d4       ?do_put@?$num_put@_WV?$ostreambuf_iterator@_WU?$char_traits@_W@std@@@std@@@std@@MEBA?AV?$ostreambuf_iterator@_WU?$char_traits@_W@std@@@2@V32@AEAVios_base@2@_WN@Z 00000001400727d4 f i libcpmt:wlocale.obj
 0001:00071a8c       ?do_put@?$num_put@_WV?$ostreambuf_iterator@_WU?$char_traits@_W@std@@@std@@@std@@MEBA?AV?$ostreambuf_iterator@_WU?$char_traits@_W@std@@@2@V32@AEAVios_base@2@_WO@Z 0000000140072a8c f i libcpmt:wlocale.obj
 0001:00071d44       ?do_put@?$num_put@_WV?$ostreambuf_iterator@_WU?$char_traits@_W@std@@@std@@@std@@MEBA?AV?$ostreambuf_iterator@_WU?$char_traits@_W@std@@@2@V32@AEAVios_base@2@_WPEBX@Z 0000000140072d44 f i libcpmt:wlocale.obj
 0001:00071de8       ?do_put@?$num_put@_WV?$ostreambuf_iterator@_WU?$char_traits@_W@std@@@std@@@std@@MEBA?AV?$ostreambuf_iterator@_WU?$char_traits@_W@std@@@2@V32@AEAVios_base@2@_W_J@Z 0000000140072de8 f i libcpmt:wlocale.obj
 0001:00071ef4       ?do_put@?$num_put@_WV?$ostreambuf_iterator@_WU?$char_traits@_W@std@@@std@@@std@@MEBA?AV?$ostreambuf_iterator@_WU?$char_traits@_W@std@@@2@V32@AEAVios_base@2@_W_K@Z 0000000140072ef4 f i libcpmt:wlocale.obj
 0001:00072000       ?do_put@?$num_put@_WV?$ostreambuf_iterator@_WU?$char_traits@_W@std@@@std@@@std@@MEBA?AV?$ostreambuf_iterator@_WU?$char_traits@_W@std@@@2@V32@AEAVios_base@2@_W_N@Z 0000000140073000 f i libcpmt:wlocale.obj
 0001:00072278       ?do_put@?$time_put@GV?$ostreambuf_iterator@GU?$char_traits@G@std@@@std@@@std@@MEBA?AV?$ostreambuf_iterator@GU?$char_traits@G@std@@@2@V32@AEAVios_base@2@GPEBUtm@@DD@Z 0000000140073278 f i libcpmt:wlocale.obj
 0001:00072278       ?do_put@?$time_put@_WV?$ostreambuf_iterator@_WU?$char_traits@_W@std@@@std@@@std@@MEBA?AV?$ostreambuf_iterator@_WU?$char_traits@_W@std@@@2@V32@AEAVios_base@2@_WPEBUtm@@DD@Z 0000000140073278 f i libcpmt:wlocale.obj
 0001:00072464       ?do_scan_is@?$ctype@G@std@@MEBAPEBGFPEBG0@Z 0000000140073464 f i libcpmt:wlocale.obj
 0001:00072464       ?do_scan_is@?$ctype@_W@std@@MEBAPEB_WFPEB_W0@Z 0000000140073464 f i libcpmt:wlocale.obj
 0001:000724c8       ?do_scan_not@?$ctype@G@std@@MEBAPEBGFPEBG0@Z 00000001400734c8 f i libcpmt:wlocale.obj
 0001:000724c8       ?do_scan_not@?$ctype@_W@std@@MEBAPEB_WFPEB_W0@Z 00000001400734c8 f i libcpmt:wlocale.obj
 0001:0007252c       ?do_thousands_sep@?$_Mpunct@G@std@@MEBAGXZ 000000014007352c f i libcpmt:wlocale.obj
 0001:0007252c       ?do_thousands_sep@?$_Mpunct@_W@std@@MEBA_WXZ 000000014007352c f i libcpmt:wlocale.obj
 0001:0007252c       ?do_thousands_sep@?$numpunct@G@std@@MEBAGXZ 000000014007352c f i libcpmt:wlocale.obj
 0001:0007252c       ?do_thousands_sep@?$numpunct@_W@std@@MEBA_WXZ 000000014007352c f i libcpmt:wlocale.obj
 0001:00072534       ?do_tolower@?$ctype@G@std@@MEBAGG@Z 0000000140073534 f i libcpmt:wlocale.obj
 0001:00072534       ?do_tolower@?$ctype@_W@std@@MEBA_W_W@Z 0000000140073534 f i libcpmt:wlocale.obj
 0001:00072544       ?do_tolower@?$ctype@G@std@@MEBAPEBGPEAGPEBG@Z 0000000140073544 f i libcpmt:wlocale.obj
 0001:00072544       ?do_tolower@?$ctype@_W@std@@MEBAPEB_WPEA_WPEB_W@Z 0000000140073544 f i libcpmt:wlocale.obj
 0001:0007258c       ?do_toupper@?$ctype@G@std@@MEBAGG@Z 000000014007358c f i libcpmt:wlocale.obj
 0001:0007258c       ?do_toupper@?$ctype@_W@std@@MEBA_W_W@Z 000000014007358c f i libcpmt:wlocale.obj
 0001:0007259c       ?do_toupper@?$ctype@G@std@@MEBAPEBGPEAGPEBG@Z 000000014007359c f i libcpmt:wlocale.obj
 0001:0007259c       ?do_toupper@?$ctype@_W@std@@MEBAPEB_WPEA_WPEB_W@Z 000000014007359c f i libcpmt:wlocale.obj
 0001:000725e4       ?do_transform@?$collate@G@std@@MEBA?AV?$basic_string@GU?$char_traits@G@std@@V?$allocator@G@2@@2@PEBG0@Z 00000001400735e4 f i libcpmt:wlocale.obj
 0001:000727a8       ?do_transform@?$collate@_W@std@@MEBA?AV?$basic_string@_WU?$char_traits@_W@std@@V?$allocator@_W@2@@2@PEB_W0@Z 00000001400737a8 f i libcpmt:wlocale.obj
 0001:0007296c       ?do_unshift@?$codecvt@GDU_Mbstatet@@@std@@MEBAHAEAU_Mbstatet@@PEAD1AEAPEAD@Z 000000014007396c f i libcpmt:wlocale.obj
 0001:0007296c       ?do_unshift@?$codecvt@_WDU_Mbstatet@@@std@@MEBAHAEAU_Mbstatet@@PEAD1AEAPEAD@Z 000000014007396c f i libcpmt:wlocale.obj
 0001:00072a10       ?do_widen@?$ctype@G@std@@MEBAGD@Z 0000000140073a10 f i libcpmt:wlocale.obj
 0001:00072a54       ?do_widen@?$ctype@G@std@@MEBAPEBDPEBD0PEAG@Z 0000000140073a54 f i libcpmt:wlocale.obj
 0001:00072acc       ?do_widen@?$ctype@_W@std@@MEBAPEBDPEBD0PEA_W@Z 0000000140073acc f i libcpmt:wlocale.obj
 0001:00072b44       ?do_widen@?$ctype@_W@std@@MEBA_WD@Z 0000000140073b44 f i libcpmt:wlocale.obj
 0001:00072b8c       ?equal@?$istreambuf_iterator@GU?$char_traits@G@std@@@std@@QEBA_NAEBV12@@Z 0000000140073b8c f i libcpmt:wlocale.obj
 0001:00072b8c       ?equal@?$istreambuf_iterator@_WU?$char_traits@_W@std@@@std@@QEBA_NAEBV12@@Z 0000000140073b8c f i libcpmt:wlocale.obj
 0001:00072c74       ?insert@?$basic_string@GU?$char_traits@G@std@@V?$allocator@G@2@@std@@QEAAAEAV12@_K0G@Z 0000000140073c74 f i libcpmt:wlocale.obj
 0001:00072c74       ?insert@?$basic_string@_WU?$char_traits@_W@std@@V?$allocator@_W@2@@std@@QEAAAEAV12@_K0_W@Z 0000000140073c74 f i libcpmt:wlocale.obj
 0001:00072d88       ?name@locale@std@@QEBA?AV?$basic_string@DU?$char_traits@D@std@@V?$allocator@D@2@@2@XZ 0000000140073d88 f i libcpmt:wlocale.obj
 0001:00072f64       ?push_back@?$basic_string@GU?$char_traits@G@std@@V?$allocator@G@2@@std@@QEAAXG@Z 0000000140073f64 f i libcpmt:wlocale.obj
 0001:00073028       ?setstate@ios_base@std@@QEAAXH@Z 0000000140074028 f i libcpmt:wlocale.obj
 0001:00073098       ??$_Getvals@D@?$_Mpunct@D@std@@IEAAXDPEBUlconv@@@Z 0000000140074098 f i libcpmt:xlocale.obj
 0001:00073130       ??$use_facet@V?$collate@D@std@@@std@@YAAEBV?$collate@D@0@AEBVlocale@0@@Z 0000000140074130 f i libcpmt:xlocale.obj
 0001:00073248       ??$use_facet@V?$messages@D@std@@@std@@YAAEBV?$messages@D@0@AEBVlocale@0@@Z 0000000140074248 f i libcpmt:xlocale.obj
 0001:00073360       ??$use_facet@V?$money_get@DV?$istreambuf_iterator@DU?$char_traits@D@std@@@std@@@std@@@std@@YAAEBV?$money_get@DV?$istreambuf_iterator@DU?$char_traits@D@std@@@std@@@0@AEBVlocale@0@@Z 0000000140074360 f i libcpmt:xlocale.obj
 0001:00073478       ??$use_facet@V?$money_put@DV?$ostreambuf_iterator@DU?$char_traits@D@std@@@std@@@std@@@std@@YAAEBV?$money_put@DV?$ostreambuf_iterator@DU?$char_traits@D@std@@@std@@@0@AEBVlocale@0@@Z 0000000140074478 f i libcpmt:xlocale.obj
 0001:00073590       ??$use_facet@V?$moneypunct@D$00@std@@@std@@YAAEBV?$moneypunct@D$00@0@AEBVlocale@0@@Z 0000000140074590 f i libcpmt:xlocale.obj
 0001:000736a8       ??$use_facet@V?$moneypunct@D$0A@@std@@@std@@YAAEBV?$moneypunct@D$0A@@0@AEBVlocale@0@@Z 00000001400746a8 f i libcpmt:xlocale.obj
 0001:000737c0       ??$use_facet@V?$time_put@DV?$ostreambuf_iterator@DU?$char_traits@D@std@@@std@@@std@@@std@@YAAEBV?$time_put@DV?$ostreambuf_iterator@DU?$char_traits@D@std@@@std@@@0@AEBVlocale@0@@Z 00000001400747c0 f i libcpmt:xlocale.obj
 0001:000738d8       ??_E?$_Mpunct@D@std@@MEAAPEAXI@Z 00000001400748d8 f i libcpmt:xlocale.obj
 0001:000738d8       ??_E?$moneypunct@D$00@std@@MEAAPEAXI@Z 00000001400748d8 f i libcpmt:xlocale.obj
 0001:000738d8       ??_E?$moneypunct@D$0A@@std@@MEAAPEAXI@Z 00000001400748d8 f i libcpmt:xlocale.obj
 0001:000738d8       ??_G?$_Mpunct@D@std@@MEAAPEAXI@Z 00000001400748d8 f i libcpmt:xlocale.obj
 0001:000738d8       ??_G?$moneypunct@D$00@std@@MEAAPEAXI@Z 00000001400748d8 f i libcpmt:xlocale.obj
 0001:000738d8       ??_G?$moneypunct@D$0A@@std@@MEAAPEAXI@Z 00000001400748d8 f i libcpmt:xlocale.obj
 0001:00073940       ??_E?$collate@D@std@@MEAAPEAXI@Z 0000000140074940 f i libcpmt:xlocale.obj
 0001:00073940       ??_G?$collate@D@std@@MEAAPEAXI@Z 0000000140074940 f i libcpmt:xlocale.obj
 0001:0007398c       ??_E?$time_put@DV?$ostreambuf_iterator@DU?$char_traits@D@std@@@std@@@std@@MEAAPEAXI@Z 000000014007498c f i libcpmt:xlocale.obj
 0001:0007398c       ??_G?$time_put@DV?$ostreambuf_iterator@DU?$char_traits@D@std@@@std@@@std@@MEAAPEAXI@Z 000000014007498c f i libcpmt:xlocale.obj
 0001:000739d8       ?_Getcat@?$collate@D@std@@SA_KPEAPEBVfacet@locale@2@PEBV42@@Z 00000001400749d8 f i libcpmt:xlocale.obj
 0001:00073ad8       ?_Getcat@?$messages@D@std@@SA_KPEAPEBVfacet@locale@2@PEBV42@@Z 0000000140074ad8 f i libcpmt:xlocale.obj
 0001:00073b94       ?_Getcat@?$money_get@DV?$istreambuf_iterator@DU?$char_traits@D@std@@@std@@@std@@SA_KPEAPEBVfacet@locale@2@PEBV42@@Z 0000000140074b94 f i libcpmt:xlocale.obj
 0001:00073c50       ?_Getcat@?$money_put@DV?$ostreambuf_iterator@DU?$char_traits@D@std@@@std@@@std@@SA_KPEAPEBVfacet@locale@2@PEBV42@@Z 0000000140074c50 f i libcpmt:xlocale.obj
 0001:00073d0c       ?_Getcat@?$moneypunct@D$00@std@@SA_KPEAPEBVfacet@locale@2@PEBV42@@Z 0000000140074d0c f i libcpmt:xlocale.obj
 0001:00073de4       ?_Getcat@?$moneypunct@D$0A@@std@@SA_KPEAPEBVfacet@locale@2@PEBV42@@Z 0000000140074de4 f i libcpmt:xlocale.obj
 0001:00073ebc       ?_Getcat@?$time_put@DV?$ostreambuf_iterator@DU?$char_traits@D@std@@@std@@@std@@SA_KPEAPEBVfacet@locale@2@PEBV42@@Z 0000000140074ebc f i libcpmt:xlocale.obj
 0001:00073fac       ?_Getmfld@?$money_get@DV?$istreambuf_iterator@DU?$char_traits@D@std@@@std@@@std@@AEBA?AV?$basic_string@DU?$char_traits@D@std@@V?$allocator@D@2@@2@AEAV?$istreambuf_iterator@DU?$char_traits@D@std@@@2@0_NAEAVios_base@2@AEAY0M@D@Z 0000000140074fac f i libcpmt:xlocale.obj
 0001:0007505c       ?_Init@?$_Mpunct@D@std@@IEAAXAEBV_Locinfo@2@_N@Z 000000014007605c f i libcpmt:xlocale.obj
 0001:000751a4       ?_Makexloc@_Locimp@locale@std@@CAXAEBV_Locinfo@3@HPEAV123@PEBV23@@Z 00000001400761a4 f   libcpmt:xlocale.obj
 0001:00075970       ?_Putmfld@?$money_put@DV?$ostreambuf_iterator@DU?$char_traits@D@std@@@std@@@std@@AEBA?AV?$ostreambuf_iterator@DU?$char_traits@D@std@@@2@V32@_NAEAVios_base@2@D1V?$basic_string@DU?$char_traits@D@std@@V?$allocator@D@2@@2@D@Z 0000000140076970 f i libcpmt:xlocale.obj
 0001:000760bc       ?do_compare@?$collate@D@std@@MEBAHPEBD000@Z 00000001400770bc f i libcpmt:xlocale.obj
 0001:00076100       ?do_curr_symbol@?$_Mpunct@D@std@@MEBA?AV?$basic_string@DU?$char_traits@D@std@@V?$allocator@D@2@@2@XZ 0000000140077100 f i libcpmt:xlocale.obj
 0001:0007613c       ?do_decimal_point@?$_Mpunct@D@std@@MEBADXZ 000000014007713c f i libcpmt:xlocale.obj
 0001:00076140       ?do_get@?$messages@D@std@@MEBA?AV?$basic_string@DU?$char_traits@D@std@@V?$allocator@D@2@@2@HHHAEBV32@@Z 0000000140077140 f i libcpmt:xlocale.obj
 0001:00076180       ?do_get@?$money_get@DV?$istreambuf_iterator@DU?$char_traits@D@std@@@std@@@std@@MEBA?AV?$istreambuf_iterator@DU?$char_traits@D@std@@@2@V32@0_NAEAVios_base@2@AEAHAEAO@Z 0000000140077180 f i libcpmt:xlocale.obj
 0001:00076280       ?do_get@?$money_get@DV?$istreambuf_iterator@DU?$char_traits@D@std@@@std@@@std@@MEBA?AV?$istreambuf_iterator@DU?$char_traits@D@std@@@2@V32@0_NAEAVios_base@2@AEAHAEAV?$basic_string@DU?$char_traits@D@std@@V?$allocator@D@2@@2@@Z 0000000140077280 f i libcpmt:xlocale.obj
 0001:000763ac       ?do_hash@?$collate@D@std@@MEBAJPEBD0@Z 00000001400773ac f i libcpmt:xlocale.obj
 0001:000763bc       ?do_negative_sign@?$_Mpunct@D@std@@MEBA?AV?$basic_string@DU?$char_traits@D@std@@V?$allocator@D@2@@2@XZ 00000001400773bc f i libcpmt:xlocale.obj
 0001:000763f8       ?do_positive_sign@?$_Mpunct@D@std@@MEBA?AV?$basic_string@DU?$char_traits@D@std@@V?$allocator@D@2@@2@XZ 00000001400773f8 f i libcpmt:xlocale.obj
 0001:00076434       ?do_put@?$money_put@DV?$ostreambuf_iterator@DU?$char_traits@D@std@@@std@@@std@@MEBA?AV?$ostreambuf_iterator@DU?$char_traits@D@std@@@2@V32@_NAEAVios_base@2@DAEBV?$basic_string@DU?$char_traits@D@std@@V?$allocator@D@2@@2@@Z 0000000140077434 f i libcpmt:xlocale.obj
 0001:000767a0       ?do_put@?$money_put@DV?$ostreambuf_iterator@DU?$char_traits@D@std@@@std@@@std@@MEBA?AV?$ostreambuf_iterator@DU?$char_traits@D@std@@@2@V32@_NAEAVios_base@2@DO@Z 00000001400777a0 f i libcpmt:xlocale.obj
 0001:00076b2c       ?do_put@?$time_put@DV?$ostreambuf_iterator@DU?$char_traits@D@std@@@std@@@std@@MEBA?AV?$ostreambuf_iterator@DU?$char_traits@D@std@@@2@V32@AEAVios_base@2@DPEBUtm@@DD@Z 0000000140077b2c f i libcpmt:xlocale.obj
 0001:00076d9c       ?do_thousands_sep@?$_Mpunct@D@std@@MEBADXZ 0000000140077d9c f i libcpmt:xlocale.obj
 0001:00076da0       ?do_transform@?$collate@D@std@@MEBA?AV?$basic_string@DU?$char_traits@D@std@@V?$allocator@D@2@@2@PEBD0@Z 0000000140077da0 f i libcpmt:xlocale.obj
 0001:00076f50       _Stollx                    0000000140077f50 f   libcpmt:xstoll.obj
 0001:00077050       _Stoullx                   0000000140078050 f   libcpmt:xstoull.obj
 0001:00077234       ?_Atexit@@YAXP6AXXZ@Z      0000000140078234 f   libcpmt:iosptrs.obj
 0001:00077270       __crtLCMapStringA          0000000140078270 f   libcpmt:StlLCMapStringA.obj
 0001:0007756c       _Timespec64_get_sys        000000014007856c f   libcpmt:xtime.obj
 0001:000775a8       _Xtime_get_ticks           00000001400785a8 f   libcpmt:xtime.obj
 0001:000775d8       _Getcoll                   00000001400785d8 f   libcpmt:xstrcoll.obj
 0001:0007760c       _Strcoll                   000000014007860c f   libcpmt:xstrcoll.obj
 0001:000776dc       _Mbrtowc                   00000001400786dc f   libcpmt:xmbtowc.obj
 0001:00077878       _Wcscoll                   0000000140078878 f   libcpmt:xwcscoll.obj
 0001:0007795c       _Wcsxfrm                   000000014007895c f   libcpmt:xwcsxfrm.obj
 0001:00077a6c       _Getwctype                 0000000140078a6c f   libcpmt:xgetwctype.obj
 0001:00077a9c       _Getwctypes                0000000140078a9c f   libcpmt:xgetwctype.obj
 0001:00077ac8       _Towlower                  0000000140078ac8 f   libcpmt:xtowlower.obj
 0001:00077b3c       _Towupper                  0000000140078b3c f   libcpmt:xtowupper.obj
 0001:00077bb8       _Strxfrm                   0000000140078bb8 f   libcpmt:xstrxfrm.obj
 0001:00077d1c       __crtGetSystemTimePreciseAsFileTime 0000000140078d1c f   libcpmt:winapisupp.obj
 0001:00077d44       __crtCompareStringA        0000000140078d44 f   libcpmt:StlCompareStringA.obj
 0001:000780b8       __crtCompareStringW        00000001400790b8 f   libcpmt:StlCompareStringW.obj
 0001:00078178       __crtLCMapStringW          0000000140079178 f   libcpmt:StlLCMapStringW.obj
 0001:00078210       __security_check_cookie    0000000140079210 f   LIBCMT:amdsecgs.obj
 0001:00078230       ??3@YAXPEAX_K@Z            0000000140079230 f   LIBCMT:delete_scalar_size.obj
 0001:00078230       ??_V@YAXPEAX@Z             0000000140079230 f   LIBCMT:delete_array.obj
 0001:00078238       ??2@YAPEAX_K@Z             0000000140079238 f   LIBCMT:new_scalar.obj
 0001:00078274       ??3@YAXPEAX@Z              0000000140079274 f   LIBCMT:delete_scalar.obj
 0001:0007827c       ??_U@YAPEAX_K@Z            000000014007927c f   LIBCMT:new_array.obj
 0001:00078284       ??_Etype_info@@UEAAPEAXI@Z 0000000140079284 f i LIBCMT:std_type_info_static.obj
 0001:00078284       ??_Gtype_info@@UEAAPEAXI@Z 0000000140079284 f i LIBCMT:std_type_info_static.obj
 0001:000782b0       _Init_thread_abort         00000001400792b0 f   LIBCMT:thread_safe_statics.obj
 0001:000782ec       _Init_thread_footer        00000001400792ec f   LIBCMT:thread_safe_statics.obj
 0001:00078358       _Init_thread_header        0000000140079358 f   LIBCMT:thread_safe_statics.obj
 0001:000783d0       ??_M@YAXPEAX_K1P6AX0@Z@Z   00000001400793d0 f   LIBCMT:ehvecdtr.obj
 0001:0007843c       ?__ArrayUnwind@@YAXPEAX_K1P6AX0@Z@Z 000000014007943c f   LIBCMT:ehvecdtr.obj
 0001:000784a0       __scrt_acquire_startup_lock 00000001400794a0 f   LIBCMT:utility.obj
 0001:000784dc       __scrt_initialize_crt      00000001400794dc f   LIBCMT:utility.obj
 0001:00078518       __scrt_initialize_onexit_tables 0000000140079518 f   LIBCMT:utility.obj
 0001:000785a4       __scrt_is_nonwritable_in_current_image 00000001400795a4 f   LIBCMT:utility.obj
 0001:0007863c       __scrt_release_startup_lock 000000014007963c f   LIBCMT:utility.obj
 0001:00078660       __scrt_uninitialize_crt    0000000140079660 f   LIBCMT:utility.obj
 0001:0007868c       _onexit                    000000014007968c f   LIBCMT:utility.obj
 0001:000786c8       atexit                     00000001400796c8 f   LIBCMT:utility.obj
 0001:000786e0       ??_L@YAXPEAX_K1P6AX0@Z2@Z  00000001400796e0 f   LIBCMT:ehvecctr.obj
 0001:00078750       __raise_securityfailure    0000000140079750 f   LIBCMT:gs_report.obj
 0001:00078784       __report_gsfailure         0000000140079784 f   LIBCMT:gs_report.obj
 0001:00078858       __report_rangecheckfailure 0000000140079858 f   LIBCMT:gs_report.obj
 0001:0007886c       __report_securityfailure   000000014007986c f   LIBCMT:gs_report.obj
 0001:000789f0       ??2@YAPEAX_KAEBUnothrow_t@std@@@Z 00000001400799f0 f   LIBCMT:new_scalar_nothrow.obj
 0001:00078c5c       WinMainCRTStartup          0000000140079c5c f   LIBCMT:exe_winmain.obj
 0001:00078c70       __GSHandlerCheck           0000000140079c70 f   LIBCMT:gshandler.obj
 0001:00078c90       __GSHandlerCheckCommon     0000000140079c90 f   LIBCMT:gshandler.obj
 0001:00078cec       __GSHandlerCheck_EH4       0000000140079cec f   LIBCMT:gshandlereh4.obj
 0001:00078d6c       __isa_available_init       0000000140079d6c f   LIBCMT:cpu_disp.obj
 0001:00079050       __chkstk                   000000014007a050 f   LIBCMT:chkstk.obj
 0001:00079050       _alloca_probe              000000014007a050 f   LIBCMT:chkstk.obj
 0001:000790a0       __scrt_is_ucrt_dll_in_use  000000014007a0a0 f   LIBCMT:ucrt_detection.obj
 0001:000790ac       __crt_debugger_hook        000000014007a0ac f   LIBCMT:utility_desktop.obj
 0001:000790b4       __scrt_fastfail            000000014007a0b4 f   LIBCMT:utility_desktop.obj
 0001:000791fc       __scrt_get_show_window_mode 000000014007a1fc f   LIBCMT:utility_desktop.obj
 0001:00079238       __scrt_initialize_mta      000000014007a238 f   LIBCMT:utility_desktop.obj
 0001:00079240       __scrt_is_managed_app      000000014007a240 f   LIBCMT:utility_desktop.obj
 0001:00079294       __scrt_set_unhandled_exception_filter 000000014007a294 f   LIBCMT:utility_desktop.obj
 0001:000792a4       __scrt_unhandled_exception_filter 000000014007a2a4 f   LIBCMT:utility_desktop.obj
 0001:00079300       __security_init_cookie     000000014007a300 f   LIBCMT:gs_support.obj
 0001:000793ac       _get_startup_file_mode     000000014007a3ac f   LIBCMT:file_mode.obj
 0001:000793b4       ?__scrt_initialize_type_info@@YAXXZ 000000014007a3b4 f   LIBCMT:tncleanup.obj
 0001:000793c4       __scrt_initialize_default_local_stdio_options 000000014007a3c4 f   LIBCMT:default_local_stdio_options.obj
 0001:000793e0       __scrt_is_user_matherr_present 000000014007a3e0 f   LIBCMT:matherr_detection.obj
 0001:000793ec       __scrt_get_dyn_tls_init_callback 000000014007a3ec f   LIBCMT:dyn_tls_init.obj
 0001:000793f4       __scrt_get_dyn_tls_dtor_callback 000000014007a3f4 f   LIBCMT:dyn_tls_dtor.obj
 0001:000793fc       _RTC_Initialize            000000014007a3fc f   LIBCMT:initsect.obj
 0001:00079438       _RTC_Terminate             000000014007a438 f   LIBCMT:initsect.obj
 0001:00079474       ??$_CallSETranslator@V__FrameHandler3@@@@YAHPEAUEHExceptionRecord@@PEA_KPEAU_CONTEXT@@PEAU_xDISPATCHER_CONTEXT@@PEBU_s_FuncInfo@@K1H@Z 000000014007a474 f i libvcruntime:risctrnsctrl.obj
 0001:000794c8       ??$_CallSETranslator@V__FrameHandler4@@@@YAHPEAUEHExceptionRecord@@PEA_KPEAU_CONTEXT@@PEAU_xDISPATCHER_CONTEXT@@PEAUFuncInfo4@FH4@@K1H@Z 000000014007a4c8 f i libvcruntime:risctrnsctrl.obj
 0001:0007951c       ?CatchTryBlock@__FrameHandler3@@SAPEBU_s_TryBlockMapEntry@@PEBU_s_FuncInfo@@H@Z 000000014007a51c f   libvcruntime:risctrnsctrl.obj
 0001:00079580       ?DecompFuncInfo@FH4@@YA_JPEAEAEAUFuncInfo4@1@_KH_N@Z 000000014007a580 f i libvcruntime:risctrnsctrl.obj
 0001:000796b8       ?ExecutionInCatch@__FrameHandler3@@SA_NPEAU_xDISPATCHER_CONTEXT@@PEBU_s_FuncInfo@@@Z 000000014007a6b8 f   libvcruntime:risctrnsctrl.obj
 0001:000796e4       ?ExecutionInCatch@__FrameHandler4@@SA_NPEAU_xDISPATCHER_CONTEXT@@PEAUFuncInfo4@FH4@@@Z 000000014007a6e4 f   libvcruntime:risctrnsctrl.obj
 0001:000796ec       ?FrameUnwindToEmptyState@__FrameHandler3@@SAXPEA_KPEAU_xDISPATCHER_CONTEXT@@PEBU_s_FuncInfo@@@Z 000000014007a6ec f   libvcruntime:risctrnsctrl.obj
 0001:00079750       ?FrameUnwindToEmptyState@__FrameHandler4@@SAXPEA_KPEAU_xDISPATCHER_CONTEXT@@PEAUFuncInfo4@FH4@@@Z 000000014007a750 f   libvcruntime:risctrnsctrl.obj
 0001:00079784       ?GetEstablisherFrame@__FrameHandler3@@SAPEA_KPEA_KPEAU_xDISPATCHER_CONTEXT@@PEBU_s_FuncInfo@@0@Z 000000014007a784 f   libvcruntime:risctrnsctrl.obj
 0001:00079854       ?GetEstablisherFrame@__FrameHandler4@@SAPEA_KPEA_KPEAU_xDISPATCHER_CONTEXT@@PEAUFuncInfo4@FH4@@0@Z 000000014007a854 f   libvcruntime:risctrnsctrl.obj
 0001:00079878       ?GetRangeOfTrysToCheck@__FrameHandler3@@SA?AU?$pair@Viterator@TryBlockMap@__FrameHandler3@@V123@@std@@AEAVTryBlockMap@1@HPEAU_xDISPATCHER_CONTEXT@@PEBU_s_FuncInfo@@H@Z 000000014007a878 f   libvcruntime:risctrnsctrl.obj
 0001:000799ac       ?GetRangeOfTrysToCheck@__FrameHandler4@@SA?AU?$pair@Viterator@TryBlockMap4@FH4@@V123@@std@@AEAVTryBlockMap4@FH4@@HPEAU_xDISPATCHER_CONTEXT@@PEAUFuncInfo4@5@H@Z 000000014007a9ac f   libvcruntime:risctrnsctrl.obj
 0001:00079b18       ?UnwindNestedFrames@__FrameHandler3@@SAXPEA_KPEAUEHExceptionRecord@@PEAU_CONTEXT@@0PEAXPEBU_s_FuncInfo@@HHPEBU_s_HandlerType@@PEAU_xDISPATCHER_CONTEXT@@E@Z 000000014007ab18 f   libvcruntime:risctrnsctrl.obj
 0001:00079c1c       ?UnwindNestedFrames@__FrameHandler4@@SAXPEA_KPEAUEHExceptionRecord@@PEAU_CONTEXT@@0PEAXPEAUFuncInfo4@FH4@@HHPEAUHandlerType4@5@PEAU_xDISPATCHER_CONTEXT@@E@Z 000000014007ac1c f   libvcruntime:risctrnsctrl.obj
 0001:00079d3c       ?setBuffer@TryBlockMap4@FH4@@QEAAXViterator@12@@Z 000000014007ad3c f i libvcruntime:risctrnsctrl.obj
 0001:00079f00       _CreateFrameInfo           000000014007af00 f   libvcruntime:risctrnsctrl.obj
 0001:00079f3c       _FindAndUnlinkFrame        000000014007af3c f   libvcruntime:risctrnsctrl.obj
 0001:00079f90       _GetImageBase              000000014007af90 f   libvcruntime:risctrnsctrl.obj
 0001:00079fa4       _GetThrowImageBase         000000014007afa4 f   libvcruntime:risctrnsctrl.obj
 0001:00079fb8       _SetImageBase              000000014007afb8 f   libvcruntime:risctrnsctrl.obj
 0001:00079fd0       _SetThrowImageBase         000000014007afd0 f   libvcruntime:risctrnsctrl.obj
 0001:00079fe8       __CxxFrameHandler3         000000014007afe8 f   libvcruntime:risctrnsctrl.obj
 0001:0007a070       __CxxFrameHandler4         000000014007b070 f   libvcruntime:risctrnsctrl.obj
 0001:0007a130       __std_exception_copy       000000014007b130 f   libvcruntime:std_exception.obj
 0001:0007a1c0       __std_exception_destroy    000000014007b1c0 f   libvcruntime:std_exception.obj
 0001:0007a1e8       __DestructExceptionObject  000000014007b1e8 f   libvcruntime:ehhelpers.obj
 0001:0007a258       _IsExceptionObjectToBeDestroyed 000000014007b258 f   libvcruntime:ehhelpers.obj
 0001:0007a288       __AdjustPointer            000000014007b288 f   libvcruntime:ehhelpers.obj
 0001:0007a2ac       __FrameUnwindFilter        000000014007b2ac f   libvcruntime:ehhelpers.obj
 0001:0007a314       __current_exception        000000014007b314 f   libvcruntime:ehhelpers.obj
 0001:0007a328       __current_exception_context 000000014007b328 f   libvcruntime:ehhelpers.obj
 0001:0007a33c       __std_terminate            000000014007b33c f   libvcruntime:ehhelpers.obj
 0001:0007a348       _get_purecall_handler      000000014007b348 f   libvcruntime:purevirt.obj
 0001:0007a354       _purecall                  000000014007b354 f   libvcruntime:purevirt.obj
 0001:0007a370       strchr                     000000014007b370 f   libvcruntime:strchr.obj
 0001:0007a3ec       strrchr                    000000014007b3ec f   libvcruntime:strrchr.obj
 0001:0007a524       _CxxThrowException         000000014007b524 f   libvcruntime:throw.obj
 0001:0007a5cc       __uncaught_exceptions      000000014007b5cc f   libvcruntime:uncaught_exceptions.obj
 0001:0007a5f0       __C_specific_handler       000000014007b5f0 f   libvcruntime:riscchandler.obj
 0001:0007a808       __vcrt_initialize          000000014007b808 f   libvcruntime:initialization.obj
 0001:0007a830       __vcrt_uninitialize        000000014007b830 f   libvcruntime:initialization.obj
 0001:0007a84c       __std_type_info_compare    000000014007b84c f   libvcruntime:std_type_info.obj
 0001:0007a874       __vcrt_freefls             000000014007b874 f   libvcruntime:per_thread_data.obj
 0001:0007a894       __vcrt_getptd              000000014007b894 f   libvcruntime:per_thread_data.obj
 0001:0007a8b0       __vcrt_getptd_noexit       000000014007b8b0 f   libvcruntime:per_thread_data.obj
 0001:0007a970       __vcrt_getptd_noinit       000000014007b970 f   libvcruntime:per_thread_data.obj
 0001:0007a9c0       __vcrt_initialize_ptd      000000014007b9c0 f   libvcruntime:per_thread_data.obj
 0001:0007aa08       __vcrt_uninitialize_ptd    000000014007ba08 f   libvcruntime:per_thread_data.obj
 0001:0007aa2c       ?GetCurrentState@__FrameHandler3@@SAHPEA_KPEAU_xDISPATCHER_CONTEXT@@PEBU_s_FuncInfo@@@Z 000000014007ba2c f   libvcruntime:ehstate.obj
 0001:0007aa54       ?GetUnwindTryBlock@__FrameHandler3@@SAHPEA_KPEAU_xDISPATCHER_CONTEXT@@PEBU_s_FuncInfo@@@Z 000000014007ba54 f   libvcruntime:ehstate.obj
 0001:0007aa80       ?SetState@__FrameHandler3@@SAXPEA_KPEBU_s_FuncInfo@@H@Z 000000014007ba80 f   libvcruntime:ehstate.obj
 0001:0007aa8c       ?SetUnwindTryBlock@__FrameHandler3@@SAXPEA_KPEAU_xDISPATCHER_CONTEXT@@PEBU_s_FuncInfo@@H@Z 000000014007ba8c f   libvcruntime:ehstate.obj
 0001:0007aac8       ?StateFromControlPc@__FrameHandler3@@SAHPEBU_s_FuncInfo@@PEAU_xDISPATCHER_CONTEXT@@@Z 000000014007bac8 f   libvcruntime:ehstate.obj
 0001:0007aad0       ?StateFromControlPc@__FrameHandler4@@SAHPEAUFuncInfo4@FH4@@PEAU_xDISPATCHER_CONTEXT@@@Z 000000014007bad0 f   libvcruntime:ehstate.obj
 0001:0007aad8       ?StateFromIp@__FrameHandler3@@SAHPEBU_s_FuncInfo@@PEAU_xDISPATCHER_CONTEXT@@_K@Z 000000014007bad8 f   libvcruntime:ehstate.obj
 0001:0007ab40       ?StateFromIp@__FrameHandler4@@SAHPEAUFuncInfo4@FH4@@PEAU_xDISPATCHER_CONTEXT@@_K@Z 000000014007bb40 f   libvcruntime:ehstate.obj
 0001:0007c298       ??$TypeMatchHelper@V__FrameHandler3@@@@YAHPEBU_s_HandlerType@@PEBU_s_CatchableType@@PEBU_s_ThrowInfo@@@Z 000000014007d298 f i libvcruntime:frame.obj
 0001:0007c3d8       ??$TypeMatchHelper@V__FrameHandler4@@@@YAHPEAUHandlerType4@FH4@@PEBU_s_CatchableType@@PEBU_s_ThrowInfo@@@Z 000000014007d3d8 f i libvcruntime:frame.obj
 0001:0007c524       ??$__InternalCxxFrameHandler@V__FrameHandler3@@@@YA?AW4_EXCEPTION_DISPOSITION@@PEAUEHExceptionRecord@@PEA_KPEAU_CONTEXT@@PEAU_xDISPATCHER_CONTEXT@@PEBU_s_FuncInfo@@H1E@Z 000000014007d524 f i libvcruntime:frame.obj
 0001:0007c75c       ??$__InternalCxxFrameHandler@V__FrameHandler4@@@@YA?AW4_EXCEPTION_DISPOSITION@@PEAUEHExceptionRecord@@PEA_KPEAU_CONTEXT@@PEAU_xDISPATCHER_CONTEXT@@PEAUFuncInfo4@FH4@@H1E@Z 000000014007d75c f i libvcruntime:frame.obj
 0001:0007c9f0       ??$__InternalCxxFrameHandlerWrapper@V__FrameHandler3@@@@YA?AW4_EXCEPTION_DISPOSITION@@PEAUEHExceptionRecord@@PEA_KPEAU_CONTEXT@@PEAU_xDISPATCHER_CONTEXT@@PEBU_s_FuncInfo@@H1E@Z 000000014007d9f0 f i libvcruntime:frame.obj
 0001:0007c9f8       ??$__InternalCxxFrameHandlerWrapper@V__FrameHandler4@@@@YA?AW4_EXCEPTION_DISPOSITION@@PEAUEHExceptionRecord@@PEA_KPEAU_CONTEXT@@PEAU_xDISPATCHER_CONTEXT@@PEAUFuncInfo4@FH4@@H1E@Z 000000014007d9f8 f i libvcruntime:frame.obj
 0001:0007ca44       ??0HandlerMap4@FH4@@QEAA@PEBUTryBlockMapEntry4@1@_KH@Z 000000014007da44 f i libvcruntime:frame.obj
 0001:0007cac8       ??0TryBlockMap4@FH4@@QEAA@PEBUFuncInfo4@1@_K@Z 000000014007dac8 f i libvcruntime:frame.obj
 0001:0007cbac       ?CxxCallCatchBlock@__FrameHandler3@@SAPEAXPEAU_EXCEPTION_RECORD@@@Z 000000014007dbac f   libvcruntime:frame.obj
 0001:0007cd98       ?CxxCallCatchBlock@__FrameHandler4@@SAPEAXPEAU_EXCEPTION_RECORD@@@Z 000000014007dd98 f   libvcruntime:frame.obj
 0001:0007cfe8       ?DecompHandler@HandlerMap4@FH4@@AEAAXXZ 000000014007dfe8 f i libvcruntime:frame.obj
 0001:0007d230       ?FrameUnwindToState@__FrameHandler3@@SAXPEA_KPEAU_xDISPATCHER_CONTEXT@@PEBU_s_FuncInfo@@H@Z 000000014007e230 f   libvcruntime:frame.obj
 0001:0007d3bc       ?FrameUnwindToState@__FrameHandler4@@SAXPEA_KPEAU_xDISPATCHER_CONTEXT@@PEAUFuncInfo4@FH4@@H@Z 000000014007e3bc f   libvcruntime:frame.obj
 0001:0007d6c4       ?GetHandlerSearchState@__FrameHandler3@@SAHPEA_KPEAU_xDISPATCHER_CONTEXT@@PEBU_s_FuncInfo@@@Z 000000014007e6c4 f i libvcruntime:frame.obj
 0001:0007d8d4       ?ReadEntry@UWMap4@FH4@@AEAAXPEAPEAE@Z 000000014007e8d4 f i libvcruntime:frame.obj
 0001:0007d970       ?getStartStop@UWMap4@FH4@@QEAAXHHAEAViterator@12@0@Z 000000014007e970 f i libvcruntime:frame.obj
 0001:0007da40       ?getStateFromIterators@UWMap4@FH4@@SAHAEBViterator@12@H0H0@Z 000000014007ea40 f i libvcruntime:frame.obj
 0001:0007db20       _NLG_Notify                000000014007eb20 f   libvcruntime:notify.obj
 0001:0007db40       __NLG_Dispatch2            000000014007eb40 f   libvcruntime:notify.obj
 0001:0007db50       __NLG_Return2              000000014007eb50 f   libvcruntime:notify.obj
 0001:0007db54       __except_validate_context_record 000000014007eb54 f   libvcruntime:jbcxrval.obj
 0001:0007db8c       __vcrt_initialize_locks    000000014007eb8c f   libvcruntime:locks.obj
 0001:0007dbd4       __vcrt_uninitialize_locks  000000014007ebd4 f   libvcruntime:locks.obj
 0001:0007dd5c       __vcrt_FlsAlloc            000000014007ed5c f   libvcruntime:winapi_downlevel.obj
 0001:0007dda4       __vcrt_FlsFree             000000014007eda4 f   libvcruntime:winapi_downlevel.obj
 0001:0007ddec       __vcrt_FlsGetValue         000000014007edec f   libvcruntime:winapi_downlevel.obj
 0001:0007de34       __vcrt_FlsSetValue         000000014007ee34 f   libvcruntime:winapi_downlevel.obj
 0001:0007de88       __vcrt_InitializeCriticalSectionEx 000000014007ee88 f   libvcruntime:winapi_downlevel.obj
 0001:0007df30       _CallSettingFrame          000000014007ef30 f   libvcruntime:handlers.obj
 0001:0007df70       _CallSettingFrame_LookupContinuationIndex 000000014007ef70 f   libvcruntime:handlers.obj
 0001:0007dfa0       _CallSettingFrame_NotifyContinuationAddr 000000014007efa0 f   libvcruntime:handlers.obj
 0001:0007dfd0       _CallSettingFrameEncoded   000000014007efd0 f   libvcruntime:handlers.obj
 0001:0007e208       ??$ensure_buffer_is_big_enough@D@formatting_buffer@__crt_stdio_output@@QEAA_N_KAEAV__crt_cached_ptd_host@@@Z 000000014007f208 f i libucrt:output.obj
 0001:0007e2b0       ??$parse_integer@KV?$c_string_character_source@D@__crt_strtox@@$0A@@__crt_strtox@@YAKAEAV__crt_cached_ptd_host@@V?$c_string_character_source@D@0@H_N@Z 000000014007f2b0 f i libucrt:output.obj
 0001:0007e564       ??$type_case_integer@$07@?$output_processor@DV?$stream_output_adapter@D@__crt_stdio_output@@V?$standard_base@DV?$stream_output_adapter@D@__crt_stdio_output@@@2@@__crt_stdio_output@@AEAA_N_N@Z 000000014007f564 f i libucrt:output.obj
 0001:0007e564       ??$type_case_integer@$07@?$output_processor@DV?$string_output_adapter@D@__crt_stdio_output@@V?$format_validation_base@DV?$string_output_adapter@D@__crt_stdio_output@@@2@@__crt_stdio_output@@AEAA_N_N@Z 000000014007f564 f i libucrt:output.obj
 0001:0007e564       ??$type_case_integer@$07@?$output_processor@DV?$string_output_adapter@D@__crt_stdio_output@@V?$standard_base@DV?$string_output_adapter@D@__crt_stdio_output@@@2@@__crt_stdio_output@@AEAA_N_N@Z 000000014007f564 f i libucrt:output.obj
 0001:0007e768       ??$type_case_integer@$09@?$output_processor@DV?$stream_output_adapter@D@__crt_stdio_output@@V?$standard_base@DV?$stream_output_adapter@D@__crt_stdio_output@@@2@@__crt_stdio_output@@AEAA_N_N@Z 000000014007f768 f i libucrt:output.obj
 0001:0007e768       ??$type_case_integer@$09@?$output_processor@DV?$string_output_adapter@D@__crt_stdio_output@@V?$format_validation_base@DV?$string_output_adapter@D@__crt_stdio_output@@@2@@__crt_stdio_output@@AEAA_N_N@Z 000000014007f768 f i libucrt:output.obj
 0001:0007e768       ??$type_case_integer@$09@?$output_processor@DV?$string_output_adapter@D@__crt_stdio_output@@V?$standard_base@DV?$string_output_adapter@D@__crt_stdio_output@@@2@@__crt_stdio_output@@AEAA_N_N@Z 000000014007f768 f i libucrt:output.obj
 0001:0007e96c       ??$type_case_integer@$0BA@@?$output_processor@DV?$stream_output_adapter@D@__crt_stdio_output@@V?$standard_base@DV?$stream_output_adapter@D@__crt_stdio_output@@@2@@__crt_stdio_output@@AEAA_N_N@Z 000000014007f96c f i libucrt:output.obj
 0001:0007e96c       ??$type_case_integer@$0BA@@?$output_processor@DV?$string_output_adapter@D@__crt_stdio_output@@V?$format_validation_base@DV?$string_output_adapter@D@__crt_stdio_output@@@2@@__crt_stdio_output@@AEAA_N_N@Z 000000014007f96c f i libucrt:output.obj
 0001:0007e96c       ??$type_case_integer@$0BA@@?$output_processor@DV?$string_output_adapter@D@__crt_stdio_output@@V?$standard_base@DV?$string_output_adapter@D@__crt_stdio_output@@@2@@__crt_stdio_output@@AEAA_N_N@Z 000000014007f96c f i libucrt:output.obj
 0001:0007eb70       ??$type_case_integer_parse_into_buffer@I$07@?$output_processor@DV?$stream_output_adapter@D@__crt_stdio_output@@V?$standard_base@DV?$stream_output_adapter@D@__crt_stdio_output@@@2@@__crt_stdio_output@@AEAAXI_N@Z 000000014007fb70 f i libucrt:output.obj
 0001:0007eb70       ??$type_case_integer_parse_into_buffer@I$07@?$output_processor@DV?$string_output_adapter@D@__crt_stdio_output@@V?$format_validation_base@DV?$string_output_adapter@D@__crt_stdio_output@@@2@@__crt_stdio_output@@AEAAXI_N@Z 000000014007fb70 f i libucrt:output.obj
 0001:0007eb70       ??$type_case_integer_parse_into_buffer@I$07@?$output_processor@DV?$string_output_adapter@D@__crt_stdio_output@@V?$standard_base@DV?$string_output_adapter@D@__crt_stdio_output@@@2@@__crt_stdio_output@@AEAAXI_N@Z 000000014007fb70 f i libucrt:output.obj
 0001:0007ebe0       ??$type_case_integer_parse_into_buffer@I$09@?$output_processor@DV?$stream_output_adapter@D@__crt_stdio_output@@V?$standard_base@DV?$stream_output_adapter@D@__crt_stdio_output@@@2@@__crt_stdio_output@@AEAAXI_N@Z 000000014007fbe0 f i libucrt:output.obj
 0001:0007ebe0       ??$type_case_integer_parse_into_buffer@I$09@?$output_processor@DV?$string_output_adapter@D@__crt_stdio_output@@V?$format_validation_base@DV?$string_output_adapter@D@__crt_stdio_output@@@2@@__crt_stdio_output@@AEAAXI_N@Z 000000014007fbe0 f i libucrt:output.obj
 0001:0007ebe0       ??$type_case_integer_parse_into_buffer@I$09@?$output_processor@DV?$string_output_adapter@D@__crt_stdio_output@@V?$standard_base@DV?$string_output_adapter@D@__crt_stdio_output@@@2@@__crt_stdio_output@@AEAAXI_N@Z 000000014007fbe0 f i libucrt:output.obj
 0001:0007ec8c       ??$type_case_integer_parse_into_buffer@I$0BA@@?$output_processor@DV?$stream_output_adapter@D@__crt_stdio_output@@V?$standard_base@DV?$stream_output_adapter@D@__crt_stdio_output@@@2@@__crt_stdio_output@@AEAAXI_N@Z 000000014007fc8c f i libucrt:output.obj
 0001:0007ec8c       ??$type_case_integer_parse_into_buffer@I$0BA@@?$output_processor@DV?$string_output_adapter@D@__crt_stdio_output@@V?$format_validation_base@DV?$string_output_adapter@D@__crt_stdio_output@@@2@@__crt_stdio_output@@AEAAXI_N@Z 000000014007fc8c f i libucrt:output.obj
 0001:0007ec8c       ??$type_case_integer_parse_into_buffer@I$0BA@@?$output_processor@DV?$string_output_adapter@D@__crt_stdio_output@@V?$standard_base@DV?$string_output_adapter@D@__crt_stdio_output@@@2@@__crt_stdio_output@@AEAAXI_N@Z 000000014007fc8c f i libucrt:output.obj
 0001:0007ed10       ??$type_case_integer_parse_into_buffer@_K$07@?$output_processor@DV?$stream_output_adapter@D@__crt_stdio_output@@V?$standard_base@DV?$stream_output_adapter@D@__crt_stdio_output@@@2@@__crt_stdio_output@@AEAAX_K_N@Z 000000014007fd10 f i libucrt:output.obj
 0001:0007ed10       ??$type_case_integer_parse_into_buffer@_K$07@?$output_processor@DV?$string_output_adapter@D@__crt_stdio_output@@V?$format_validation_base@DV?$string_output_adapter@D@__crt_stdio_output@@@2@@__crt_stdio_output@@AEAAX_K_N@Z 000000014007fd10 f i libucrt:output.obj
 0001:0007ed10       ??$type_case_integer_parse_into_buffer@_K$07@?$output_processor@DV?$string_output_adapter@D@__crt_stdio_output@@V?$standard_base@DV?$string_output_adapter@D@__crt_stdio_output@@@2@@__crt_stdio_output@@AEAAX_K_N@Z 000000014007fd10 f i libucrt:output.obj
 0001:0007ed80       ??$type_case_integer_parse_into_buffer@_K$09@?$output_processor@DV?$stream_output_adapter@D@__crt_stdio_output@@V?$standard_base@DV?$stream_output_adapter@D@__crt_stdio_output@@@2@@__crt_stdio_output@@AEAAX_K_N@Z 000000014007fd80 f i libucrt:output.obj
 0001:0007ed80       ??$type_case_integer_parse_into_buffer@_K$09@?$output_processor@DV?$string_output_adapter@D@__crt_stdio_output@@V?$format_validation_base@DV?$string_output_adapter@D@__crt_stdio_output@@@2@@__crt_stdio_output@@AEAAX_K_N@Z 000000014007fd80 f i libucrt:output.obj
 0001:0007ed80       ??$type_case_integer_parse_into_buffer@_K$09@?$output_processor@DV?$string_output_adapter@D@__crt_stdio_output@@V?$standard_base@DV?$string_output_adapter@D@__crt_stdio_output@@@2@@__crt_stdio_output@@AEAAX_K_N@Z 000000014007fd80 f i libucrt:output.obj
 0001:0007ee30       ??$type_case_integer_parse_into_buffer@_K$0BA@@?$output_processor@DV?$stream_output_adapter@D@__crt_stdio_output@@V?$standard_base@DV?$stream_output_adapter@D@__crt_stdio_output@@@2@@__crt_stdio_output@@AEAAX_K_N@Z 000000014007fe30 f i libucrt:output.obj
 0001:0007ee30       ??$type_case_integer_parse_into_buffer@_K$0BA@@?$output_processor@DV?$string_output_adapter@D@__crt_stdio_output@@V?$format_validation_base@DV?$string_output_adapter@D@__crt_stdio_output@@@2@@__crt_stdio_output@@AEAAX_K_N@Z 000000014007fe30 f i libucrt:output.obj
 0001:0007ee30       ??$type_case_integer_parse_into_buffer@_K$0BA@@?$output_processor@DV?$string_output_adapter@D@__crt_stdio_output@@V?$standard_base@DV?$string_output_adapter@D@__crt_stdio_output@@@2@@__crt_stdio_output@@AEAAX_K_N@Z 000000014007fe30 f i libucrt:output.obj
 0001:0007efd0       ?crop_zeroes@__crt_stdio_output@@YAXPEADQEAU__crt_locale_pointers@@@Z 000000014007ffd0 f i libucrt:output.obj
 0001:0007f040       ?get_raw_ptd@__crt_cached_ptd_host@@QEAAPEAU__acrt_ptd@@XZ 0000000140080040 f i libucrt:output.obj
 0001:0007f0a8       ?parse_int_from_format_string@?$output_processor@DV?$stream_output_adapter@D@__crt_stdio_output@@V?$standard_base@DV?$stream_output_adapter@D@__crt_stdio_output@@@2@@__crt_stdio_output@@AEAA_NQEAH@Z 00000001400800a8 f i libucrt:output.obj
 0001:0007f0a8       ?parse_int_from_format_string@?$output_processor@DV?$string_output_adapter@D@__crt_stdio_output@@V?$format_validation_base@DV?$string_output_adapter@D@__crt_stdio_output@@@2@@__crt_stdio_output@@AEAA_NQEAH@Z 00000001400800a8 f i libucrt:output.obj
 0001:0007f0a8       ?parse_int_from_format_string@?$output_processor@DV?$string_output_adapter@D@__crt_stdio_output@@V?$standard_base@DV?$string_output_adapter@D@__crt_stdio_output@@@2@@__crt_stdio_output@@AEAA_NQEAH@Z 00000001400800a8 f i libucrt:output.obj
 0001:0007f138       ?process@?$output_processor@DV?$stream_output_adapter@D@__crt_stdio_output@@V?$standard_base@DV?$stream_output_adapter@D@__crt_stdio_output@@@2@@__crt_stdio_output@@QEAAHXZ 0000000140080138 f i libucrt:output.obj
 0001:0007f4d0       ?process@?$output_processor@DV?$string_output_adapter@D@__crt_stdio_output@@V?$format_validation_base@DV?$string_output_adapter@D@__crt_stdio_output@@@2@@__crt_stdio_output@@QEAAHXZ 00000001400804d0 f i libucrt:output.obj
 0001:0007f854       ?process@?$output_processor@DV?$string_output_adapter@D@__crt_stdio_output@@V?$standard_base@DV?$string_output_adapter@D@__crt_stdio_output@@@2@@__crt_stdio_output@@QEAAHXZ 0000000140080854 f i libucrt:output.obj
 0001:0007fbd4       ?state_case_size@?$output_processor@DV?$stream_output_adapter@D@__crt_stdio_output@@V?$standard_base@DV?$stream_output_adapter@D@__crt_stdio_output@@@2@@__crt_stdio_output@@AEAA_NXZ 0000000140080bd4 f i libucrt:output.obj
 0001:0007fd5c       ?state_case_size@?$output_processor@DV?$string_output_adapter@D@__crt_stdio_output@@V?$format_validation_base@DV?$string_output_adapter@D@__crt_stdio_output@@@2@@__crt_stdio_output@@AEAA_NXZ 0000000140080d5c f i libucrt:output.obj
 0001:0007fd5c       ?state_case_size@?$output_processor@DV?$string_output_adapter@D@__crt_stdio_output@@V?$standard_base@DV?$string_output_adapter@D@__crt_stdio_output@@@2@@__crt_stdio_output@@AEAA_NXZ 0000000140080d5c f i libucrt:output.obj
 0001:0007fee4       ?state_case_type@?$output_processor@DV?$stream_output_adapter@D@__crt_stdio_output@@V?$standard_base@DV?$stream_output_adapter@D@__crt_stdio_output@@@2@@__crt_stdio_output@@AEAA_NXZ 0000000140080ee4 f i libucrt:output.obj
 0001:0008031c       ?state_case_type@?$output_processor@DV?$string_output_adapter@D@__crt_stdio_output@@V?$format_validation_base@DV?$string_output_adapter@D@__crt_stdio_output@@@2@@__crt_stdio_output@@AEAA_NXZ 000000014008131c f i libucrt:output.obj
 0001:0008031c       ?state_case_type@?$output_processor@DV?$string_output_adapter@D@__crt_stdio_output@@V?$standard_base@DV?$string_output_adapter@D@__crt_stdio_output@@@2@@__crt_stdio_output@@AEAA_NXZ 000000014008131c f i libucrt:output.obj
 0001:00080720       ?type_case_Z@?$output_processor@DV?$stream_output_adapter@D@__crt_stdio_output@@V?$standard_base@DV?$stream_output_adapter@D@__crt_stdio_output@@@2@@__crt_stdio_output@@AEAA_NXZ 0000000140081720 f i libucrt:output.obj
 0001:00080720       ?type_case_Z@?$output_processor@DV?$string_output_adapter@D@__crt_stdio_output@@V?$format_validation_base@DV?$string_output_adapter@D@__crt_stdio_output@@@2@@__crt_stdio_output@@AEAA_NXZ 0000000140081720 f i libucrt:output.obj
 0001:00080720       ?type_case_Z@?$output_processor@DV?$string_output_adapter@D@__crt_stdio_output@@V?$standard_base@DV?$string_output_adapter@D@__crt_stdio_output@@@2@@__crt_stdio_output@@AEAA_NXZ 0000000140081720 f i libucrt:output.obj
 0001:0008079c       ?type_case_a@?$output_processor@DV?$stream_output_adapter@D@__crt_stdio_output@@V?$standard_base@DV?$stream_output_adapter@D@__crt_stdio_output@@@2@@__crt_stdio_output@@AEAA_NXZ 000000014008179c f i libucrt:output.obj
 0001:0008079c       ?type_case_a@?$output_processor@DV?$string_output_adapter@D@__crt_stdio_output@@V?$format_validation_base@DV?$string_output_adapter@D@__crt_stdio_output@@@2@@__crt_stdio_output@@AEAA_NXZ 000000014008179c f i libucrt:output.obj
 0001:0008079c       ?type_case_a@?$output_processor@DV?$string_output_adapter@D@__crt_stdio_output@@V?$standard_base@DV?$string_output_adapter@D@__crt_stdio_output@@@2@@__crt_stdio_output@@AEAA_NXZ 000000014008179c f i libucrt:output.obj
 0001:000809f0       ?type_case_c_tchar@?$output_processor@DV?$stream_output_adapter@D@__crt_stdio_output@@V?$standard_base@DV?$stream_output_adapter@D@__crt_stdio_output@@@2@@__crt_stdio_output@@AEAA_ND@Z 00000001400819f0 f i libucrt:output.obj
 0001:000809f0       ?type_case_c_tchar@?$output_processor@DV?$string_output_adapter@D@__crt_stdio_output@@V?$format_validation_base@DV?$string_output_adapter@D@__crt_stdio_output@@@2@@__crt_stdio_output@@AEAA_ND@Z 00000001400819f0 f i libucrt:output.obj
 0001:000809f0       ?type_case_c_tchar@?$output_processor@DV?$string_output_adapter@D@__crt_stdio_output@@V?$standard_base@DV?$string_output_adapter@D@__crt_stdio_output@@@2@@__crt_stdio_output@@AEAA_ND@Z 00000001400819f0 f i libucrt:output.obj
 0001:00080ac4       ?type_case_n@?$output_processor@DV?$stream_output_adapter@D@__crt_stdio_output@@V?$standard_base@DV?$stream_output_adapter@D@__crt_stdio_output@@@2@@__crt_stdio_output@@AEAA_NXZ 0000000140081ac4 f i libucrt:output.obj
 0001:00080ac4       ?type_case_n@?$output_processor@DV?$string_output_adapter@D@__crt_stdio_output@@V?$format_validation_base@DV?$string_output_adapter@D@__crt_stdio_output@@@2@@__crt_stdio_output@@AEAA_NXZ 0000000140081ac4 f i libucrt:output.obj
 0001:00080ac4       ?type_case_n@?$output_processor@DV?$string_output_adapter@D@__crt_stdio_output@@V?$standard_base@DV?$string_output_adapter@D@__crt_stdio_output@@@2@@__crt_stdio_output@@AEAA_NXZ 0000000140081ac4 f i libucrt:output.obj
 0001:00080b7c       ?type_case_s@?$output_processor@DV?$stream_output_adapter@D@__crt_stdio_output@@V?$standard_base@DV?$stream_output_adapter@D@__crt_stdio_output@@@2@@__crt_stdio_output@@AEAA_NXZ 0000000140081b7c f i libucrt:output.obj
 0001:00080b7c       ?type_case_s@?$output_processor@DV?$string_output_adapter@D@__crt_stdio_output@@V?$format_validation_base@DV?$string_output_adapter@D@__crt_stdio_output@@@2@@__crt_stdio_output@@AEAA_NXZ 0000000140081b7c f i libucrt:output.obj
 0001:00080b7c       ?type_case_s@?$output_processor@DV?$string_output_adapter@D@__crt_stdio_output@@V?$standard_base@DV?$string_output_adapter@D@__crt_stdio_output@@@2@@__crt_stdio_output@@AEAA_NXZ 0000000140081b7c f i libucrt:output.obj
 0001:00080c20       ?update_locale_slow@__crt_cached_ptd_host@@AEAAXXZ 0000000140081c20 f i libucrt:output.obj
 0001:00080c98       ?validate_stream_is_ansi_if_required@?$__acrt_stdio_char_traits@D@@SA_NQEAU_iobuf@@@Z 0000000140081c98 f i libucrt:output.obj
 0001:00080d34       ?write_string@?$string_output_adapter@D@__crt_stdio_output@@QEBAXQEBDHQEAHAEAV__crt_cached_ptd_host@@@Z 0000000140081d34 f i libucrt:output.obj
 0001:00080dd8       ?write_string_impl@?$output_adapter_common@DV?$stream_output_adapter@D@__crt_stdio_output@@@__crt_stdio_output@@IEBAXQEBDHQEAHAEAV__crt_cached_ptd_host@@@Z 0000000140081dd8 f i libucrt:output.obj
 0001:00080ea4       __stdio_common_vfprintf    0000000140081ea4 f   libucrt:output.obj
 0001:00080fc8       __stdio_common_vsprintf    0000000140081fc8 f   libucrt:output.obj
 0001:0008121c       __stdio_common_vsprintf_s  000000014008221c f   libucrt:output.obj
 0001:00081330       ?get_raw_ptd_noexit@__crt_cached_ptd_host@@QEAAPEAU__acrt_ptd@@XZ 0000000140082330 f i libucrt:invalid_parameter.obj
 0001:0008139c       ?value@?$dual_state_global@P6AXPEB_W00I_K@Z@__crt_state_management@@QEAAAEAP6AXPEB_W00I_K@ZAEAV__crt_cached_ptd_host@@@Z 000000014008239c f i libucrt:invalid_parameter.obj
 0001:000813e8       __acrt_call_reportfault    00000001400823e8 f   libucrt:invalid_parameter.obj
 0001:00081544       __acrt_initialize_invalid_parameter_handler 0000000140082544 f   libucrt:invalid_parameter.obj
 0001:0008154c       _invalid_parameter         000000014008254c f   libucrt:invalid_parameter.obj
 0001:000815e8       _invalid_parameter_internal 00000001400825e8 f   libucrt:invalid_parameter.obj
 0001:000816b4       _invalid_parameter_noinfo  00000001400826b4 f   libucrt:invalid_parameter.obj
 0001:000816d4       _invalid_parameter_noinfo_noreturn 00000001400826d4 f   libucrt:invalid_parameter.obj
 0001:00081704       _invoke_watson             0000000140082704 f   libucrt:invalid_parameter.obj
 0001:0008174c       __acrt_initialize_stdio    000000014008274c f   libucrt:_file.obj
 0001:0008186c       __acrt_iob_func            000000014008286c f   libucrt:_file.obj
 0001:00081880       __acrt_uninitialize_stdio  0000000140082880 f   libucrt:_file.obj
 0001:000818dc       _get_stream_buffer_pointers 00000001400828dc f   libucrt:_file.obj
 0001:00081924       _lock_file                 0000000140082924 f   libucrt:_file.obj
 0001:00081930       _unlock_file               0000000140082930 f   libucrt:_file.obj
 0001:0008193c       fmax                       000000014008293c f   libucrt:fmax.obj
 0001:00081990       strncpy                    0000000140082990 f   libucrt:strncpy.obj
 0001:00081af4       fmin                       0000000140082af4 f   libucrt:fmin.obj
 0001:00081b30       _get_sys_err_msg           0000000140082b30 f i libucrt:strerror.obj
 0001:00081b9c       strerror                   0000000140082b9c f   libucrt:strerror.obj
 0001:00081c3c       rand                       0000000140082c3c f   libucrt:rand.obj
 0001:00081f44       setlocale                  0000000140082f44 f   libucrt:setlocale.obj
 0001:00081f90       calloc                     0000000140082f90 f   libucrt:calloc.obj
 0001:00081f98       ??$__crt_time_is_leap_year@H@@YA_NH@Z 0000000140082f98 f i libucrt:wcsftime.obj
 0001:00081ff4       ??0_LocaleUpdate@@QEAA@QEAU__crt_locale_pointers@@@Z 0000000140082ff4 f i libucrt:wcsftime.obj
 0001:000836e4       _W_Getdays                 00000001400846e4 f   libucrt:wcsftime.obj
 0001:00083870       _W_Getmonths               0000000140084870 f   libucrt:wcsftime.obj
 0001:000839fc       _W_Gettnames               00000001400849fc f   libucrt:wcsftime.obj
 0001:000840a8       _Wcsftime                  00000001400850a8 f   libucrt:wcsftime.obj
 0001:000840c8       _Wcsftime_l                00000001400850c8 f   libucrt:wcsftime.obj
 0001:00084254       ??$__crt_time_is_leap_year@_J@@YA_N_J@Z 0000000140085254 f i libucrt:mktime.obj
 0001:0008460c       _mktime64                  000000014008560c f   libucrt:mktime.obj
 0001:00084614       ??$__acrt_convert_wcs_mbs_cp@D_WV<lambda_7c9dea7b4ca7285d2cdb541a38da6275>@@U__crt_win32_buffer_internal_dynamic_resizing@@@@YAHQEBDAEAV?$__crt_win32_buffer@_WU__crt_win32_buffer_internal_dynamic_resizing@@@@AEBV<lambda_7c9dea7b4ca7285d2cdb541a38da6275>@@I@Z 0000000140085614 f i libucrt:strftime.obj
 0001:00084790       ??$__acrt_convert_wcs_mbs_cp@_WDV<lambda_f788ae46380686e8b737efdd8c720d07>@@U__crt_win32_buffer_no_resizing@@@@YAHQEB_WAEAV?$__crt_win32_buffer@DU__crt_win32_buffer_no_resizing@@@@AEBV<lambda_f788ae46380686e8b737efdd8c720d07>@@I@Z 0000000140085790 f i libucrt:strftime.obj
 0001:000848ac       _Getdays                   00000001400858ac f   libucrt:strftime.obj
 0001:000848b4       _Getdays_l                 00000001400858b4 f   libucrt:strftime.obj
 0001:000849f8       _Getmonths                 00000001400859f8 f   libucrt:strftime.obj
 0001:00084a00       _Getmonths_l               0000000140085a00 f   libucrt:strftime.obj
 0001:00084b58       _Gettnames                 0000000140085b58 f   libucrt:strftime.obj
 0001:00084b60       _Strftime                  0000000140085b60 f   libucrt:strftime.obj
 0001:00084b80       _Strftime_l                0000000140085b80 f   libucrt:strftime.obj
 0001:00084cec       _time64                    0000000140085cec f   libucrt:time.obj
 0001:00084d60       free                       0000000140085d60 f   libucrt:free.obj
 0001:00084d74       malloc                     0000000140085d74 f   libucrt:malloc.obj
 0001:00084ee4       _fputc_nolock_internal     0000000140085ee4 f   libucrt:fputc.obj
 0001:00084efc       fputc                      0000000140085efc f   libucrt:fputc.obj
 0001:00085050       _fsopen                    0000000140086050 f   libucrt:fopen.obj
 0001:00085058       fopen                      0000000140086058 f   libucrt:fopen.obj
 0001:00085284       __acrt_stdio_flush_nolock  0000000140086284 f   libucrt:fflush.obj
 0001:00085310       _fflush_nolock             0000000140086310 f   libucrt:fflush.obj
 0001:000853e4       _flushall                  00000001400863e4 f   libucrt:fflush.obj
 0001:000853ec       fflush                     00000001400863ec f   libucrt:fflush.obj
 0001:00085578       fclose                     0000000140086578 f   libucrt:fclose.obj
 0001:00085610       remove                     0000000140086610 f   libucrt:unlink.obj
 0001:00085964       _fseeki64                  0000000140086964 f   libucrt:fseek.obj
 0001:000859fc       fseek                      00000001400869fc f   libucrt:fseek.obj
 0001:00085d20       __getgmtimebuf             0000000140086d20 f   libucrt:gmtime.obj
 0001:00085d6c       _gmtime64                  0000000140086d6c f   libucrt:gmtime.obj
 0001:00085db4       _gmtime64_s                0000000140086db4 f   libucrt:gmtime.obj
 0001:00085e60       strcspn                    0000000140086e60 f   libucrt:strcspn.obj
 0001:00086230       _fgetc_nolock              0000000140087230 f   libucrt:fgetc.obj
 0001:00086274       fgetc                      0000000140087274 f   libucrt:fgetc.obj
 0001:00086388       _access                    0000000140087388 f   libucrt:access.obj
 0001:0008639c       _access_s                  000000014008739c f   libucrt:access.obj
 0001:00086b78       _stat64i32                 0000000140087b78 f   libucrt:stat.obj
 0001:00086c7c       localeconv                 0000000140087c7c f   libucrt:localeconv.obj
 0001:00086d70       _fwrite_internal           0000000140087d70 f   libucrt:fwrite.obj
 0001:00086e0c       _fwrite_nolock_internal    0000000140087e0c f   libucrt:fwrite.obj
 0001:00087020       fwrite                     0000000140088020 f   libucrt:fwrite.obj
 0001:000870c4       fgetpos                    00000001400880c4 f   libucrt:fgetpos.obj
 0001:00087238       setvbuf                    0000000140088238 f   libucrt:setvbuf.obj
 0001:00087370       ??$is_overflow_condition@_K@__crt_strtox@@YA_NI_K@Z 0000000140088370 f i libucrt:atox.obj
 0001:000873a8       ??$parse_integer@KV?$c_string_character_source@D@__crt_strtox@@$00@__crt_strtox@@YAKAEAV__crt_cached_ptd_host@@V?$c_string_character_source@D@0@H_N@Z 00000001400883a8 f i libucrt:atox.obj
 0001:00087698       ??$parse_integer@KV?$c_string_character_source@_W@__crt_strtox@@$00@__crt_strtox@@YAKAEAV__crt_cached_ptd_host@@V?$c_string_character_source@_W@0@H_N@Z 0000000140088698 f i libucrt:atox.obj
 0001:00087e34       ??$parse_integer@_KV?$c_string_character_source@D@__crt_strtox@@$00@__crt_strtox@@YA_KAEAV__crt_cached_ptd_host@@V?$c_string_character_source@D@0@H_N@Z 0000000140088e34 f i libucrt:atox.obj
 0001:00088110       _ischartype_l              0000000140089110 f i libucrt:atox.obj
 0001:00088188       _wtol                      0000000140089188 f   libucrt:atox.obj
 0001:00088238       atoi                       0000000140089238 f   libucrt:atox.obj
 0001:000882e8       _ungetc_nolock             00000001400892e8 f   libucrt:ungetc.obj
 0001:00088408       ungetc                     0000000140089408 f   libucrt:ungetc.obj
 0001:00088460       frexp                      0000000140089460 f   libucrt:frexp.obj
 0001:00088558       fsetpos                    0000000140089558 f   libucrt:fsetpos.obj
 0001:00088590       _ctime64                   0000000140089590 f   libucrt:ctime.obj
 0001:00088604       _fread_nolock_s            0000000140089604 f   libucrt:fread.obj
 0001:00088864       fread                      0000000140089864 f   libucrt:fread.obj
 0001:00088884       fread_s                    0000000140089884 f   libucrt:fread.obj
 0001:0008892c       realloc                    000000014008992c f   libucrt:realloc.obj
 0001:00088934       ??$parse_floating_point@V?$input_adapter_character_source@V?$string_input_adapter@D@__crt_stdio_input@@@__crt_strtox@@M@__crt_strtox@@YA?AW4SLD_STATUS@@QEAU__crt_locale_pointers@@V?$input_adapter_character_source@V?$string_input_adapter@D@__crt_stdio_input@@@0@QEAM@Z 0000000140089934 f i libucrt:input.obj
 0001:000889dc       ??$parse_floating_point@V?$input_adapter_character_source@V?$string_input_adapter@D@__crt_stdio_input@@@__crt_strtox@@N@__crt_strtox@@YA?AW4SLD_STATUS@@QEAU__crt_locale_pointers@@V?$input_adapter_character_source@V?$string_input_adapter@D@__crt_stdio_input@@@0@QEAN@Z 00000001400899dc f i libucrt:input.obj
 0001:00088a84       ??$parse_floating_point_from_source@V?$input_adapter_character_source@V?$string_input_adapter@D@__crt_stdio_input@@@__crt_strtox@@@__crt_strtox@@YA?AW4floating_point_parse_result@0@QEAU__crt_locale_pointers@@AEAV?$input_adapter_character_source@V?$string_input_adapter@D@__crt_stdio_input@@@0@AEAUfloating_point_string@0@@Z 0000000140089a84 f i libucrt:input.obj
 0001:00089230       ??$parse_floating_point_possible_infinity@DV?$input_adapter_character_source@V?$string_input_adapter@D@__crt_stdio_input@@@__crt_strtox@@_K@__crt_strtox@@YA?AW4floating_point_parse_result@0@AEADAEAV?$input_adapter_character_source@V?$string_input_adapter@D@__crt_stdio_input@@@0@_K@Z 000000014008a230 f i libucrt:input.obj
 0001:000893dc       ??$parse_floating_point_possible_nan@DV?$input_adapter_character_source@V?$string_input_adapter@D@__crt_stdio_input@@@__crt_strtox@@_K@__crt_strtox@@YA?AW4floating_point_parse_result@0@AEADAEAV?$input_adapter_character_source@V?$string_input_adapter@D@__crt_stdio_input@@@0@_K@Z 000000014008a3dc f i libucrt:input.obj
 0001:0008963c       ??$parse_floating_point_possible_nan_is_ind@DV?$input_adapter_character_source@V?$string_input_adapter@D@__crt_stdio_input@@@__crt_strtox@@@__crt_strtox@@YA_NAEADAEAV?$input_adapter_character_source@V?$string_input_adapter@D@__crt_stdio_input@@@0@@Z 000000014008a63c f i libucrt:input.obj
 0001:000896b8       ??$parse_floating_point_possible_nan_is_snan@DV?$input_adapter_character_source@V?$string_input_adapter@D@__crt_stdio_input@@@__crt_strtox@@@__crt_strtox@@YA_NAEADAEAV?$input_adapter_character_source@V?$string_input_adapter@D@__crt_stdio_input@@@0@@Z 000000014008a6b8 f i libucrt:input.obj
 0001:00089734       ??$parse_floating_point_write_result@M@__crt_strtox@@YA?AW4SLD_STATUS@@W4floating_point_parse_result@0@AEBUfloating_point_string@0@QEAM@Z 000000014008a734 f i libucrt:input.obj
 0001:000898a4       ??$parse_floating_point_write_result@N@__crt_strtox@@YA?AW4SLD_STATUS@@W4floating_point_parse_result@0@AEBUfloating_point_string@0@QEAN@Z 000000014008a8a4 f i libucrt:input.obj
 0001:00089a84       ??$parse_integer@_KV?$input_adapter_character_source@V?$string_input_adapter@D@__crt_stdio_input@@@__crt_strtox@@$00@__crt_strtox@@YA_KAEAV__crt_cached_ptd_host@@V?$input_adapter_character_source@V?$string_input_adapter@D@__crt_stdio_input@@@0@H_N@Z 000000014008aa84 f i libucrt:input.obj
 0001:00089ec0       ??$parse_integer@_KV?$input_adapter_character_source@V?$string_input_adapter@D@__crt_stdio_input@@@__crt_strtox@@@__crt_strtox@@YA_KQEAU__crt_locale_pointers@@V?$input_adapter_character_source@V?$string_input_adapter@D@__crt_stdio_input@@@0@H_N@Z 000000014008aec0 f i libucrt:input.obj
 0001:00089fc0       ??$process_floating_point_specifier_t@M@?$input_processor@DV?$string_input_adapter@D@__crt_stdio_input@@@__crt_stdio_input@@AEAA_NXZ 000000014008afc0 f i libucrt:input.obj
 0001:0008a068       ??$process_floating_point_specifier_t@N@?$input_processor@DV?$string_input_adapter@D@__crt_stdio_input@@@__crt_stdio_input@@AEAA_NXZ 000000014008b068 f i libucrt:input.obj
 0001:0008a110       ??$process_string_specifier_tchar@D@?$input_processor@DV?$string_input_adapter@D@__crt_stdio_input@@@__crt_stdio_input@@AEAA_NW4conversion_mode@1@D@Z 000000014008b110 f i libucrt:input.obj
 0001:0008a2c4       ??$process_string_specifier_tchar@_W@?$input_processor@DV?$string_input_adapter@D@__crt_stdio_input@@@__crt_stdio_input@@AEAA_NW4conversion_mode@1@_W@Z 000000014008b2c4 f i libucrt:input.obj
 0001:0008a4a4       ??$skip_whitespace@Vstring_input_adapter@__crt_stdio_input@@D@__crt_stdio_input@@YAHAEAV?$string_input_adapter@D@0@QEAU__crt_locale_pointers@@@Z 000000014008b4a4 f i libucrt:input.obj
 0001:0008a4f8       ??R<lambda_1db4d925c2db10274e92824f631ccf5d>@@QEBA@XZ 000000014008b4f8 f i libucrt:input.obj
 0001:0008a4f8       ??R<lambda_bdd123a27a08a14f93fbf44b617d0736>@@QEBA@XZ 000000014008b4f8 f i libucrt:input.obj
 0001:0008a4f8       ??R<lambda_ee7c83d9f0cd4f1299194e0a8d424b67>@@QEBA@XZ 000000014008b4f8 f i libucrt:input.obj
 0001:0008a55c       ?advance@?$format_string_parser@D@__crt_stdio_input@@QEAA_NXZ 000000014008b55c f i libucrt:input.obj
 0001:0008a724       ?as_double@floating_point_value@__crt_strtox@@QEBAAEANXZ 000000014008b724 f i libucrt:input.obj
 0001:0008a760       ?as_float@floating_point_value@__crt_strtox@@QEBAAEAMXZ 000000014008b760 f i libucrt:input.obj
 0001:0008a79c       ?assemble_floating_point_value@__crt_strtox@@YA?AW4SLD_STATUS@@_KH_N1AEBVfloating_point_value@1@@Z 000000014008b79c f i libucrt:input.obj
 0001:0008ab48       ?assemble_floating_point_value_from_big_integer@__crt_strtox@@YA?AW4SLD_STATUS@@AEBUbig_integer@1@I_N1AEBVfloating_point_value@1@@Z 000000014008bb48 f i libucrt:input.obj
 0001:0008aca8       ?convert_decimal_string_to_floating_type_common@__crt_strtox@@YA?AW4SLD_STATUS@@AEBUfloating_point_string@1@AEBVfloating_point_value@1@@Z 000000014008bca8 f i libucrt:input.obj
 0001:0008cb28       ?convert_hexadecimal_string_to_floating_type_common@__crt_strtox@@YA?AW4SLD_STATUS@@AEBUfloating_point_string@1@AEBVfloating_point_value@1@@Z 000000014008db28 f i libucrt:input.obj
 0001:0008cbe0       ?divide@__crt_strtox@@YA_KAEAUbig_integer@1@AEBU21@@Z 000000014008dbe0 f i libucrt:input.obj
 0001:0008d07c       ?length@?$format_string_parser@D@__crt_stdio_input@@QEBA_KXZ 000000014008e07c f i libucrt:input.obj
 0001:0008d134       ?process@?$input_processor@DV?$string_input_adapter@D@__crt_stdio_input@@@__crt_stdio_input@@QEAAHXZ 000000014008e134 f i libucrt:input.obj
 0001:0008d228       ?process_conversion_specifier@?$input_processor@DV?$string_input_adapter@D@__crt_stdio_input@@@__crt_stdio_input@@AEAA_NXZ 000000014008e228 f i libucrt:input.obj
 0001:0008d348       ?process_floating_point_specifier@?$input_processor@DV?$string_input_adapter@D@__crt_stdio_input@@@__crt_stdio_input@@AEAA_NXZ 000000014008e348 f i libucrt:input.obj
 0001:0008d3b8       ?process_integer_specifier@?$input_processor@DV?$string_input_adapter@D@__crt_stdio_input@@@__crt_stdio_input@@AEAA_NI_N@Z 000000014008e3b8 f i libucrt:input.obj
 0001:0008d470       ?process_literal_character_tchar@?$input_processor@DV?$string_input_adapter@D@__crt_stdio_input@@@__crt_stdio_input@@AEAA_ND@Z 000000014008e470 f i libucrt:input.obj
 0001:0008d4f8       ?process_state@?$input_processor@DV?$string_input_adapter@D@__crt_stdio_input@@@__crt_stdio_input@@AEAA_NXZ 000000014008e4f8 f i libucrt:input.obj
 0001:0008d5b0       ?process_string_specifier@?$input_processor@DV?$string_input_adapter@D@__crt_stdio_input@@@__crt_stdio_input@@AEAA_NW4conversion_mode@2@@Z 000000014008e5b0 f i libucrt:input.obj
 0001:0008d63c       ?scan_conversion_specifier@?$format_string_parser@D@__crt_stdio_input@@AEAA_NXZ 000000014008e63c f i libucrt:input.obj
 0001:0008d804       ?scan_optional_field_width@?$format_string_parser@D@__crt_stdio_input@@AEAA_NXZ 000000014008e804 f i libucrt:input.obj
 0001:0008d8a4       ?scan_optional_length_modifier@?$format_string_parser@D@__crt_stdio_input@@AEAAXXZ 000000014008e8a4 f i libucrt:input.obj
 0001:0008d9d0       ?scan_scanset_range@?$format_string_parser@D@__crt_stdio_input@@AEAA_NXZ 000000014008e9d0 f i libucrt:input.obj
 0001:0008db68       ?write_character@?$input_processor@DV?$string_input_adapter@D@__crt_stdio_input@@@__crt_stdio_input@@AEAA_NQEFA_W_KAEAPEFA_WAEA_KD@Z 000000014008eb68 f i libucrt:input.obj
 0001:0008dc00       ?write_integer@?$input_processor@DV?$string_input_adapter@D@__crt_stdio_input@@@__crt_stdio_input@@AEAA_N_K@Z 000000014008ec00 f i libucrt:input.obj
 0001:0008dc7c       __stdio_common_vsscanf     000000014008ec7c f   libucrt:input.obj
 0001:0008de28       ??$__acrt_convert_wcs_mbs_cp@_WDV<lambda_d8593a27d1aa8c02be35c86a17d324c4>@@U__crt_win32_buffer_internal_dynamic_resizing@@@@YAHQEB_WAEAV?$__crt_win32_buffer@DU__crt_win32_buffer_internal_dynamic_resizing@@@@AEBV<lambda_d8593a27d1aa8c02be35c86a17d324c4>@@I@Z 000000014008ee28 f i libucrt:chdir.obj
 0001:0008dfb4       ??$__acrt_get_current_directory_narrow_acp_or_utf8@U__crt_win32_buffer_internal_dynamic_resizing@@@@YAHAEAV?$__crt_win32_buffer@DU__crt_win32_buffer_internal_dynamic_resizing@@@@@Z 000000014008efb4 f i libucrt:chdir.obj
 0001:0008e0d8       ??$call_win32_function@V<lambda_31b6d45744ab507ef0f4bc45493ab729>@@@?$__crt_win32_buffer@_WU__crt_win32_buffer_internal_dynamic_resizing@@@@QEAAHAEBV<lambda_31b6d45744ab507ef0f4bc45493ab729>@@@Z 000000014008f0d8 f i libucrt:chdir.obj
 0001:0008e19c       _chdir                     000000014008f19c f   libucrt:chdir.obj
 0001:0008e5d0       _localtime64               000000014008f5d0 f   libucrt:localtime.obj
 0001:0008e618       _localtime64_s             000000014008f618 f   libucrt:localtime.obj
 0001:0008e770       ??$parse_floating_point@V?$c_string_character_source@D@__crt_strtox@@M@__crt_strtox@@YA?AW4SLD_STATUS@@QEAU__crt_locale_pointers@@V?$c_string_character_source@D@0@QEAM@Z 000000014008f770 f i libucrt:strtod.obj
 0001:0008e810       ??$parse_floating_point@V?$c_string_character_source@D@__crt_strtox@@N@__crt_strtox@@YA?AW4SLD_STATUS@@QEAU__crt_locale_pointers@@V?$c_string_character_source@D@0@QEAN@Z 000000014008f810 f i libucrt:strtod.obj
 0001:0008e8b0       ??$parse_floating_point_from_source@V?$c_string_character_source@D@__crt_strtox@@@__crt_strtox@@YA?AW4floating_point_parse_result@0@QEAU__crt_locale_pointers@@AEAV?$c_string_character_source@D@0@AEAUfloating_point_string@0@@Z 000000014008f8b0 f i libucrt:strtod.obj
 0001:0008ed58       ??$parse_floating_point_possible_infinity@DV?$c_string_character_source@D@__crt_strtox@@PEBD@__crt_strtox@@YA?AW4floating_point_parse_result@0@AEADAEAV?$c_string_character_source@D@0@PEBD@Z 000000014008fd58 f i libucrt:strtod.obj
 0001:0008ee9c       ??$parse_floating_point_possible_nan@DV?$c_string_character_source@D@__crt_strtox@@PEBD@__crt_strtox@@YA?AW4floating_point_parse_result@0@AEADAEAV?$c_string_character_source@D@0@PEBD@Z 000000014008fe9c f i libucrt:strtod.obj
 0001:0008f088       ??$parse_floating_point_possible_nan_is_ind@DV?$c_string_character_source@D@__crt_strtox@@@__crt_strtox@@YA_NAEADAEAV?$c_string_character_source@D@0@@Z 0000000140090088 f i libucrt:strtod.obj
 0001:0008f0d0       ??$parse_floating_point_possible_nan_is_snan@DV?$c_string_character_source@D@__crt_strtox@@@__crt_strtox@@YA_NAEADAEAV?$c_string_character_source@D@0@@Z 00000001400900d0 f i libucrt:strtod.obj
 0001:0008f118       strtod                     0000000140090118 f   libucrt:strtod.obj
 0001:0008f120       strtof                     0000000140090120 f   libucrt:strtod.obj
 0001:0008f170       __acrt_get_sigabrt_handler 0000000140090170 f   libucrt:signal.obj
 0001:0008f1a0       __acrt_initialize_signal_handlers 00000001400901a0 f   libucrt:signal.obj
 0001:0008f1c0       raise                      00000001400901c0 f   libucrt:signal.obj
 0001:0008ffa8       __tzset                    0000000140090fa8 f   libucrt:tzset.obj
 0001:0008ffec       _isindst                   0000000140090fec f   libucrt:tzset.obj
 0001:0009001c       __acrt_initialize_timeset  000000014009101c f   libucrt:timeset.obj
 0001:0009006c       __daylight                 000000014009106c f   libucrt:timeset.obj
 0001:00090074       __dstbias                  0000000140091074 f   libucrt:timeset.obj
 0001:0009007c       __timezone                 000000014009107c f   libucrt:timeset.obj
 0001:00090084       __tzname                   0000000140091084 f   libucrt:timeset.obj
 0001:0009008c       __wide_tzname              000000014009108c f   libucrt:timeset.obj
 0001:00090094       _get_daylight              0000000140091094 f   libucrt:timeset.obj
 0001:000900c4       _get_dstbias               00000001400910c4 f   libucrt:timeset.obj
 0001:000900f4       _get_timezone              00000001400910f4 f   libucrt:timeset.obj
 0001:00090130       islower                    0000000140091130 f   libucrt:_ctype.obj
 0001:000901e0       isspace                    00000001400911e0 f   libucrt:_ctype.obj
 0001:00090290       isupper                    0000000140091290 f   libucrt:_ctype.obj
 0001:00090338       abort                      0000000140091338 f   libucrt:abort.obj
 0001:00090390       __acrt_errno_from_os_error 0000000140091390 f   libucrt:errno.obj
 0001:000903d8       __acrt_errno_map_os_error  00000001400913d8 f   libucrt:errno.obj
 0001:00090420       __acrt_errno_map_os_error_ptd 0000000140091420 f   libucrt:errno.obj
 0001:00090444       __doserrno                 0000000140091444 f   libucrt:errno.obj
 0001:00090464       _errno                     0000000140091464 f   libucrt:errno.obj
 0001:00090484       __acrt_initialize_locks    0000000140091484 f   libucrt:locks.obj
 0001:000904cc       __acrt_lock                00000001400914cc f   libucrt:locks.obj
 0001:000904e8       __acrt_uninitialize_locks  00000001400914e8 f   libucrt:locks.obj
 0001:00090520       __acrt_unlock              0000000140091520 f   libucrt:locks.obj
 0001:0009053c       _lock_locales              000000014009153c f   libucrt:locks.obj
 0001:00090558       _unlock_locales            0000000140091558 f   libucrt:locks.obj
 0001:00090568       _dsign                     0000000140091568 f   libucrt:nan.obj
 0001:00090580       ___lc_codepage_func        0000000140091580 f   libucrt:initctype.obj
 0001:000905b0       ___lc_collate_cp_func      00000001400915b0 f   libucrt:initctype.obj
 0001:000905e0       ___lc_locale_name_func     00000001400915e0 f   libucrt:initctype.obj
 0001:00090614       ___mb_cur_max_func         0000000140091614 f   libucrt:initctype.obj
 0001:00090644       __acrt_locale_initialize_ctype 0000000140091644 f   libucrt:initctype.obj
 0001:00090ca8       __pctype_func              0000000140091ca8 f   libucrt:ctype.obj
 0001:00090cd8       _wcsdup                    0000000140091cd8 f   libucrt:wcsdup.obj
 0001:00090d5c       _tolower_l                 0000000140091d5c f   libucrt:tolower_toupper.obj
 0001:00090e90       _toupper_l                 0000000140091e90 f   libucrt:tolower_toupper.obj
 0001:00090fc4       tolower                    0000000140091fc4 f   libucrt:tolower_toupper.obj
 0001:00090ff0       toupper                    0000000140091ff0 f   libucrt:tolower_toupper.obj
 0001:0009101c       __strncnt                  000000014009201c f   libucrt:strncnt.obj
 0001:00091034       strnlen                    0000000140092034 f   libucrt:strnlen.obj
 0001:00091184       wcsnlen                    0000000140092184 f   libucrt:strnlen.obj
 0001:0009135c       __acrt_initialize_new_handler 000000014009235c f   libucrt:new_handler.obj
 0001:00091364       _callnewh                  0000000140092364 f   libucrt:new_handler.obj
 0001:000913a4       _query_new_handler         00000001400923a4 f   libucrt:new_handler.obj
 0001:000913dc       terminate                  00000001400923dc f   libucrt:terminate.obj
 0001:00091408       _seh_filter_exe            0000000140092408 f   libucrt:exception_filter.obj
 0001:00091820       __acrt_initialize_thread_local_exit_callback 0000000140092820 f   libucrt:exit.obj
 0001:00091828       _c_exit                    0000000140092828 f   libucrt:exit.obj
 0001:00091838       _cexit                     0000000140092838 f   libucrt:exit.obj
 0001:00091848       _exit                      0000000140092848 f   libucrt:exit.obj
 0001:00091854       _register_thread_local_exe_atexit_callback 0000000140092854 f   libucrt:exit.obj
 0001:00091894       exit                       0000000140092894 f   libucrt:exit.obj
 0001:00091a68       __acrt_allocate_buffer_for_argv 0000000140092a68 f   libucrt:argv_parsing.obj
 0001:00091ac8       _configure_narrow_argv     0000000140092ac8 f   libucrt:argv_parsing.obj
 0001:00092098       __dcrt_get_or_create_wide_environment_nolock 0000000140093098 f   libucrt:environment_initialization.obj
 0001:000920d4       __dcrt_uninitialize_environments_nolock 00000001400930d4 f   libucrt:environment_initialization.obj
 0001:00092118       _initialize_narrow_environment 0000000140093118 f   libucrt:environment_initialization.obj
 0001:00092468       _crt_atexit                0000000140093468 f   libucrt:onexit.obj
 0001:00092478       _execute_onexit_table      0000000140093478 f   libucrt:onexit.obj
 0001:000924bc       _initialize_onexit_table   00000001400934bc f   libucrt:onexit.obj
 0001:000924e4       _register_onexit_function  00000001400934e4 f   libucrt:onexit.obj
 0001:00092658       __acrt_initialize          0000000140093658 f   libucrt:initialization.obj
 0001:0009266c       __acrt_uninitialize        000000014009366c f   libucrt:initialization.obj
 0001:000926a4       _query_app_type            00000001400936a4 f   libucrt:report_runtime_error.obj
 0001:000926ac       _set_app_type              00000001400936ac f   libucrt:report_runtime_error.obj
 0001:000926b4       __acrt_has_user_matherr    00000001400936b4 f   libucrt:matherr.obj
 0001:000926d4       __acrt_initialize_user_matherr 00000001400936d4 f   libucrt:matherr.obj
 0001:000926dc       __acrt_invoke_user_matherr 00000001400936dc f   libucrt:matherr.obj
 0001:00092718       __setusermatherr           0000000140093718 f   libucrt:matherr.obj
 0001:00092740       _get_narrow_winmain_command_line 0000000140093740 f   libucrt:argv_winmain.obj
 0001:000927b0       _initterm                  00000001400937b0 f   libucrt:initterm.obj
 0001:000927f4       _initterm_e                00000001400937f4 f   libucrt:initterm.obj
 0001:0009283c       _get_fmode                 000000014009383c f   libucrt:setmode.obj
 0001:0009286c       _set_fmode                 000000014009386c f   libucrt:setmode.obj
 0001:000928ac       _setmode_nolock            00000001400938ac f   libucrt:setmode.obj
 0001:00092bf8       ?commit_locale_name@_expandlocale_locale_name_cache@@QEAAXQEB_W_K@Z 0000000140093bf8 f i libucrt:wsetlocale.obj
 0001:00092c70       __acrt_copy_locale_name    0000000140093c70 f   libucrt:wsetlocale.obj
 0001:00092cf4       __acrt_set_locale_changed  0000000140093cf4 f   libucrt:wsetlocale.obj
 0001:00092d00       __acrt_uninitialize_locale 0000000140093d00 f   libucrt:wsetlocale.obj
 0001:00092d30       __lc_lctowcs               0000000140093d30 f   libucrt:wsetlocale.obj
 0001:00092dd4       __lc_wcstolc               0000000140093dd4 f   libucrt:wsetlocale.obj
 0001:00092f3c       _configthreadlocale        0000000140093f3c f   libucrt:wsetlocale.obj
 0001:000934e8       _wcscats                   00000001400944e8 f   libucrt:wsetlocale.obj
 0001:00093550       _wsetlocale                0000000140094550 f   libucrt:wsetlocale.obj
 0001:0009427c       _query_new_mode            000000014009527c f   libucrt:new_mode.obj
 0001:00094284       _set_new_mode              0000000140095284 f   libucrt:new_mode.obj
 0001:000942b0       __p__commode               00000001400952b0 f   libucrt:ncommode.obj
 0001:000942b8       strcpy_s                   00000001400952b8 f   libucrt:strcpy_s.obj
 0001:00094330       strncmp                    0000000140095330 f   libucrt:strncmp.obj
 0001:000943b0       wcsncmp                    00000001400953b0 f   libucrt:wcsncmp.obj
 0001:000943dc       _free_base                 00000001400953dc f   libucrt:free_base.obj
 0001:00094418       _malloc_base               0000000140095418 f   libucrt:malloc_base.obj
 0001:00094478       __acrt_update_locale_info  0000000140095478 f   libucrt:locale_update.obj
 0001:000944ac       __acrt_update_locale_info_explicit 00000001400954ac f   libucrt:locale_update.obj
 0001:000944e4       __acrt_update_multibyte_info 00000001400954e4 f   libucrt:locale_update.obj
 0001:00094518       __acrt_update_multibyte_info_explicit 0000000140095518 f   libucrt:locale_update.obj
 0001:00095064       __acrt_fp_format           0000000140096064 f   libucrt:cvt.obj
 0001:0009534c       _wctomb_internal           000000014009634c f   libucrt:wctomb.obj
 0001:000954fc       _mbtowc_internal           00000001400964fc f   libucrt:mbtowc.obj
 0001:00095674       _mbtowc_l                  0000000140096674 f   libucrt:mbtowc.obj
 0001:00095718       _fileno                    0000000140096718 f   libucrt:fileno.obj
 0001:00095740       _get_printf_count_output   0000000140096740 f   libucrt:printf_count_output.obj
 0001:00095758       __acrt_should_use_temporary_buffer 0000000140096758 f   libucrt:_sftbuf.obj
 0001:000957a4       __acrt_stdio_begin_temporary_buffering_nolock 00000001400967a4 f   libucrt:_sftbuf.obj
 0001:0009586c       __acrt_stdio_end_temporary_buffering_nolock 000000014009686c f   libucrt:_sftbuf.obj
 0001:00095c24       __acrt_getptd              0000000140096c24 f   libucrt:per_thread_data.obj
 0001:00095cf8       __acrt_getptd_head         0000000140096cf8 f   libucrt:per_thread_data.obj
 0001:00095d9c       __acrt_getptd_noexit       0000000140096d9c f   libucrt:per_thread_data.obj
 0001:00095e64       __acrt_getptd_noexit_explicit 0000000140096e64 f   libucrt:per_thread_data.obj
 0001:00095f24       __acrt_initialize_ptd      0000000140096f24 f   libucrt:per_thread_data.obj
 0001:00095f60       __acrt_uninitialize_ptd    0000000140096f60 f   libucrt:per_thread_data.obj
 0001:0009617c       __acrt_initialize_lowio    000000014009717c f   libucrt:ioinit.obj
 0001:000961b8       __acrt_uninitialize_lowio  00000001400971b8 f   libucrt:ioinit.obj
 0001:000961f8       _calloc_base               00000001400971f8 f   libucrt:calloc_base.obj
 0001:000964e0       __acrt_AppPolicyGetProcessTerminationMethodInternal 00000001400974e0 f   libucrt:winapi_thunks.obj
 0001:00096538       __acrt_AreFileApisANSI     0000000140097538 f   libucrt:winapi_thunks.obj
 0001:0009657c       __acrt_CompareStringEx     000000014009757c f   libucrt:winapi_thunks.obj
 0001:00096668       __acrt_EnumSystemLocalesEx 0000000140097668 f   libucrt:winapi_thunks.obj
 0001:00096708       __acrt_FlsAlloc            0000000140097708 f   libucrt:winapi_thunks.obj
 0001:00096710       __acrt_FlsFree             0000000140097710 f   libucrt:winapi_thunks.obj
 0001:00096718       __acrt_FlsGetValue         0000000140097718 f   libucrt:winapi_thunks.obj
 0001:00096720       __acrt_FlsSetValue         0000000140097720 f   libucrt:winapi_thunks.obj
 0001:00096728       __acrt_GetDateFormatEx     0000000140097728 f   libucrt:winapi_thunks.obj
 0001:000967e8       __acrt_GetLocaleInfoEx     00000001400977e8 f   libucrt:winapi_thunks.obj
 0001:00096878       __acrt_GetTimeFormatEx     0000000140097878 f   libucrt:winapi_thunks.obj
 0001:0009692c       __acrt_GetUserDefaultLocaleName 000000014009792c f   libucrt:winapi_thunks.obj
 0001:00096998       __acrt_InitializeCriticalSectionEx 0000000140097998 f   libucrt:winapi_thunks.obj
 0001:00096a08       __acrt_IsValidLocaleName   0000000140097a08 f   libucrt:winapi_thunks.obj
 0001:00096a6c       __acrt_LCIDToLocaleName    0000000140097a6c f   libucrt:winapi_thunks.obj
 0001:00096af0       __acrt_LCMapStringEx       0000000140097af0 f   libucrt:winapi_thunks.obj
 0001:00096bdc       __acrt_LocaleNameToLCID    0000000140097bdc f   libucrt:winapi_thunks.obj
 0001:00096c3c       __acrt_can_use_vista_locale_apis 0000000140097c3c f   libucrt:winapi_thunks.obj
 0001:00096c6c       __acrt_eagerly_load_locale_apis 0000000140097c6c f   libucrt:winapi_thunks.obj
 0001:00096dc8       __acrt_initialize_winapi_thunks 0000000140097dc8 f   libucrt:winapi_thunks.obj
 0001:00096dec       __acrt_uninitialize_winapi_thunks 0000000140097dec f   libucrt:winapi_thunks.obj
 0001:00096e30       _fcloseall                 0000000140097e30 f   libucrt:closeall.obj
 0001:00096ee4       __acrt_stdio_free_buffer_nolock 0000000140097ee4 f   libucrt:_freebuf.obj
 0001:00096f28       __sys_errlist              0000000140097f28 f   libucrt:syserr.obj
 0001:00096f30       __sys_nerr                 0000000140097f30 f   libucrt:syserr.obj
 0001:00097254       mbstowcs_s                 0000000140098254 f   libucrt:mbstowcs.obj
 0001:000972fc       strncpy_s                  00000001400982fc f   libucrt:strncpy_s.obj
 0001:00097840       _wcstombs_s_l              0000000140098840 f   libucrt:wcstombs.obj
 0001:000978f8       wcscpy_s                   00000001400988f8 f   libucrt:wcscpy_s.obj
 0001:00097960       __ascii_wcsicmp            0000000140098960 f   libucrt:wcsicmp.obj
 0001:000979a0       _wcsicmp                   00000001400989a0 f   libucrt:wcsicmp.obj
 0001:000979e8       _wcsicmp_l                 00000001400989e8 f   libucrt:wcsicmp.obj
 0001:00097b1c       __acrt_MultiByteToWideChar 0000000140098b1c f   libucrt:multibytetowidechar.obj
 0001:00097bac       __acrt_WideCharToMultiByte 0000000140098bac f   libucrt:widechartomultibyte.obj
 0001:00097e00       __acrt_stdio_flush_and_write_narrow_nolock 0000000140098e00 f   libucrt:_flsbuf.obj
 0001:00097ecc       ?__acrt_stdio_allocate_stream@@YA?AV__crt_stdio_stream@@XZ 0000000140098ecc f   libucrt:stream.obj
 0001:00097f24       ?__acrt_stdio_free_stream@@YAXV__crt_stdio_stream@@@Z 0000000140098f24 f   libucrt:stream.obj
 0001:0009802c       ??$__acrt_stdio_parse_mode@D@@YA?AU__acrt_stdio_stream_mode@@QEBD@Z 000000014009902c f i libucrt:openfile.obj
 0001:000982f0       _openfile                  00000001400992f0 f   libucrt:openfile.obj
 0001:00098418       _commit                    0000000140099418 f   libucrt:commit.obj
 0001:00098cb4       _write                     0000000140099cb4 f   libucrt:write.obj
 0001:00098d4c       _write_internal            0000000140099d4c f   libucrt:write.obj
 0001:00098e6c       _write_nolock              0000000140099e6c f   libucrt:write.obj
 0001:000991ec       _close_internal            000000014009a1ec f   libucrt:close.obj
 0001:000992b0       _close_nolock              000000014009a2b0 f   libucrt:close.obj
 0001:00099348       _close_nolock_internal     000000014009a348 f   libucrt:close.obj
 0001:00099418       _wremove                   000000014009a418 f   libucrt:wunlink.obj
 0001:0009960c       _lseeki64                  000000014009a60c f   libucrt:lseek.obj
 0001:000996a8       _lseeki64_internal         000000014009a6a8 f   libucrt:lseek.obj
 0001:000996b0       _lseeki64_nolock           000000014009a6b0 f   libucrt:lseek.obj
 0001:0009974c       _lseeki64_nolock_internal  000000014009a74c f   libucrt:lseek.obj
 0001:00099c48       _ftelli64                  000000014009ac48 f   libucrt:ftell.obj
 0001:00099ce4       _ftelli64_nolock_internal  000000014009ace4 f   libucrt:ftell.obj
 0001:00099cec       __acrt_stdio_refill_and_read_narrow_nolock 000000014009acec f   libucrt:_filbuf.obj
 0001:00099e54       _waccess_s                 000000014009ae54 f   libucrt:waccess.obj
 0001:00099f00       _getdrive                  000000014009af00 f   libucrt:drive.obj
 0001:00099ff8       ??$call_win32_function@V<lambda_17b8e77e04f0039ff1429d79b8271fa1>@@@?$__crt_win32_buffer@_WU__crt_win32_buffer_no_resizing@@@@QEAAHAEBV<lambda_17b8e77e04f0039ff1429d79b8271fa1>@@@Z 000000014009aff8 f i libucrt:fullpath.obj
 0001:0009a06c       ??$call_win32_function@V<lambda_1a60cddbd8640ed4c95e91b82cd9827b>@@@?$__crt_win32_buffer@_WU__crt_win32_buffer_public_dynamic_resizing@@@@QEAAHAEBV<lambda_1a60cddbd8640ed4c95e91b82cd9827b>@@@Z 000000014009b06c f i libucrt:fullpath.obj
 0001:0009a144       ?detach@?$__crt_win32_buffer@_WU__crt_win32_buffer_public_dynamic_resizing@@@@QEAAPEA_WXZ 000000014009b144 f i libucrt:fullpath.obj
 0001:0009a228       _wfullpath                 000000014009b228 f   libucrt:fullpath.obj
 0001:0009a2dc       wcspbrk                    000000014009b2dc f   libucrt:wcspbrk.obj
 0001:0009a310       __acrt_lowio_create_handle_array 000000014009b310 f   libucrt:osfinfo.obj
 0001:0009a3b8       __acrt_lowio_destroy_handle_array 000000014009b3b8 f   libucrt:osfinfo.obj
 0001:0009a408       __acrt_lowio_ensure_fh_exists 000000014009b408 f   libucrt:osfinfo.obj
 0001:0009a4b0       __acrt_lowio_lock_fh       000000014009b4b0 f   libucrt:osfinfo.obj
 0001:0009a4d8       __acrt_lowio_set_os_handle 000000014009b4d8 f   libucrt:osfinfo.obj
 0001:0009a598       __acrt_lowio_unlock_fh     000000014009b598 f   libucrt:osfinfo.obj
 0001:0009a5c0       _alloc_osfhnd              000000014009b5c0 f   libucrt:osfinfo.obj
 0001:0009a700       _free_osfhnd               000000014009b700 f   libucrt:osfinfo.obj
 0001:0009a7bc       _get_osfhandle             000000014009b7bc f   libucrt:osfinfo.obj
 0001:0009aa68       __loctotime64_t            000000014009ba68 f   libucrt:loctotime.obj
 0001:0009aa70       iswctype                   000000014009ba70 f   libucrt:iswctype.obj
 0001:0009aadc       _isctype_l                 000000014009badc f   libucrt:isctype.obj
 0001:0009abe4       __acrt_stdio_allocate_buffer_nolock 000000014009bbe4 f   libucrt:_getbuf.obj
 0001:0009ac50       _errcode                   000000014009bc50 f   libucrt:fpexcept.obj
 0001:0009ac94       _except1                   000000014009bc94 f   libucrt:fpexcept.obj
 0001:0009ad88       _handle_exc                000000014009bd88 f   libucrt:fpexcept.obj
 0001:0009b07c       _raise_exc                 000000014009c07c f   libucrt:fpexcept.obj
 0001:0009b0a4       _raise_exc_ex              000000014009c0a4 f   libucrt:fpexcept.obj
 0001:0009b3ac       _raise_excf                000000014009c3ac f   libucrt:fpexcept.obj
 0001:0009b3d8       _set_errno_from_matherr    000000014009c3d8 f   libucrt:fpexcept.obj
 0001:0009b408       _umatherr                  000000014009c408 f   libucrt:fpexcept.obj
 0001:0009b4d8       _decomp                    000000014009c4d8 f   libucrt:util.obj
 0001:0009b608       _sptype                    000000014009c608 f   libucrt:util.obj
 0001:0009b680       _clrfp                     000000014009c680 f   libucrt:fpctrl.obj
 0001:0009b6a0       _ctrlfp                    000000014009c6a0 f   libucrt:fpctrl.obj
 0001:0009b71c       _set_statfp                000000014009c71c f   libucrt:fpctrl.obj
 0001:0009b73c       _statfp                    000000014009c73c f   libucrt:fpctrl.obj
 0001:0009b98c       asctime                    000000014009c98c f   libucrt:asctime.obj
 0001:0009be90       _read                      000000014009ce90 f   libucrt:read.obj
 0001:0009bfb0       _read_nolock               000000014009cfb0 f   libucrt:read.obj
 0001:0009c400       _realloc_base              000000014009d400 f   libucrt:realloc_base.obj
 0001:0009c47c       strtoull                   000000014009d47c f   libucrt:strtox.obj
 0001:0009c530       wcstol                     000000014009d530 f   libucrt:strtox.obj
 0001:0009c5e4       fegetround                 000000014009d5e4 f   libucrt:fegetround.obj
 0001:0009c5f8       __acrt_SetEnvironmentVariableA 000000014009d5f8 f   libucrt:setenvironmentvariablea.obj
 0001:0009c798       __acrt_SetCurrentDirectoryA 000000014009d798 f   libucrt:setcurrentdirectorya.obj
 0001:0009c9fc       _wgetenv_s                 000000014009d9fc f   libucrt:getenv.obj
 0001:0009ca04       wcsncpy_s                  000000014009da04 f   libucrt:wcsncpy_s.obj
 0001:0009cb00       _fdtest                    000000014009db00 f   libucrt:_test.obj
 0001:0009ccc8       __acrt_GetLocaleInfoA      000000014009dcc8 f   libucrt:getlocaleinfoa.obj
 0001:0009ce90       __acrt_GetStringTypeA      000000014009de90 f   libucrt:getstringtypea.obj
 0001:0009d354       __acrt_LCMapStringA        000000014009e354 f   libucrt:lcmapstringa.obj
 0001:0009d3ec       __acrt_app_verifier_enabled 000000014009e3ec f   libucrt:peb_access.obj
 0001:0009d408       __acrt_is_secure_process   000000014009e408 f   libucrt:peb_access.obj
 0001:0009d420       __acrt_get_process_end_policy 000000014009e420 f   libucrt:win_policies.obj
 0001:0009db7c       __acrt_expand_narrow_argv_wildcards 000000014009eb7c f   libucrt:argv_wildcards.obj
 0001:0009db84       __acrt_GetModuleFileNameA  000000014009eb84 f   libucrt:getmodulefilenamea.obj
 0001:0009e4a0       __acrt_initialize_multibyte 000000014009f4a0 f   libucrt:mbctype.obj
 0001:0009e500       __acrt_update_thread_multibyte_data 000000014009f500 f   libucrt:mbctype.obj
 0001:0009e51c       _setmbcp_nolock            000000014009f51c f   libucrt:mbctype.obj
 0001:0009e850       _ismbblead                 000000014009f850 f   libucrt:ismbbyte.obj
 0001:0009e864       __acrt_initialize_command_line 000000014009f864 f   libucrt:argv_data.obj
 0001:0009e88c       __dcrt_get_narrow_environment_from_os 000000014009f88c f   libucrt:get_environment_from_os.obj
 0001:0009e99c       __dcrt_get_wide_environment_from_os 000000014009f99c f   libucrt:get_environment_from_os.obj
 0001:0009ee8c       __dcrt_set_variable_in_wide_environment_nolock 000000014009fe8c f   libucrt:setenv.obj
 0001:0009ee94       _recalloc_base             000000014009fe94 f   libucrt:recalloc.obj
 0001:0009ef2c       __acrt_initialize_heap     000000014009ff2c f   libucrt:heap_handle.obj
 0001:0009ef48       __acrt_uninitialize_heap   000000014009ff48 f   libucrt:heap_handle.obj
 0001:0009ef54       __acrt_execute_initializers 000000014009ff54 f   libucrt:shared_initialization.obj
 0001:0009efe8       __acrt_execute_uninitializers 000000014009ffe8 f   libucrt:shared_initialization.obj
 0001:0009f030       wcscat_s                   00000001400a0030 f   libucrt:wcscat_s.obj
 0001:0009f0a8       __acrt_initialize_fmode    00000001400a00a8 f   libucrt:txtmode.obj
 0001:0009f0c4       __acrt_locale_free_monetary 00000001400a00c4 f   libucrt:initmon.obj
 0001:0009f1d0       __acrt_locale_initialize_monetary 00000001400a01d0 f   libucrt:initmon.obj
 0001:0009f6ec       __acrt_locale_free_numeric 00000001400a06ec f   libucrt:initnum.obj
 0001:0009f758       __acrt_locale_initialize_numeric 00000001400a0758 f   libucrt:initnum.obj
 0001:0009fdb4       __acrt_locale_free_time    00000001400a0db4 f   libucrt:inittime.obj
 0001:0009febc       __acrt_locale_initialize_time 00000001400a0ebc f   libucrt:inittime.obj
 0001:0009ff58       wcsncat_s                  00000001400a0f58 f   libucrt:wcsncat_s.obj
 0001:000a0050       wcscspn                    00000001400a1050 f   libucrt:wcscspn.obj
 0001:000a0090       __acrt_add_locale_ref      00000001400a1090 f   libucrt:locale_refcounting.obj
 0001:000a011c       __acrt_free_locale         00000001400a111c f   libucrt:locale_refcounting.obj
 0001:000a0294       __acrt_locale_add_lc_time_reference 00000001400a1294 f   libucrt:locale_refcounting.obj
 0001:000a02bc       __acrt_locale_free_lc_time_if_unreferenced 00000001400a12bc f   libucrt:locale_refcounting.obj
 0001:000a02f4       __acrt_locale_release_lc_time_reference 00000001400a12f4 f   libucrt:locale_refcounting.obj
 0001:000a031c       __acrt_release_locale_ref  00000001400a131c f   libucrt:locale_refcounting.obj
 0001:000a03c4       __acrt_update_thread_locale_data 00000001400a13c4 f   libucrt:locale_refcounting.obj
 0001:000a0434       _updatetlocinfoEx_nolock   00000001400a1434 f   libucrt:locale_refcounting.obj
 0001:000a0c3c       __acrt_get_qualified_locale 00000001400a1c3c f   libucrt:get_qualified_locale.obj
 0001:000a1684       __acrt_get_qualified_locale_downlevel 00000001400a2684 f   libucrt:getqloc_downlevel.obj
 0001:000a19d4       __acrt_fp_strflt_to_string 00000001400a29d4 f   libucrt:_fptostr.obj
 0001:000a1ae4       __acrt_fltout              00000001400a2ae4 f   libucrt:cfout.obj
 0001:000a2d74       ?__c32rtomb_utf8@__crt_mbstring@@YA_KPEAD_UPEAU_Mbstatet@@AEAV__crt_cached_ptd_host@@@Z 00000001400a3d74 f   libucrt:c32rtomb.obj
 0001:000a2e18       ?__mbrtowc_utf8@__crt_mbstring@@YA_KPEA_WPEBD_KPEAU_Mbstatet@@AEAV__crt_cached_ptd_host@@@Z 00000001400a3e18 f   libucrt:mbrtowc.obj
 0001:000a2e5c       ?__mbsrtowcs_utf8@__crt_mbstring@@YA_KPEA_WPEAPEBD_KPEAU_Mbstatet@@AEAV__crt_cached_ptd_host@@@Z 00000001400a3e5c f   libucrt:mbrtowc.obj
 0001:000a3000       _isatty                    00000001400a4000 f   libucrt:isatty.obj
 0001:000a3060       __acrt_DownlevelLCIDToLocaleName 00000001400a4060 f   libucrt:lcidtoname_downlevel.obj
 0001:000a3148       __acrt_DownlevelLocaleNameToLCID 00000001400a4148 f   libucrt:lcidtoname_downlevel.obj
 0001:000a31ec       ?__wcsrtombs_utf8@__crt_mbstring@@YA_KPEADPEAPEB_W_KPEAU_Mbstatet@@AEAV__crt_cached_ptd_host@@@Z 00000001400a41ec f   libucrt:wcrtomb.obj
 0001:000a3340       _towlower_l                00000001400a4340 f   libucrt:towlower.obj
 0001:000a3434       __ascii_wcsnicmp           00000001400a4434 f   libucrt:wcsnicmp.obj
 0001:000a3480       _wcsnicmp                  00000001400a4480 f   libucrt:wcsnicmp.obj
 0001:000a34c8       _wcsnicmp_l                00000001400a44c8 f   libucrt:wcsnicmp.obj
 0001:000a361c       __ascii_strnicmp           00000001400a461c f   libucrt:strnicmp.obj
 0001:000a3668       _strnicmp                  00000001400a4668 f   libucrt:strnicmp.obj
 0001:000a36b8       _strnicmp_l                00000001400a46b8 f   libucrt:strnicmp.obj
 0001:000a3d78       _sopen_nolock              00000001400a4d78 f   libucrt:open.obj
 0001:000a3e94       _sopen_s                   00000001400a4e94 f   libucrt:open.obj
 0001:000a3ec8       _wsopen_nolock             00000001400a4ec8 f   libucrt:open.obj
 0001:000a42b8       _putwch_nolock             00000001400a52b8 f   libucrt:putwch.obj
 0001:000a44e4       _wgetcwd                   00000001400a54e4 f   libucrt:getcwd.obj
 0001:000a450c       __acrt_GetStringTypeW      00000001400a550c f   libucrt:getstringtypew.obj
 0001:000a4530       _get_fpsr                  00000001400a5530 f   libucrt:fpsr.obj
 0001:000a4540       _set_fpsr                  00000001400a5540 f   libucrt:fpsr.obj
 0001:000a454a       _fclrf                     00000001400a554a f   libucrt:fpsr.obj
 0001:000a455e       _frnd                      00000001400a555e f   libucrt:fpsr.obj
 0001:000a4580       __acrt_fenv_get_common_round_control 00000001400a5580 f   libucrt:_fenvutils.obj
 0001:000a458c       __acrt_fenv_get_control    00000001400a558c f   libucrt:_fenvutils.obj
 0001:000a4670       __acrt_fenv_get_status     00000001400a5670 f   libucrt:_fenvutils.obj
 0001:000a46c8       __acrt_fenv_set_control    00000001400a56c8 f   libucrt:_fenvutils.obj
 0001:000a4800       __acrt_fenv_set_status     00000001400a5800 f   libucrt:_fenvutils.obj
 0001:000a4874       _wcsnicoll                 00000001400a5874 f   libucrt:wcsnicol.obj
 0001:000a48c4       _wcsnicoll_l               00000001400a58c4 f   libucrt:wcsnicol.obj
 0001:000a49c0       qsort                      00000001400a59c0 f   libucrt:qsort.obj
 0001:000a4e70       strpbrk                    00000001400a5e70 f   libucrt:strpbrk.obj
 0001:000a5238       _mbsdec                    00000001400a6238 f   libucrt:mbsdec.obj
 0001:000a5240       _mbsdec_l                  00000001400a6240 f   libucrt:mbsdec.obj
 0001:000a52ec       _msize_base                00000001400a62ec f   libucrt:msize.obj
 0001:000a5478       _itow_s                    00000001400a6478 f   libucrt:xtoa.obj
 0001:000a5498       wcscmp                     00000001400a6498 f   libucrt:wcscmp.obj
 0001:000a54d0       _controlfp_s               00000001400a64d0 f   libucrt:contrlfp.obj
 0001:000a5534       fegetenv                   00000001400a6534 f   libucrt:fegetenv.obj
 0001:000a5554       fesetenv                   00000001400a6554 f   libucrt:fesetenv.obj
 0001:000a55ac       feholdexcept               00000001400a65ac f   libucrt:feholdexcept.obj
 0001:000a55fc       ceil                       00000001400a65fc f   libucrt:ceil.obj
 0001:000a56c0       log10                      00000001400a66c0 f   libucrt:log10.obj
 0001:000a5c6c       ?reset_and_return@__crt_mbstring@@YA_K_KPEAU_Mbstatet@@@Z 00000001400a6c6c f   libucrt:common_utf8.obj
 0001:000a5c74       ?return_illegal_sequence@__crt_mbstring@@YA_KPEAU_Mbstatet@@AEAV__crt_cached_ptd_host@@@Z 00000001400a6c74 f   libucrt:common_utf8.obj
 0001:000a5c88       ?__mbrtoc32_utf8@__crt_mbstring@@YA_KPEA_UPEBD_KPEAU_Mbstatet@@AEAV__crt_cached_ptd_host@@@Z 00000001400a6c88 f   libucrt:mbrtoc32.obj
 0001:000a5e64       ?__c16rtomb_utf8@__crt_mbstring@@YA_KPEAD_SPEAU_Mbstatet@@AEAV__crt_cached_ptd_host@@@Z 00000001400a6e64 f   libucrt:c16rtomb.obj
 0001:000a5f08       __acrt_LCMapStringW        00000001400a6f08 f   libucrt:lcmapstringw.obj
 0001:000a5f90       _chsize_nolock             00000001400a6f90 f   libucrt:chsize.obj
 0001:000a6028       _chsize_nolock_internal    00000001400a7028 f   libucrt:chsize.obj
 0001:000a61bc       __dcrt_lowio_ensure_console_output_initialized 00000001400a71bc f   libucrt:initcon.obj
 0001:000a6210       __dcrt_terminate_console_output 00000001400a7210 f   libucrt:initcon.obj
 0001:000a622c       __dcrt_write_console       00000001400a722c f   libucrt:initcon.obj
 0001:000a62ec       __acrt_CompareStringW      00000001400a72ec f   libucrt:comparestringw.obj
 0001:000a63ac       _clearfp                   00000001400a73ac f   libucrt:ieee.obj
 0001:000a6418       _control87                 00000001400a7418 f   libucrt:ieee.obj
 0001:000a67e0       _handle_error              00000001400a77e0 f   libucrt:libm_error.obj
 0001:000a6908       _handle_errorf             00000001400a7908 f   libucrt:libm_error.obj
 0001:000a6a3c       _handle_nan                00000001400a7a3c f   libucrt:libm_error.obj
 0001:000a6a58       _handle_nanf               00000001400a7a58 f   libucrt:libm_error.obj
 0001:000a6a70       __acrt_initialize_fma3     00000001400a7a70 f   libucrt:fma3_available.obj
 0001:000a6ae0       _log10_special             00000001400a7ae0 f   libucrt:log_special.obj
 0001:000a6b00       _log_special               00000001400a7b00 f   libucrt:log_special.obj
 0001:000a6bc0       _FindPESection             00000001400a7bc0 f   LIBCMT:pesect.obj
 0001:000a6c10       _IsNonwritableInCurrentImage 00000001400a7c10 f   LIBCMT:pesect.obj
 0001:000a6c60       _ValidateImageBase         00000001400a7c60 f   LIBCMT:pesect.obj
 0001:000a6c8c       __GSHandlerCheck_SEH       00000001400a7c8c f   LIBCMT:gshandlerseh.obj
 0001:000a6d14       __GSHandlerCheck_EH        00000001400a7d14 f   LIBCMT:gshandlereh.obj
 0001:000a6d94       _local_unwind              00000001400a7d94 f   libvcruntime:jmpuwind.obj
 0001:000a6dc0       __C_specific_handler_noexcept 00000001400a7dc0 f   libvcruntime:chandler_noexcept.obj
 0001:000a6e0c       wcsrchr                    00000001400a7e0c f   libvcruntime:wcsrchr.obj
 0001:000a6ebc       wcschr                     00000001400a7ebc f   libvcruntime:wcschr.obj
 0001:000a6f40       ?string_format@@YA?AV?$basic_string@DU?$char_traits@D@std@@V?$allocator@D@2@@std@@V?$basic_string_view@DU?$char_traits@D@std@@@2@ZZ 00000001400a7f40 f   StringFormat.obj
 0001:000a7040       ?SkipTime@CClip@ContentDecoder@@QEAAXM@Z 00000001400a8040 f   Clip.obj
 0001:000a7060       ?FadeOut@CClip@ContentDecoder@@QEAAXN@Z 00000001400a8060 f   Clip.obj
 0001:000a7080       ?SetStartTime@CClip@ContentDecoder@@QEAAXN@Z 00000001400a8080 f   Clip.obj
 0001:000a70c0       ?GetFrameCount@CClip@ContentDecoder@@QEBAIXZ 00000001400a80c0 f   Clip.obj
 0001:000a70e0       ?GetCurrentFrameMetadata@CClip@ContentDecoder@@QEBAAEBUsFrameMetadata@2@XZ 00000001400a80e0 f   Clip.obj
 0001:000a7120       ?GetCurrentFrameIdx@CClip@ContentDecoder@@QEBAIXZ 00000001400a8120 f   Clip.obj
 0001:000a7160       ?GrabVideoFrame@CClip@ContentDecoder@@AEAA_NXZ 00000001400a8160 f   Clip.obj
 0001:000a74b0       ?DrawFrame@CClip@ContentDecoder@@QEAA_NV?$shared_ptr@VCRenderer@DisplayOutput@@@std@@@Z 00000001400a84b0 f   Clip.obj
 0001:000a75c0       ?Update@CClip@ContentDecoder@@QEAA_NN@Z 00000001400a85c0 f   Clip.obj
 0001:000a7830       ?NeedsNewFrame@CClip@ContentDecoder@@AEBA_NNPEAUDecoderClock@12@@Z 00000001400a8830 f   Clip.obj
 0001:000a78e0       ?Stop@CClip@ContentDecoder@@QEAAXXZ 00000001400a88e0 f   Clip.obj
 0001:000a7900       ?Start@CClip@ContentDecoder@@QEAA_N_J@Z 00000001400a8900 f   Clip.obj
 0001:000a7a80       ??0CClip@ContentDecoder@@QEAA@AEBUsClipMetadata@1@V?$shared_ptr@VCRenderer@DisplayOutput@@@std@@HII@Z 00000001400a8a80 f   Clip.obj
 0001:000a83a0       ??1CContentDownloader@ContentDownloader@@UEAA@XZ 00000001400a93a0 f   ContentDownloader.obj
 0001:000a83c0       ?Shutdown@CContentDownloader@ContentDownloader@@UEAA_NXZ 00000001400a93c0 f   ContentDownloader.obj
 0001:000a8510       ?Startup@CContentDownloader@ContentDownloader@@QEAA_N_N_N@Z 00000001400a9510 f   ContentDownloader.obj
 0001:000a9b90       ?ServerFallback@CContentDownloader@ContentDownloader@@QEAAXXZ 00000001400aab90 f   ContentDownloader.obj
 0001:000a9ca0       ??0CContentDownloader@ContentDownloader@@AEAA@XZ 00000001400aaca0 f   ContentDownloader.obj
 0001:000a9cc0       ?setFileWriteTime@sDreamMetadata@ContentDownloader@@QEAAXAEBV?$basic_string@DU?$char_traits@D@std@@V?$allocator@D@2@@std@@@Z 00000001400aacc0 f   Dream.obj
 0001:000a9d40       strptime                   00000001400aad40 f   Dream.obj
 0001:000aa010       ?getSheepList@SheepDownloader@ContentDownloader@@SA_NXZ 00000001400ab010 f   SheepDownloader.obj
 0001:000aa040       ?FindSheepToDownload@SheepDownloader@ContentDownloader@@IEAAXXZ 00000001400ab040 f   SheepDownloader.obj
 0001:000ab3c0       ?isFolderAccessible@SheepDownloader@ContentDownloader@@IEAA_NPEBD@Z 00000001400ac3c0 f   SheepDownloader.obj
 0001:000ab540       ?deleteSheep@SheepDownloader@ContentDownloader@@SAXV?$basic_string_view@DU?$char_traits@D@std@@@std@@@Z 00000001400ac540 f   SheepDownloader.obj
 0001:000ab610       ?deleteSheep@SheepDownloader@ContentDownloader@@SAXPEAUsDreamMetadata@2@@Z 00000001400ac610 f   SheepDownloader.obj
 0001:000ab780       ?deleteCached@SheepDownloader@ContentDownloader@@IEAAXAEB_KH@Z 00000001400ac780 f   SheepDownloader.obj
 0001:000ac5b0       ?cacheOverflow@SheepDownloader@ContentDownloader@@IEBAHAEBNH@Z 00000001400ad5b0 f   SheepDownloader.obj
 0001:000ac610       ?updateCachedSheep@SheepDownloader@ContentDownloader@@IEAAXXZ 00000001400ad610 f   SheepDownloader.obj
 0001:000acba0       ?ParseDreamsPage@SheepDownloader@ContentDownloader@@IEAAHH@Z 00000001400adba0 f   SheepDownloader.obj
 0001:000ae870       ?ParseServerDreams@SheepDownloader@ContentDownloader@@IEAAXXZ 00000001400af870 f   SheepDownloader.obj
 0001:000aea70       ?downloadSheep@SheepDownloader@ContentDownloader@@IEAA_NPEAUsDreamMetadata@2@@Z 00000001400afa70 f   SheepDownloader.obj
 0001:000aedc0       ?clearFlocks@SheepDownloader@ContentDownloader@@IEAAXXZ 00000001400afdc0 f   SheepDownloader.obj
 0001:000aef80       ?closeDownloader@SheepDownloader@ContentDownloader@@KAXXZ 00000001400aff80 f   SheepDownloader.obj
 0001:000aef90       ?initializeDownloader@SheepDownloader@ContentDownloader@@KAXXZ 00000001400aff90 f   SheepDownloader.obj
 0001:000aefa0       ??1SheepDownloader@ContentDownloader@@UEAA@XZ 00000001400affa0 f   SheepDownloader.obj
 0001:000af1f0       ?Abort@SheepDownloader@ContentDownloader@@QEAAXXZ 00000001400b01f0 f   SheepDownloader.obj
 0001:000af250       ?shepherdCallback@SheepDownloader@ContentDownloader@@SAXPEAX@Z 00000001400b0250 f   SheepDownloader.obj
 0001:000af260       ??0SheepDownloader@ContentDownloader@@QEAA@XZ 00000001400b0260 f   SheepDownloader.obj
 0001:000af2f0       ?GetEndpoint@Shepherd@ContentDownloader@@SAPEBDW4eServerEndpoint@@@Z 00000001400b02f0 f   Shepherd.obj
 0001:000b0150       ?GetDreamServer@Shepherd@ContentDownloader@@SAPEBDXZ 00000001400b1150 f   Shepherd.obj
 0001:000b0460       ?SetRenderingAllowed@Shepherd@ContentDownloader@@SAX_N@Z 00000001400b1460 f   Shepherd.obj
 0001:000b0470       ?RenderingAllowed@Shepherd@ContentDownloader@@SA_NXZ 00000001400b1470 f   Shepherd.obj
 0001:000b0480       ?downloadState@Shepherd@ContentDownloader@@SA?AV?$basic_string@DU?$char_traits@D@std@@V?$allocator@D@2@@std@@AEA_N@Z 00000001400b1480 f   Shepherd.obj
 0001:000b04f0       ?uniqueID@Shepherd@ContentDownloader@@SAPEBDXZ 00000001400b14f0 f   Shepherd.obj
 0001:000b0500       ?getSheep@Shepherd@ContentDownloader@@CA_NPEBDPEAUSheepArray@2@AEBU32@@Z 00000001400b1500 f   Shepherd.obj
 0001:000b0fc0       ?GetFlockSizeMBsRecount@Shepherd@ContentDownloader@@SA_KH@Z 00000001400b1fc0 f   Shepherd.obj
 0001:000b11b0       ?GetNickName@Shepherd@ContentDownloader@@SAPEBDXZ 00000001400b21b0 f   Shepherd.obj
 0001:000b1220       ?setNewAndDeleteOldString@Shepherd@ContentDownloader@@SAXAEAV?$atomic@PEAD@atomics@boost@@PEADW4memory_order@5@@Z 00000001400b2220 f   Shepherd.obj
 0001:000b13a0       ??1Shepherd@ContentDownloader@@QEAA@XZ 00000001400b23a0 f   Shepherd.obj
 0001:000b1480       ?setDownloadState@Shepherd@ContentDownloader@@SAXAEBV?$basic_string@DU?$char_traits@D@std@@V?$allocator@D@2@@std@@@Z 00000001400b2480 f   Shepherd.obj
 0001:000b14f0       ?getClientFlock@Shepherd@ContentDownloader@@SA_NPEAUSheepArray@2@@Z 00000001400b24f0 f   Shepherd.obj
 0001:000b1610       ?addMessageText@Shepherd@ContentDownloader@@SAXV?$basic_string_view@DU?$char_traits@D@std@@@std@@_J@Z 00000001400b2610 f   Shepherd.obj
 0001:000b17b0       ?jsonPath@Shepherd@ContentDownloader@@SAPEBDXZ 00000001400b27b0 f   Shepherd.obj
 0001:000b17c0       ?mp4Path@Shepherd@ContentDownloader@@SAPEBDXZ 00000001400b27c0 f   Shepherd.obj
 0001:000b17d0       ?removeNonExistingDreams@Shepherd@ContentDownloader@@SAXAEBUSheepArray@2@@Z 00000001400b27d0 f   Shepherd.obj
 0001:000b2090       ?setUniqueID@Shepherd@ContentDownloader@@SAXPEBD@Z 00000001400b3090 f   Shepherd.obj
 0001:000b2100       ?SetNickName@Shepherd@ContentDownloader@@SAXPEBD@Z 00000001400b3100 f   Shepherd.obj
 0001:000b2160       ?setRootPath@Shepherd@ContentDownloader@@SAXPEBD@Z 00000001400b3160 f   Shepherd.obj
 0001:000b2290       ?notifyShepherdOfHisUntimleyDeath@Shepherd@ContentDownloader@@SAXXZ 00000001400b3290 f   Shepherd.obj
 0001:000b25e0       ?setProxyPassword@Shepherd@ContentDownloader@@SAXPEBD@Z 00000001400b35e0 f   Shepherd.obj
 0001:000b2640       ?setProxyUserName@Shepherd@ContentDownloader@@SAXPEBD@Z 00000001400b3640 f   Shepherd.obj
 0001:000b26a0       ?setProxy@Shepherd@ContentDownloader@@SAXPEBD@Z 00000001400b36a0 f   Shepherd.obj
 0001:000b2700       ?initializeShepherd@Shepherd@ContentDownloader@@SAXXZ 00000001400b3700 f   Shepherd.obj
 0001:000b2870       ?Union@CRect@Math@Base@@QEBA?AV123@AEBV123@@Z 00000001400b3870 f   Rect.obj
 0001:000b2910       ?GetBufferPtr@CAlignedBuffer@Base@@QEBAPEAEXZ 00000001400b3910 f   AlignedBuffer.obj
 0001:000b2920       ?Free@CAlignedBuffer@Base@@QEAAXXZ 00000001400b3920 f   AlignedBuffer.obj
 0001:000b2a50       ?Reallocate@CAlignedBuffer@Base@@QEAA_NI@Z 00000001400b3a50 f   AlignedBuffer.obj
 0001:000b2b00       ?Allocate@CAlignedBuffer@Base@@QEAA_NI@Z 00000001400b3b00 f   AlignedBuffer.obj
 0001:000b2c60       ??1CAlignedBuffer@Base@@QEAA@XZ 00000001400b3c60 f   AlignedBuffer.obj
 0001:000b2d90       ??0CAlignedBuffer@Base@@QEAA@I@Z 00000001400b3d90 f   AlignedBuffer.obj
 0001:000b2ee0       ?RealFree@CReusableAlignedBuffers@Base@@SAXPEAEI@Z 00000001400b3ee0 f   AlignedBuffer.obj
 0001:000b2ef0       ?Reallocate@CReusableAlignedBuffers@Base@@QEAAPEAEPEAEI@Z 00000001400b3ef0 f   AlignedBuffer.obj
 0001:000b2f40       ?Free@CReusableAlignedBuffers@Base@@QEAAXPEAEI@Z 00000001400b3f40 f   AlignedBuffer.obj
 0001:000b3050       ?Allocate@CReusableAlignedBuffers@Base@@QEAAPEAEI@Z 00000001400b4050 f   AlignedBuffer.obj
 0001:000b3140       ??1CReusableAlignedBuffers@Base@@UEAA@XZ 00000001400b4140 f   AlignedBuffer.obj
 0001:000b31c0       ??0CReusableAlignedBuffers@Base@@QEAA@XZ 00000001400b41c0 f   AlignedBuffer.obj
 0001:000b3340       ?Fatal@CLog@Base@@QEAAXV?$basic_string_view@DU?$char_traits@D@std@@@std@@ZZ 00000001400b4340 f   Log.obj
 0001:000b33d0       ?Log@CLog@Base@@AEAAXPEBD0@Z 00000001400b43d0 f   Log.obj
 0001:000b33e0       ?Detach@CLog@Base@@QEAAXXZ 00000001400b43e0 f   Log.obj
 0001:000b33f0       ?Attach@CLog@Base@@QEAAXAEBV?$basic_string@DU?$char_traits@D@std@@V?$allocator@D@2@@std@@I@Z 00000001400b43f0 f   Log.obj
 0001:000b3400       ?Shutdown@CLog@Base@@UEAA_NXZ 00000001400b4400 f   Log.obj
 0001:000b3470       ?Startup@CLog@Base@@QEAA_NXZ 00000001400b4470 f   Log.obj
 0001:000b3490       ?Error@CLog@Base@@QEAAXV?$basic_string_view@DU?$char_traits@D@std@@@std@@ZZ 00000001400b4490 f   Log.obj
 0001:000b3520       ?Warning@CLog@Base@@QEAAXV?$basic_string_view@DU?$char_traits@D@std@@@std@@ZZ 00000001400b4520 f   Log.obj
 0001:000b35b0       ?Info@CLog@Base@@QEAAXV?$basic_string_view@DU?$char_traits@D@std@@@std@@ZZ 00000001400b45b0 f   Log.obj
 0001:000b3640       ??1CLog@Base@@UEAA@XZ      00000001400b4640 f   Log.obj
 0001:000b3730       ??0CLog@Base@@AEAA@XZ      00000001400b4730 f   Log.obj
 0001:000b37e0       ?AllocSys@CPoolBase@Memory@@SAPEAX_K@Z 00000001400b47e0 f   pool.obj
 0001:000b37f0       ??1sOpenVideoInfo@ContentDecoder@@QEAA@XZ 00000001400b47f0 f   ContentDecoder.obj
 0001:000b38c0       ?ClearQueue@CContentDecoder@ContentDecoder@@QEAAXI@Z 00000001400b48c0 f   ContentDecoder.obj
 0001:000b3a10       ?ReadFramesThread@CContentDecoder@ContentDecoder@@AEAAXXZ 00000001400b4a10 f   ContentDecoder.obj
 0001:000b3f10       ?ReadOneFrame@CContentDecoder@ContentDecoder@@AEAAPEAVCVideoFrame@2@XZ 00000001400b4f10 f   ContentDecoder.obj
 0001:000b44b0       ?Open@CContentDecoder@ContentDecoder@@AEAA_NXZ 00000001400b54b0 f   ContentDecoder.obj
 0001:000b4910       ?DumpError@CContentDecoder@ContentDecoder@@CAHH@Z 00000001400b5910 f   ContentDecoder.obj
 0001:000b4920       ?Destroy@CContentDecoder@ContentDecoder@@AEAAXXZ 00000001400b5920 f   ContentDecoder.obj
 0001:000b49f0       ??1CContentDecoder@ContentDecoder@@UEAA@XZ 00000001400b59f0 f   ContentDecoder.obj
 0001:000b4b60       ?PopVideoFrame@CContentDecoder@ContentDecoder@@QEAA?AV?$shared_ptr@VCVideoFrame@ContentDecoder@@@std@@XZ 00000001400b5b60 f   ContentDecoder.obj
 0001:000b4d00       ?Stop@CContentDecoder@ContentDecoder@@QEAAXXZ 00000001400b5d00 f   ContentDecoder.obj
 0001:000b4da0       ?Start@CContentDecoder@ContentDecoder@@QEAA_NV?$basic_string_view@DU?$char_traits@D@std@@@std@@_J@Z 00000001400b5da0 f   ContentDecoder.obj
 0001:000b4f00       ??0CContentDecoder@ContentDecoder@@QEAA@IW4AVPixelFormat@@@Z 00000001400b5f00 f   ContentDecoder.obj
 0001:000b5190       ?Hide@CHudManager@Hud@@QEAAXV?$basic_string@DU?$char_traits@D@std@@V?$allocator@D@2@@std@@@Z 00000001400b6190 f   Hud.obj
 0001:000b5240       ?Toggle@CHudManager@Hud@@QEAAXV?$basic_string@DU?$char_traits@D@std@@V?$allocator@D@2@@std@@@Z 00000001400b6240 f   Hud.obj
 0001:000b5400       ?HideAll@CHudManager@Hud@@QEAAXXZ 00000001400b6400 f   Hud.obj
 0001:000b54f0       ?Render@CHudManager@Hud@@QEAA_NV?$shared_ptr@VCRenderer@DisplayOutput@@@std@@@Z 00000001400b64f0 f   Hud.obj
 0001:000b57f0       ?Add@CHudManager@Hud@@QEAA_NV?$basic_string@DU?$char_traits@D@std@@V?$allocator@D@2@@std@@V?$shared_ptr@VCHudEntry@Hud@@@4@N@Z 00000001400b67f0 f   Hud.obj
 0001:000b5970       ??1CHudManager@Hud@@QEAA@XZ 00000001400b6970 f   Hud.obj
 0001:000b59f0       ??0CHudManager@Hud@@QEAA@XZ 00000001400b69f0 f   Hud.obj
 0001:000b5aa0       WinMain                    00000001400b6aa0 f   main.obj
 0001:000b5ce0       ?SwapBuffers@CDisplayDX@DisplayOutput@@UEAAXXZ 00000001400b6ce0 f   DisplayDX.obj
 0001:000b5cf0       ?Update@CDisplayDX@DisplayOutput@@UEAAXXZ 00000001400b6cf0 f   DisplayDX.obj
 0001:000b5d90       ?Title@CDisplayDX@DisplayOutput@@UEAAXAEBV?$basic_string@DU?$char_traits@D@std@@V?$allocator@D@2@@std@@@Z 00000001400b6d90 f   DisplayDX.obj
 0001:000b5db0       ?Initialize@CDisplayDX@DisplayOutput@@UEAAPEAUHWND__@@II_N@Z 00000001400b6db0 f   DisplayDX.obj
 0001:000b5ea0       ?Initialize@CDisplayDX@DisplayOutput@@UEAA_NPEAUHWND__@@_N@Z 00000001400b6ea0 f   DisplayDX.obj
 0001:000b62c0       ?createwindow@CDisplayDX@DisplayOutput@@AEAAPEAUHWND__@@II_N@Z 00000001400b72c0 f   DisplayDX.obj
 0001:000b65e0       ?InitDX9@CDisplayDX@DisplayOutput@@AEAA_NXZ 00000001400b75e0 f   DisplayDX.obj
 0001:000b6d60       ?GetAdapterOrdinal@CDisplayDX@DisplayOutput@@QEAAIXZ 00000001400b7d60 f   DisplayDX.obj
 0001:000b7010       ?wndProc@CDisplayDX@DisplayOutput@@SA_JPEAUHWND__@@I_K_J@Z 00000001400b8010 f   DisplayDX.obj
 0001:000b7610       ?BlankUnusedMonitors@CDisplayDX@DisplayOutput@@QEAAXAEAUtagWNDCLASSW@@PEAUHWND__@@PEAUHINSTANCE__@@@Z 00000001400b8610 f   DisplayDX.obj
 0001:000b7be0       ?EnumMonitors@CDisplayDX@DisplayOutput@@AEAAXXZ 00000001400b8be0 f   DisplayDX.obj
 0001:000b7ed0       ??1CDisplayDX@DisplayOutput@@UEAA@XZ 00000001400b8ed0 f   DisplayDX.obj
 0001:000b7f30       ??0CDisplayDX@DisplayOutput@@QEAA@_NPEAUIDirect3D9@@@Z 00000001400b8f30 f   DisplayDX.obj
 0001:000b7fb0       xEnumDisplayDevices        00000001400b8fb0 f   DisplayDX.obj
 0001:000b80a0       xGetMonitorInfo            00000001400b90a0 f   DisplayDX.obj
 0001:000b81d0       xMonitorFromRect           00000001400b91d0 f   DisplayDX.obj
 0001:000b8240       InitMultipleMonitorStubs   00000001400b9240 f   DisplayDX.obj
 0001:000b8440       IsPlatformNT               00000001400b9440 f   DisplayDX.obj
 0001:000b84d0       ?Create@CFontDX@DisplayOutput@@UEAA_NXZ 00000001400b94d0 f   FontDX.obj
 0001:000b85d0       ??1CFontDX@DisplayOutput@@UEAA@XZ 00000001400b95d0 f   FontDX.obj
 0001:000b8610       ?DrawLine@CRendererDX@DisplayOutput@@UEAAXAEBVCVector2_x86@Math@Base@45@0AEBVCVector4_x86@4545@M@Z 00000001400b9610 f   RendererDX.obj
 0001:000b8630       ?DrawQuad@CRendererDX@DisplayOutput@@UEAAXAEBVCRect@Math@Base@@AEBVCVector4_x86@4545@0@Z 00000001400b9630 f   RendererDX.obj
 0001:000b88e0       ?DrawSoftQuad@CRendererDX@DisplayOutput@@UEAAXAEBVCRect@Math@Base@@AEBVCVector4_x86@4545@M@Z 00000001400b98e0 f   RendererDX.obj
 0001:000b9360       ?DrawQuad@CRendererDX@DisplayOutput@@UEAAXAEBVCRect@Math@Base@@AEBVCVector4_x86@4545@@Z 00000001400ba360 f   RendererDX.obj
 0001:000b9570       ?DrawRect@CRendererDX@DisplayOutput@@UEAAXAEBVCRect@Math@Base@@AEBVCVector4_x86@4545@M@Z 00000001400ba570 f   RendererDX.obj
 0001:000b9580       ?GetTextExtent@CRendererDX@DisplayOutput@@UEAA?AVCVector2_x86@Math@Base@45@V?$shared_ptr@VCBaseFont@DisplayOutput@@@std@@AEBV?$basic_string@DU?$char_traits@D@std@@V?$allocator@D@2@@7@@Z 00000001400ba580 f   RendererDX.obj
 0001:000b9830       ?NewTextureFlat@CRendererDX@DisplayOutput@@UEAA?AV?$shared_ptr@VCTextureFlat@DisplayOutput@@@std@@I@Z 00000001400ba830 f   RendererDX.obj
 0001:000b9850       ?NewTextureFlat@CRendererDX@DisplayOutput@@UEAA?AV?$shared_ptr@VCTextureFlat@DisplayOutput@@@std@@V?$shared_ptr@VCImage@DisplayOutput@@@4@I@Z 00000001400ba850 f   RendererDX.obj
 0001:000b98d0       ?Reset@CRendererDX@DisplayOutput@@UEAAXI@Z 00000001400ba8d0 f   RendererDX.obj
 0001:000b98e0       ?Apply@CRendererDX@DisplayOutput@@UEAAXXZ 00000001400ba8e0 f   RendererDX.obj
 0001:000b9a40       ?EndFrame@CRendererDX@DisplayOutput@@UEAA_N_N@Z 00000001400baa40 f   RendererDX.obj
 0001:000b9aa0       ?BeginFrame@CRendererDX@DisplayOutput@@UEAA_NXZ 00000001400baaa0 f   RendererDX.obj
 0001:000b9b10       ?TestResetDevice@CRendererDX@DisplayOutput@@QEAA_NXZ 00000001400bab10 f   RendererDX.obj
 0001:000b9d40       ?Defaults@CRendererDX@DisplayOutput@@UEAAXXZ 00000001400bad40 f   RendererDX.obj
 0001:000ba0c0       ?Initialize@CRendererDX@DisplayOutput@@UEAA_NV?$shared_ptr@VCDisplayOutput@DisplayOutput@@@std@@@Z 00000001400bb0c0 f   RendererDX.obj
 0001:000ba390       ??1CRendererDX@DisplayOutput@@UEAA@XZ 00000001400bb390 f   RendererDX.obj
 0001:000ba640       ?GetBlendMode@DisplayOutput@@YA?BHH@Z 00000001400bb640 f   RendererDX.obj
 0001:000ba660       ?GetBlendConstant@DisplayOutput@@YA?BHH@Z 00000001400bb660 f   RendererDX.obj
 0001:000ba670       ?Apply@CShaderUniformDX@DisplayOutput@@UEAAXXZ 00000001400bb670 f   ShaderDX.obj
 0001:000ba780       ?SetData@CShaderUniformDX@DisplayOutput@@UEAA_NPEAXI@Z 00000001400bb780 f   ShaderDX.obj
 0001:000ba910       ?Build@CShaderDX@DisplayOutput@@UEAA_NPEBD0@Z 00000001400bb910 f   ShaderDX.obj
 0001:000bb970       ?Unbind@CShaderDX@DisplayOutput@@UEAA_NXZ 00000001400bc970 f   ShaderDX.obj
 0001:000bb9b0       ?Apply@CShaderDX@DisplayOutput@@UEAA_NXZ 00000001400bc9b0 f   ShaderDX.obj
 0001:000bbd60       ?Bind@CShaderDX@DisplayOutput@@UEAA_NXZ 00000001400bcd60 f   ShaderDX.obj
 0001:000bbda0       ??1CShaderDX@DisplayOutput@@UEAA@XZ 00000001400bcda0 f   ShaderDX.obj
 0001:000bc210       ?Unbind@CTextureFlatDX@DisplayOutput@@UEAA_NI@Z 00000001400bd210 f   TextureFlatDX.obj
 0001:000bc270       ?Bind@CTextureFlatDX@DisplayOutput@@UEAA_NI@Z 00000001400bd270 f   TextureFlatDX.obj
 0001:000bc2e0       ?Upload@CTextureFlatDX@DisplayOutput@@UEAA_NV?$shared_ptr@VCImage@DisplayOutput@@@std@@@Z 00000001400bd2e0 f   TextureFlatDX.obj
 0001:000bc6b0       ??1CTextureFlatDX@DisplayOutput@@UEAA@XZ 00000001400bd6b0 f   TextureFlatDX.obj
 0001:000bc720       ?ConnectRemoteControlSocket@EDreamClient@@SAXXZ 00000001400bd720 f   EDreamClient.obj
 0001:000bc730       ?SendPlayingDream@EDreamClient@@SAXV?$basic_string@DU?$char_traits@D@std@@V?$allocator@D@2@@std@@@Z 00000001400bd730 f   EDreamClient.obj
 0001:000bc7f0       ?ParsePlaylistCredits@EDreamClient@@SA?AV?$tuple@V?$basic_string@DU?$char_traits@D@std@@V?$allocator@D@2@@std@@V12@@std@@H@Z 00000001400bd7f0 f   EDreamClient.obj
 0001:000bd630       ?GetCurrentServerPlaylist@EDreamClient@@SAHXZ 00000001400be630 f   EDreamClient.obj
 0001:000be640       ?RefreshAccessToken@EDreamClient@@SA_NXZ 00000001400bf640 f   EDreamClient.obj
 0001:000bf0f0       ?Authenticate@EDreamClient@@SA_NXZ 00000001400c00f0 f   EDreamClient.obj
 0001:000bf4f0       ?GetAccessToken@EDreamClient@@SAPEBDXZ 00000001400c04f0 f   EDreamClient.obj
 0001:000bf5b0       ?ESShowPreferences@@YAXXZ  00000001400c05b0 f   EDreamClient.obj
 0001:000bf5d0       ?from_chars@charconv@detail@json@boost@@YA?AU?$from_chars_result_t@D@1234@PEBD0AEANW4chars_format@1234@@Z 00000001400c05d0 f   EDreamClient.obj
 0001:000bf630       ?d2s_buffered_n@ryu@detail@json@boost@@YAHNPEAD_N@Z 00000001400c0630 f   EDreamClient.obj
 0001:000bf880       ?assign@string_impl@detail@json@boost@@QEAAPEAD_KAEBVstorage_ptr@34@@Z 00000001400c0880 f   EDreamClient.obj
 0001:000bf990       ?growth@string_impl@detail@json@boost@@SAI_K0@Z 00000001400c0990 f   EDreamClient.obj
 0001:000bf9e0       ??0string_impl@detail@json@boost@@QEAA@Ukey_t@123@V?$basic_string_view@D@core@3@1AEBVstorage_ptr@23@@Z 00000001400c09e0 f   EDreamClient.obj
 0001:000bfa90       ??0string_impl@detail@json@boost@@QEAA@Ukey_t@123@V?$basic_string_view@D@core@3@AEBVstorage_ptr@23@@Z 00000001400c0a90 f   EDreamClient.obj
 0001:000bfb10       ??0string_impl@detail@json@boost@@QEAA@_KAEBVstorage_ptr@23@@Z 00000001400c0b10 f   EDreamClient.obj
 0001:000bfbe0       ??0string_impl@detail@json@boost@@QEAA@XZ 00000001400c0be0 f   EDreamClient.obj
 0001:000bfc00       ?reserve@stack@detail@json@boost@@QEAAX_K@Z 00000001400c0c00 f   EDreamClient.obj
 0001:000bfcc0       ??0stack@detail@json@boost@@QEAA@Vstorage_ptr@23@PEAE_K@Z 00000001400c0cc0 f   EDreamClient.obj
 0001:000bfd30       ??1stack@detail@json@boost@@QEAA@XZ 00000001400c0d30 f   EDreamClient.obj
 0001:000bfdb0       ?format_double@detail@json@boost@@YAIPEADN_N@Z 00000001400c0db0 f   EDreamClient.obj
 0001:000bfdd0       ?format_int64@detail@json@boost@@YAIPEAD_J@Z 00000001400c0dd0 f   EDreamClient.obj
 0001:000bfe00       ?format_uint64@detail@json@boost@@YAIPEAD_K@Z 00000001400c0e00 f   EDreamClient.obj
 0001:000bff40       ?throw_system_error@detail@json@boost@@YAXAEBVerror_code@system@3@AEBUsource_location@3@@Z 00000001400c0f40 f   EDreamClient.obj
 0001:000bff70       ?do_is_equal@default_resource@detail@json@boost@@UEBA_NAEBVmemory_resource@pmr@container@4@@Z 00000001400c0f70 f   EDreamClient.obj
 0001:000bff80       ?do_deallocate@default_resource@detail@json@boost@@UEAAXPEAX_K1@Z 00000001400c0f80 f   EDreamClient.obj
 0001:000bff90       ?do_allocate@default_resource@detail@json@boost@@UEAAPEAX_K0@Z 00000001400c0f90 f   EDreamClient.obj
 0001:000bffa0       ??1default_resource@detail@json@boost@@UEAA@XZ 00000001400c0fa0 f   EDreamClient.obj
 0001:000bffc0       ??1shared_resource@detail@json@boost@@UEAA@XZ 00000001400c0fc0 f   EDreamClient.obj
 0001:000c0030       ?push_null@value_stack@json@boost@@QEAAXXZ 00000001400c1030 f   EDreamClient.obj
 0001:000c0080       ?push_bool@value_stack@json@boost@@QEAAX_N@Z 00000001400c1080 f   EDreamClient.obj
 0001:000c00e0       ?push_double@value_stack@json@boost@@QEAAXN@Z 00000001400c10e0 f   EDreamClient.obj
 0001:000c0140       ?push_uint64@value_stack@json@boost@@QEAAX_K@Z 00000001400c1140 f   EDreamClient.obj
 0001:000c01a0       ?push_int64@value_stack@json@boost@@QEAAX_J@Z 00000001400c11a0 f   EDreamClient.obj
 0001:000c0200       ?push_string@value_stack@json@boost@@QEAAXV?$basic_string_view@D@core@3@@Z 00000001400c1200 f   EDreamClient.obj
 0001:000c0400       ?push_key@value_stack@json@boost@@QEAAXV?$basic_string_view@D@core@3@@Z 00000001400c1400 f   EDreamClient.obj
 0001:000c04a0       ?push_chars@value_stack@json@boost@@QEAAXV?$basic_string_view@D@core@3@@Z 00000001400c14a0 f   EDreamClient.obj
 0001:000c0520       ?push_object@value_stack@json@boost@@QEAAX_K@Z 00000001400c1520 f   EDreamClient.obj
 0001:000c05f0       ?push_array@value_stack@json@boost@@QEAAX_K@Z 00000001400c15f0 f   EDreamClient.obj
 0001:000c0770       ?release@value_stack@json@boost@@QEAA?AVvalue@23@XZ 00000001400c1770 f   EDreamClient.obj
 0001:000c07f0       ?reset@value_stack@json@boost@@QEAAXVstorage_ptr@23@@Z 00000001400c17f0 f   EDreamClient.obj
 0001:000c08d0       ??0value_stack@json@boost@@QEAA@Vstorage_ptr@12@PEAE_K@Z 00000001400c18d0 f   EDreamClient.obj
 0001:000c0980       ??1value_stack@json@boost@@QEAA@XZ 00000001400c1980 f   EDreamClient.obj
 0001:000c09d0       ??0key_value_pair@json@boost@@QEAA@AEBV012@Vstorage_ptr@12@@Z 00000001400c19d0 f   EDreamClient.obj
 0001:000c0ac0       ?swap@value@json@boost@@QEAAXAEAV123@@Z 00000001400c1ac0 f   EDreamClient.obj
 0001:000c0cb0       ??4value@json@boost@@QEAAAEAV012@AEBV012@@Z 00000001400c1cb0 f   EDreamClient.obj
 0001:000c0db0       ??0value@json@boost@@QEAA@$$QEAV012@Vstorage_ptr@12@@Z 00000001400c1db0 f   EDreamClient.obj
 0001:000c0f60       ??0value@json@boost@@QEAA@$$QEAV012@@Z 00000001400c1f60 f   EDreamClient.obj
 0001:000c0fa0       ?reserve_impl@string@json@boost@@AEAAX_K@Z 00000001400c1fa0 f   EDreamClient.obj
 0001:000c10e0       ?assign@string@json@boost@@QEAAAEAV123@PEBD@Z 00000001400c20e0 f   EDreamClient.obj
 0001:000c1140       ?assign@string@json@boost@@QEAAAEAV123@PEBD_K@Z 00000001400c2140 f   EDreamClient.obj
 0001:000c1190       ?assign@string@json@boost@@QEAAAEAV123@$$QEAV123@@Z 00000001400c2190 f   EDreamClient.obj
 0001:000c1290       ?assign@string@json@boost@@QEAAAEAV123@AEBV123@@Z 00000001400c2290 f   EDreamClient.obj
 0001:000c1310       ??4string@json@boost@@QEAAAEAV012@V?$basic_string_view@D@core@2@@Z 00000001400c2310 f   EDreamClient.obj
 0001:000c1370       ??0string@json@boost@@QEAA@V?$basic_string_view@D@core@2@Vstorage_ptr@12@@Z 00000001400c2370 f   EDreamClient.obj
 0001:000c1520       ??0string@json@boost@@QEAA@$$QEAV012@Vstorage_ptr@12@@Z 00000001400c2520 f   EDreamClient.obj
 0001:000c15a0       ??0string@json@boost@@QEAA@AEBV012@Vstorage_ptr@12@@Z 00000001400c25a0 f   EDreamClient.obj
 0001:000c1620       ??0string@json@boost@@QEAA@PEBDVstorage_ptr@12@@Z 00000001400c2620 f   EDreamClient.obj
 0001:000c17d0       ?release@stream_parser@json@boost@@QEAA?AVvalue@23@XZ 00000001400c27d0 f   EDreamClient.obj
 0001:000c1880       ?finish@stream_parser@json@boost@@QEAAXXZ 00000001400c2880 f   EDreamClient.obj
 0001:000c1910       ?finish@stream_parser@json@boost@@QEAAXAEAVerror_code@system@3@@Z 00000001400c2910 f   EDreamClient.obj
 0001:000c1940       ?write@stream_parser@json@boost@@QEAA_KPEBD_KAEAVerror_code@system@3@@Z 00000001400c2940 f   EDreamClient.obj
 0001:000c1a60       ?write_some@stream_parser@json@boost@@QEAA_KPEBD_KAEAVerror_code@system@3@@Z 00000001400c2a60 f   EDreamClient.obj
 0001:000c1a90       ?reset@stream_parser@json@boost@@QEAAXVstorage_ptr@23@@Z 00000001400c2a90 f   EDreamClient.obj
 0001:000c1b40       ??0stream_parser@json@boost@@QEAA@Vstorage_ptr@12@AEBUparse_options@12@PEAE_K@Z 00000001400c2b40 f   EDreamClient.obj
 0001:000c1c10       ?do_is_equal@static_resource@json@boost@@MEBA_NAEBVmemory_resource@pmr@container@3@@Z 00000001400c2c10 f   EDreamClient.obj
 0001:000c1c20       ?do_deallocate@static_resource@json@boost@@MEAAXPEAX_K1@Z 00000001400c2c20 f   EDreamClient.obj
 0001:000c1c30       ?do_allocate@static_resource@json@boost@@MEAAPEAX_K0@Z 00000001400c2c30 f   EDreamClient.obj
 0001:000c1ce0       ??1static_resource@json@boost@@UEAA@XZ 00000001400c2ce0 f   EDreamClient.obj
 0001:000c1d00       ?read@serializer@json@boost@@QEAA?AV?$basic_string_view@D@core@3@PEAD_K@Z 00000001400c2d00 f   EDreamClient.obj
 0001:000c1df0       ?reset@serializer@json@boost@@QEAAXV?$basic_string_view@D@core@3@@Z 00000001400c2df0 f   EDreamClient.obj
 0001:000c1e30       ?reset@serializer@json@boost@@QEAAXPEBVvalue@23@@Z 00000001400c2e30 f   EDreamClient.obj
 0001:000c1e60       ??0serializer@json@boost@@QEAA@Vstorage_ptr@12@PEAE_KAEBUserialize_options@12@@Z 00000001400c2e60 f   EDreamClient.obj
 0001:000c1ef0       ??1serializer@json@boost@@QEAA@XZ 00000001400c2ef0 f   EDreamClient.obj
 0001:000c1f00       ?serialize@json@boost@@YA?AV?$basic_string@DU?$char_traits@D@std@@V?$allocator@D@2@@std@@V?$basic_string_view@D@core@2@AEBUserialize_options@12@@Z 00000001400c2f00 f   EDreamClient.obj
 0001:000c2010       ?serialize@json@boost@@YA?AV?$basic_string@DU?$char_traits@D@std@@V?$allocator@D@2@@std@@AEBVstring@12@AEBUserialize_options@12@@Z 00000001400c3010 f   EDreamClient.obj
 0001:000c2400       ?release@parser@json@boost@@QEAA?AVvalue@23@XZ 00000001400c3400 f   EDreamClient.obj
 0001:000c24e0       ?write@parser@json@boost@@QEAA_KPEBD_KAEAVerror_code@system@3@@Z 00000001400c34e0 f   EDreamClient.obj
 0001:000c2600       ?write_some@parser@json@boost@@QEAA_KPEBD_KAEAVerror_code@system@3@@Z 00000001400c3600 f   EDreamClient.obj
 0001:000c2630       ?reset@parser@json@boost@@QEAAXVstorage_ptr@23@@Z 00000001400c3630 f   EDreamClient.obj
 0001:000c26e0       ??0parser@json@boost@@QEAA@Vstorage_ptr@12@AEBUparse_options@12@PEAE_K@Z 00000001400c36e0 f   EDreamClient.obj
 0001:000c27b0       ?parse@json@boost@@YA?AVvalue@12@AEAV?$basic_istream@DU?$char_traits@D@std@@@std@@AEAVerror_code@5@Vstorage_ptr@12@AEBUparse_options@12@@Z 00000001400c37b0 f   EDreamClient.obj
 0001:000c2890       ?parse@json@boost@@YA?AVvalue@12@AEAV?$basic_istream@DU?$char_traits@D@std@@@std@@AEAVerror_code@system@2@Vstorage_ptr@12@AEBUparse_options@12@@Z 00000001400c3890 f   EDreamClient.obj
 0001:000c2df0       ?parse@json@boost@@YA?AVvalue@12@V?$basic_string_view@D@core@2@Vstorage_ptr@12@AEBUparse_options@12@@Z 00000001400c3df0 f   EDreamClient.obj
 0001:000c2ef0       ?reserve_impl@object@json@boost@@AEAAPEAUtable@123@_K@Z 00000001400c3ef0 f   EDreamClient.obj
 0001:000c3050       ?insert_impl@object@json@boost@@AEAAPEAVkey_value_pair@23@V?$pilfered@Vkey_value_pair@json@boost@@@23@_K@Z 00000001400c4050 f   EDreamClient.obj
 0001:000c3140       ?if_contains@object@json@boost@@QEAAPEAVvalue@23@V?$basic_string_view@D@core@3@@Z 00000001400c4140 f   EDreamClient.obj
 0001:000c31b0       ?find@object@json@boost@@QEAAPEAVkey_value_pair@23@V?$basic_string_view@D@core@3@@Z 00000001400c41b0 f   EDreamClient.obj
 0001:000c3200       ?swap@object@json@boost@@QEAAXAEAV123@@Z 00000001400c4200 f   EDreamClient.obj
 0001:000c35c0       ??4object@json@boost@@QEAAAEAV012@$$QEAV012@@Z 00000001400c45c0 f   EDreamClient.obj
 0001:000c37a0       ??0object@json@boost@@QEAA@$$QEAV012@Vstorage_ptr@12@@Z 00000001400c47a0 f   EDreamClient.obj
 0001:000c39e0       ??0object@json@boost@@AEAA@$$QEAVunchecked_object@detail@12@@Z 00000001400c49e0 f   EDreamClient.obj
 0001:000c3dd0       ?destroy@revert_insert@object@json@boost@@AEAAXXZ 00000001400c4dd0 f   EDreamClient.obj
 0001:000c3e10       ?destroy@revert_construct@object@json@boost@@AEAAXXZ 00000001400c4e10 f   EDreamClient.obj
 0001:000c3e20       ?digest@table@object@json@boost@@QEBA_KV?$basic_string_view@D@core@4@@Z 00000001400c4e20 f   EDreamClient.obj
 0001:000c3e70       ?do_is_equal@monotonic_resource@json@boost@@MEBA_NAEBVmemory_resource@pmr@container@3@@Z 00000001400c4e70 f   EDreamClient.obj
 0001:000c3e80       ?do_deallocate@monotonic_resource@json@boost@@MEAAXPEAX_K1@Z 00000001400c4e80 f   EDreamClient.obj
 0001:000c3e90       ?do_allocate@monotonic_resource@json@boost@@MEAAPEAX_K0@Z 00000001400c4e90 f   EDreamClient.obj
 0001:000c4030       ?release@monotonic_resource@json@boost@@QEAAXXZ 00000001400c5030 f   EDreamClient.obj
 0001:000c40d0       ??1monotonic_resource@json@boost@@UEAA@XZ 00000001400c50d0 f   EDreamClient.obj
 0001:000c41c0       ?message@error_condition_category_t@detail@json@boost@@UEBA?AV?$basic_string@DU?$char_traits@D@std@@V?$allocator@D@2@@std@@H@Z 00000001400c51c0 f   EDreamClient.obj
 0001:000c4230       ?message@error_condition_category_t@detail@json@boost@@UEBAPEBDHPEAD_K@Z 00000001400c5230 f   EDreamClient.obj
 0001:000c4270       ?name@error_condition_category_t@detail@json@boost@@UEBAPEBDXZ 00000001400c5270 f   EDreamClient.obj
 0001:000c4280       ?default_error_condition@error_code_category_t@detail@json@boost@@UEBA?AVerror_condition@system@4@H@Z 00000001400c5280 f   EDreamClient.obj
 0001:000c4350       ?message@error_code_category_t@detail@json@boost@@UEBA?AV?$basic_string@DU?$char_traits@D@std@@V?$allocator@D@2@@std@@H@Z 00000001400c5350 f   EDreamClient.obj
 0001:000c43c0       ?message@error_code_category_t@detail@json@boost@@UEBAPEBDHPEAD_K@Z 00000001400c53c0 f   EDreamClient.obj
 0001:000c45c0       ?name@error_code_category_t@detail@json@boost@@UEBAPEBDXZ 00000001400c55c0 f   EDreamClient.obj
 0001:000c45d0       ?push_back@array@json@boost@@AEAAAEAVvalue@23@V?$pilfered@Vvalue@json@boost@@@23@@Z 00000001400c55d0 f   EDreamClient.obj
 0001:000c4790       ?swap@array@json@boost@@QEAAXAEAV123@@Z 00000001400c5790 f   EDreamClient.obj
 0001:000c4a60       ?push_back@array@json@boost@@QEAAX$$QEAVvalue@23@@Z 00000001400c5a60 f   EDreamClient.obj
 0001:000c4a70       ??4array@json@boost@@QEAAAEAV012@AEBV012@@Z 00000001400c5a70 f   EDreamClient.obj
 0001:000c4b80       ??0array@json@boost@@QEAA@$$QEAV012@Vstorage_ptr@12@@Z 00000001400c5b80 f   EDreamClient.obj
 0001:000c4cd0       ??0array@json@boost@@QEAA@AEBV012@Vstorage_ptr@12@@Z 00000001400c5cd0 f   EDreamClient.obj
 0001:000c4e00       ??0array@json@boost@@AEAA@$$QEAVunchecked_array@detail@12@@Z 00000001400c5e00 f   EDreamClient.obj
 0001:000c4ef0       ?destroy@array@json@boost@@AEAAXXZ 00000001400c5ef0 f   EDreamClient.obj
 0001:000c4fa0       ??1revert_insert@array@json@boost@@QEAA@XZ 00000001400c5fa0 f   EDreamClient.obj
 0001:000c5050       ?deallocate@table@array@json@boost@@SAXPEAU1234@AEBVstorage_ptr@34@@Z 00000001400c6050 f   EDreamClient.obj
 0001:000c50a0       ?allocate@table@array@json@boost@@SAPEAU1234@_KAEBVstorage_ptr@34@@Z 00000001400c60a0 f   EDreamClient.obj
 0001:000c5110       ?SetCPUUsage@EDreamClient@@SAXH@Z 00000001400c6110 f   EDreamClient.obj
 0001:000c5120       ?IsLoggedIn@EDreamClient@@SA_NXZ 00000001400c6120 f   EDreamClient.obj
 0001:000c5190       ?DeinitializeClient@EDreamClient@@SAXXZ 00000001400c6190 f   EDreamClient.obj
 0001:000c51a0       ?InitializeClient@EDreamClient@@SAXXZ 00000001400c61a0 f   EDreamClient.obj
 0001:000c5670       ??1value@json@boost@@QEAA@XZ 00000001400c6670 f   EDreamClient.obj
 0001:000c5700       ??0value@json@boost@@QEAA@AEBV012@Vstorage_ptr@12@@Z 00000001400c6700 f   EDreamClient.obj
 0001:000c58b0       ??1array@json@boost@@QEAA@XZ 00000001400c68b0 f   EDreamClient.obj
 0001:000c5900       ??0array@json@boost@@QEAA@AEBV012@@Z 00000001400c6900 f   EDreamClient.obj
 0001:000c5940       ?find@object@json@boost@@QEBAPEBVkey_value_pair@23@V?$basic_string_view@D@core@3@@Z 00000001400c6940 f   EDreamClient.obj
 0001:000c5990       ??1object@json@boost@@QEAA@XZ 00000001400c6990 f   EDreamClient.obj
 0001:000c5a00       ??0object@json@boost@@QEAA@$$QEAV012@@Z 00000001400c6a00 f   EDreamClient.obj
 0001:000c5a40       ??0object@json@boost@@QEAA@AEBV012@Vstorage_ptr@12@@Z 00000001400c6a40 f   EDreamClient.obj
 0001:000c5c30       ?parse@json@boost@@YA?AVvalue@12@V?$basic_string_view@D@core@2@AEAVerror_code@system@2@Vstorage_ptr@12@AEBUparse_options@12@@Z 00000001400c6c30 f   EDreamClient.obj
 0001:000c5fe0       ?throw_system_error@detail@json@boost@@YAXW4error@23@PEBUsource_location@3@@Z 00000001400c6fe0 f   EDreamClient.obj
 0001:000c6040       ?serialize@json@boost@@YA?AV?$basic_string@DU?$char_traits@D@std@@V?$allocator@D@2@@std@@AEBVvalue@12@AEBUserialize_options@12@@Z 00000001400c7040 f   EDreamClient.obj
 0001:000c6130       ?GetDreams@EDreamClient@@SA_NHH@Z 00000001400c7130 f   EDreamClient.obj
 0001:000c6ce0       ?ParsePlaylist@EDreamClient@@SA?AV?$vector@V?$basic_string@DU?$char_traits@D@std@@V?$allocator@D@2@@std@@V?$allocator@V?$basic_string@DU?$char_traits@D@std@@V?$allocator@D@2@@std@@@2@@std@@H@Z 00000001400c7ce0 f   EDreamClient.obj
 0001:000ca2b0       ?Config@JSONStorage@TupleStorage@@UEAA_NV?$basic_string_view@DU?$char_traits@D@std@@@std@@@Z 00000001400cb2b0 f   JSONStorage.obj
 0001:000ca2c0       ?Commit@JSONStorage@TupleStorage@@UEAA_NXZ 00000001400cb2c0 f   JSONStorage.obj
 0001:000ca4c0       ?Remove@JSONStorage@TupleStorage@@UEAA_NV?$basic_string_view@DU?$char_traits@D@std@@@std@@@Z 00000001400cb4c0 f   JSONStorage.obj
 0001:000ca4d0       ?Get@JSONStorage@TupleStorage@@UEAA_NV?$basic_string_view@DU?$char_traits@D@std@@@std@@AEA_N@Z 00000001400cb4d0 f   JSONStorage.obj
 0001:000ca530       ?Get@JSONStorage@TupleStorage@@UEAA_NV?$basic_string_view@DU?$char_traits@D@std@@@std@@AEAH@Z 00000001400cb530 f   JSONStorage.obj
 0001:000ca590       ?Get@JSONStorage@TupleStorage@@UEAA_NV?$basic_string_view@DU?$char_traits@D@std@@@std@@AEAN@Z 00000001400cb590 f   JSONStorage.obj
 0001:000ca600       ?Get@JSONStorage@TupleStorage@@UEAA_NV?$basic_string_view@DU?$char_traits@D@std@@@std@@AEA_K@Z 00000001400cb600 f   JSONStorage.obj
 0001:000ca670       ?Get@JSONStorage@TupleStorage@@UEAA_NV?$basic_string_view@DU?$char_traits@D@std@@@std@@AEAV?$basic_string@DU?$char_traits@D@std@@V?$allocator@D@2@@4@@Z 00000001400cb670 f   JSONStorage.obj
 0001:000ca6d0       ?Get@JSONStorage@TupleStorage@@UEAA_NV?$basic_string_view@DU?$char_traits@D@std@@@std@@AEAV?$vector@V?$basic_string@DU?$char_traits@D@std@@V?$allocator@D@2@@std@@V?$allocator@V?$basic_string@DU?$char_traits@D@std@@V?$allocator@D@2@@std@@@2@@4@@Z 00000001400cb6d0 f   JSONStorage.obj
 0001:000ca740       ?Set@JSONStorage@TupleStorage@@UEAA_NV?$basic_string_view@DU?$char_traits@D@std@@@std@@_N@Z 00000001400cb740 f   JSONStorage.obj
 0001:000ca7c0       ?Set@JSONStorage@TupleStorage@@UEAA_NV?$basic_string_view@DU?$char_traits@D@std@@@std@@H@Z 00000001400cb7c0 f   JSONStorage.obj
 0001:000ca840       ?Set@JSONStorage@TupleStorage@@UEAA_NV?$basic_string_view@DU?$char_traits@D@std@@@std@@N@Z 00000001400cb840 f   JSONStorage.obj
 0001:000ca8c0       ?Set@JSONStorage@TupleStorage@@UEAA_NV?$basic_string_view@DU?$char_traits@D@std@@@std@@_K@Z 00000001400cb8c0 f   JSONStorage.obj
 0001:000ca940       ?Set@JSONStorage@TupleStorage@@UEAA_NV?$basic_string_view@DU?$char_traits@D@std@@@std@@0@Z 00000001400cb940 f   JSONStorage.obj
 0001:000caa40       ?Set@JSONStorage@TupleStorage@@UEAA_NV?$basic_string_view@DU?$char_traits@D@std@@@std@@V?$vector@V?$basic_string@DU?$char_traits@D@std@@V?$allocator@D@2@@std@@V?$allocator@V?$basic_string@DU?$char_traits@D@std@@V?$allocator@D@2@@std@@@2@@4@@Z 00000001400cba40 f   JSONStorage.obj
 0001:000cab30       ?Finalise@JSONStorage@TupleStorage@@UEAA_NXZ 00000001400cbb30 f   JSONStorage.obj
 0001:000cab40       ?Initialise@JSONStorage@TupleStorage@@UEAA_NV?$basic_string_view@DU?$char_traits@D@std@@@std@@0_N@Z 00000001400cbb40 f   JSONStorage.obj
 0001:000cb1a0       ?CalculateNextClipThread@CPlayer@@QEAAXXZ 00000001400cc1a0 f   Player.obj
 0001:000cb640       ?PlayClip@CPlayer@@QEAA_NV?$basic_string_view@DU?$char_traits@D@std@@@std@@N_J@Z 00000001400cc640 f   Player.obj
 0001:000cbbb0       ?PlayQueuedClipsThread@CPlayer@@QEAAXXZ 00000001400ccbb0 f   Player.obj
 0001:000cc5a0       ?Shutdown@CPlayer@@UEAA_NXZ 00000001400cd5a0 f   Player.obj
 0001:000cc780       ?Stop@CPlayer@@QEAAXXZ     00000001400cd780 f   Player.obj
 0001:000ccaf0       ?RepeatClip@CPlayer@@QEAAXXZ 00000001400cdaf0 f   Player.obj
 0001:000cce20       ?SkipForward@CPlayer@@QEAAXM@Z 00000001400cde20 f   Player.obj
 0001:000cd160       ?ReturnToPrevious@CPlayer@@QEAAXXZ 00000001400ce160 f   Player.obj
 0001:000cd520       ?SkipToNext@CPlayer@@QEAAXXZ 00000001400ce520 f   Player.obj
 0001:000cd8a0       ?ResetPlaylist@CPlayer@@QEAAXXZ 00000001400ce8a0 f   Player.obj
 0001:000cd9b0       ?GetCurrentFrameMetadata@CPlayer@@QEBAPEBUsFrameMetadata@ContentDecoder@@XZ 00000001400ce9b0 f   Player.obj
 0001:000cda30       ?GetCurrentPlayingClipMetadata@CPlayer@@QEBAPEBUsClipMetadata@ContentDecoder@@XZ 00000001400cea30 f   Player.obj
 0001:000cda90       ?GetPerceptualFPS@CPlayer@@QEAANXZ 00000001400cea90 f   Player.obj
 0001:000cdaa0       ?SetPerceptualFPS@CPlayer@@QEAAXN@Z 00000001400ceaa0 f   Player.obj
 0001:000cdb20       ?MultiplyPerceptualFPS@CPlayer@@QEAAXN@Z 00000001400ceb20 f   Player.obj
 0001:000cdbb0       ?AddDisplay@CPlayer@@QEAAHIPEAUIDirect3D9@@_N@Z 00000001400cebb0 f   Player.obj
 0001:000ce420       ?Start@CPlayer@@QEAAXXZ    00000001400cf420 f   Player.obj
 0001:000ce580       ?Update@CPlayer@@QEAA_NIAEA_N@Z 00000001400cf580 f   Player.obj
 0001:000ce8c0       ?EndDisplayFrame@CPlayer@@QEAA_NI_N@Z 00000001400cf8c0 f   Player.obj
 0001:000ce9f0       ?BeginDisplayFrame@CPlayer@@QEAA_NI@Z 00000001400cf9f0 f   Player.obj
 0001:000ceb10       ?EndFrameUpdate@CPlayer@@QEAA_NXZ 00000001400cfb10 f   Player.obj
 0001:000ceb20       ?BeginFrameUpdate@CPlayer@@QEAA_NXZ 00000001400cfb20 f   Player.obj
 0001:000cf440       ?Startup@CPlayer@@QEAA_NXZ 00000001400d0440 f   Player.obj
 0001:000d0110       ?SetHWND@CPlayer@@QEAAXPEAUHWND__@@@Z 00000001400d1110 f   Player.obj
 0001:000d0170       ??1CPlayer@@UEAA@XZ        00000001400d1170 f   Player.obj
 0001:000d02c0       ??0CPlayer@@AEAA@XZ        00000001400d12c0 f   Player.obj
 0001:000d0500       ?ThreadFunc@CVote@@AEAAXXZ 00000001400d1500 f   Voting.obj
 0001:000d0f80       ??1CVote@@UEAA@XZ          00000001400d1f80 f   Voting.obj
 0001:000d1020       ?Vote@CVote@@QEAA_NV?$basic_string_view@DU?$char_traits@D@std@@@std@@EM@Z 00000001400d2020 f   Voting.obj
 0001:000d12c0       ??0CVote@@QEAA@XZ          00000001400d22c0 f   Voting.obj
 0001:000d17d0       ?Cancel@CDelayedDispatch@@QEAAXXZ 00000001400d27d0 f   PlatformUtils_win.obj
 0001:000d17e0       ?DispatchAfter@CDelayedDispatch@@QEAAX_K@Z 00000001400d27e0 f   PlatformUtils_win.obj
 0001:000d1810       ??0CDelayedDispatch@@QEAA@V?$function@$$A6AXXZ@std@@@Z 00000001400d2810 f   PlatformUtils_win.obj
 0001:000d18a0       ?DispatchOnMainThread@PlatformUtils@@SAXV?$function@$$A6AXXZ@std@@@Z 00000001400d28a0 f   PlatformUtils_win.obj
 0001:000d18e0       ?SetOnMouseMovedCallback@PlatformUtils@@SAXV?$function@$$A6AXHH@Z@std@@@Z 00000001400d28e0 f   PlatformUtils_win.obj
 0001:000d1920       ?SetCursorHidden@PlatformUtils@@SAX_N@Z 00000001400d2920 f   PlatformUtils_win.obj
 0001:000d1940       ?OpenURLExternally@PlatformUtils@@SAXV?$basic_string_view@DU?$char_traits@D@std@@@std@@@Z 00000001400d2940 f   PlatformUtils_win.obj
 0001:000d1980       ?GetAppVersion@PlatformUtils@@SA?AV?$basic_string@DU?$char_traits@D@std@@V?$allocator@D@2@@std@@XZ 00000001400d2980 f   PlatformUtils_win.obj
 0001:000d19c0       ?GetGitRevision@PlatformUtils@@SA?AV?$basic_string@DU?$char_traits@D@std@@V?$allocator@D@2@@std@@XZ 00000001400d29c0 f   PlatformUtils_win.obj
 0001:000d1a10       ?GetBuildDate@PlatformUtils@@SA?AV?$basic_string@DU?$char_traits@D@std@@V?$allocator@D@2@@std@@XZ 00000001400d2a10 f   PlatformUtils_win.obj
 0001:000d1a60       ?IsInternetReachable@PlatformUtils@@SA_NXZ 00000001400d2a60 f   PlatformUtils_win.obj
 0001:000d1a70       ?SetThreadName@PlatformUtils@@SAXV?$basic_string_view@DU?$char_traits@D@std@@@std@@@Z 00000001400d2a70 f   PlatformUtils_win.obj
 0001:000d1a80       ??1CDisplayOutput@DisplayOutput@@UEAA@XZ 00000001400d2a80 f   DisplayOutput.obj
 0001:000d1aa0       ??0CDisplayOutput@DisplayOutput@@QEAA@XZ 00000001400d2aa0 f   DisplayOutput.obj
 0001:000d1ad0       ?ClearEvents@CDisplayOutput@DisplayOutput@@QEAAXXZ 00000001400d2ad0 f   DisplayOutput.obj
 0001:000d1b80       ?GetEvent@CDisplayOutput@DisplayOutput@@QEAA_NAEAV?$shared_ptr@VCEvent@DisplayOutput@@@std@@@Z 00000001400d2b80 f   DisplayOutput.obj
 0001:000d1c30       ?createMipMaps@CImage@DisplayOutput@@AEAA_NXZ 00000001400d2c30 f   Image.obj
 0001:000d1f10       ?buildMipMapRGB565@DisplayOutput@@YAXPEAG0II@Z 00000001400d2f10 f   Image.obj
 0001:000d2110       ?buildMipMap32f@DisplayOutput@@YAXPEAM0III@Z 00000001400d3110 f   Image.obj
 0001:000d2340       ?buildMipMap8@DisplayOutput@@YAXPEAE0III@Z 00000001400d3340 f   Image.obj
 0001:000d2450       ?GenerateMipmaps@CImage@DisplayOutput@@QEAA_NXZ 00000001400d3450 f   Image.obj
 0001:000d2550       ?getNumberOfMipMapsFromDimesions@CImage@DisplayOutput@@AEBAIXZ 00000001400d3550 f   Image.obj
 0001:000d2570       ?getMipMappedSize@CImage@DisplayOutput@@AEBAIIIAEBVCImageFormat@2@@Z 00000001400d3570 f   Image.obj
 0001:000d2650       ?GetPitch@CImage@DisplayOutput@@QEBAII@Z 00000001400d3650 f   Image.obj
 0001:000d2680       ?GetData@CImage@DisplayOutput@@QEBAPEAEI@Z 00000001400d3680 f   Image.obj
 0001:000d26f0       ?getMipMappedSize@CImage@DisplayOutput@@QEBAIII@Z 00000001400d36f0 f   Image.obj
 0001:000d2700       ?PutPixel@CImage@DisplayOutput@@QEAAXHHMMMM@Z 00000001400d3700 f   Image.obj
 0001:000d2900       ?Load@CImage@DisplayOutput@@QEAA_NAEBV?$basic_string@DU?$char_traits@D@std@@V?$allocator@D@2@@std@@_N@Z 00000001400d3900 f   Image.obj
 0001:000d2b90       ?Create@CImage@DisplayOutput@@QEAAXIIW4eImageFormat@2@_N1@Z 00000001400d3b90 f   Image.obj
 0001:000d2ca0       ??1CImage@DisplayOutput@@QEAA@XZ 00000001400d3ca0 f   Image.obj
 0001:000d2d00       ??0CImage@DisplayOutput@@QEAA@XZ 00000001400d3d00 f   Image.obj
 0001:000d2d20       ?LoadDDS@CImage@DisplayOutput@@AEAA_NAEBV?$basic_string@DU?$char_traits@D@std@@V?$allocator@D@2@@std@@_N@Z 00000001400d3d20 f   LoadDDS.obj
 0001:000d2f80       ?LoadPNG@CImage@DisplayOutput@@AEAA_NAEBV?$basic_string@DU?$char_traits@D@std@@V?$allocator@D@2@@std@@_N@Z 00000001400d3f80 f   LoadPNG.obj
 0001:000d33f0       ??1CBaseFont@DisplayOutput@@UEAA@XZ 00000001400d43f0 f   Font.obj
 0001:000d3460       ??1CFontDescription@DisplayOutput@@QEAA@XZ 00000001400d4460 f   Font.obj
 0001:000d34d0       ??0CFontDescription@DisplayOutput@@QEAA@XZ 00000001400d44d0 f   Font.obj
 0001:000d3510       ?SetTransform@CRenderer@DisplayOutput@@QEAAXAEBVCMatrix4x4_x86@Math@Base@45@W4eMatrixTransformType@12@@Z 00000001400d4510 f   Renderer.obj
 0001:000d3550       ?Orthographic@CRenderer@DisplayOutput@@QEAAXII@Z 00000001400d4550 f   Renderer.obj
 0001:000d35f0       ?AddBlend@CRenderer@DisplayOutput@@QEAAXV?$basic_string@DU?$char_traits@D@std@@V?$allocator@D@2@@std@@HHH@Z 00000001400d45f0 f   Renderer.obj
 0001:000d3790       ?SetShader@CRenderer@DisplayOutput@@UEAAXV?$shared_ptr@VCShader@DisplayOutput@@@std@@@Z 00000001400d4790 f   Renderer.obj
 0001:000d37f0       ?SetTexture@CRenderer@DisplayOutput@@UEAAXV?$shared_ptr@VCTexture@DisplayOutput@@@std@@I@Z 00000001400d47f0 f   Renderer.obj
 0001:000d3860       ?Apply@CRenderer@DisplayOutput@@UEAAXXZ 00000001400d4860 f   Renderer.obj
 0001:000d3a90       ?Reset@CRenderer@DisplayOutput@@UEAAXI@Z 00000001400d4a90 f   Renderer.obj
 0001:000d3e60       ?Initialize@CRenderer@DisplayOutput@@UEAA_NV?$shared_ptr@VCDisplayOutput@DisplayOutput@@@std@@@Z 00000001400d4e60 f   Renderer.obj
 0001:000d3f60       ??1CRenderer@DisplayOutput@@UEAA@XZ 00000001400d4f60 f   Renderer.obj
 0001:000d4200       ?Orthographic@CRenderer@DisplayOutput@@QEAAXXZ 00000001400d5200 f   Renderer.obj
 0001:000d42a0       ?SetBlend@CRenderer@DisplayOutput@@QEAAXV?$basic_string@DU?$char_traits@D@std@@V?$allocator@D@2@@std@@@Z 00000001400d52a0 f   Renderer.obj
 0001:000d4350       ??1CShader@DisplayOutput@@UEAA@XZ 00000001400d5350 f   Shader.obj
 0001:000d43c0       ??1CTexture@DisplayOutput@@UEAA@XZ 00000001400d53c0 f   Texture.obj
 0001:000d43d0       ??1CTextureFlat@DisplayOutput@@UEAA@XZ 00000001400d53d0 f   TextureFlat.obj
 0001:000d4470       ??1CFileDownloader_TimeCondition@Network@@UEAA@XZ 00000001400d5470 f   Download.obj
 0001:000d4490       ?Perform@CFileDownloader@Network@@UEAA_NAEBV?$basic_string@DU?$char_traits@D@std@@V?$allocator@D@2@@std@@@Z 00000001400d5490 f   Download.obj
 0001:000d4530       ?customWrite@CFileDownloader@Network@@SAHPEAX_K10@Z 00000001400d5530 f   Download.obj
 0001:000d45c0       ??1CFileDownloader@Network@@UEAA@XZ 00000001400d55c0 f   Download.obj
 0001:000d4650       ?SetPostFields@CFileDownloader@Network@@QEAA_NPEBD@Z 00000001400d5650 f   Download.obj
 0001:000d4690       ?Save@CFileDownloader@Network@@QEAA_NAEBV?$basic_string@DU?$char_traits@D@std@@V?$allocator@D@2@@std@@@Z 00000001400d5690 f   Download.obj
 0001:000d48a0       ??0CFileDownloader@Network@@QEAA@AEBV?$basic_string@DU?$char_traits@D@std@@V?$allocator@D@2@@std@@@Z 00000001400d58a0 f   Download.obj
 0001:000d4940       ?UpdateProgress@CManager@Network@@QEAAXPEAVCCurlTransfer@2@NN@Z 00000001400d5940 f   Networking.obj
 0001:000d4cc0       ?IsAborted@CManager@Network@@QEAA_NXZ 00000001400d5cc0 f   Networking.obj
 0001:000d4d30       ?Prepare@CManager@Network@@QEAA?AW4CURLcode@@PEAX@Z 00000001400d5d30 f   Networking.obj
 0001:000d4e90       ?customProgressCallback@CCurlTransfer@Network@@SAHPEAXNNNN@Z 00000001400d5e90 f   Networking.obj
 0001:000d4f70       ?VerifyM@CCurlTransfer@Network@@IEAA_NW4CURLMcode@@@Z 00000001400d5f70 f   Networking.obj
 0001:000d50a0       ?Perform@CCurlTransfer@Network@@UEAA_NAEBV?$basic_string@DU?$char_traits@D@std@@V?$allocator@D@2@@std@@@Z 00000001400d60a0 f   Networking.obj
 0001:000d5d20       ?InterruptiblePerform@CCurlTransfer@Network@@UEAA_NXZ 00000001400d6d20 f   Networking.obj
 0001:000d64c0       ?AppendHeader@CCurlTransfer@Network@@UEAAXAEBV?$basic_string@DU?$char_traits@D@std@@V?$allocator@D@2@@std@@@Z 00000001400d74c0 f   Networking.obj
 0001:000d6500       ??1CCurlTransfer@Network@@UEAA@XZ 00000001400d7500 f   Networking.obj
 0001:000d6700       ?Verify@CCurlTransfer@Network@@IEAA_NW4CURLcode@@@Z 00000001400d7700 f   Networking.obj
 0001:000d6830       ??0CCurlTransfer@Network@@QEAA@AEBV?$basic_string@DU?$char_traits@D@std@@V?$allocator@D@2@@std@@@Z 00000001400d7830 f   Networking.obj
 0001:000d69d0       ?Status@CManager@Network@@QEAA?AV?$basic_string@DU?$char_traits@D@std@@V?$allocator@D@2@@std@@XZ 00000001400d79d0 f   Networking.obj
 0001:000d6ee0       ?Proxy@CManager@Network@@QEAAXAEBV?$basic_string@DU?$char_traits@D@std@@V?$allocator@D@2@@std@@00@Z 00000001400d7ee0 f   Networking.obj
 0001:000d71a0       ?Startup@CManager@Network@@QEAA_NXZ 00000001400d81a0 f   Networking.obj
 0001:000d7200       ?Abort@CManager@Network@@QEAAXXZ 00000001400d8200 f   Networking.obj
 0001:000d7260       ?Shutdown@CManager@Network@@UEAA_NXZ 00000001400d8260 f   Networking.obj
 0001:000d7280       ??0CManager@Network@@AEAA@XZ 00000001400d8280 f   Networking.obj
 0001:000d7380       ??1CFileUploader@Network@@UEAA@XZ 00000001400d8380 f   Upload.obj
 0001:000d7390       ?CreateDir@IStorageInterface@TupleStorage@@SA_NV?$basic_string_view@DU?$char_traits@D@std@@@std@@@Z 00000001400d8390 f   storage.obj
 0001:000d75f0       ?CreateFullDirectory@IStorageInterface@TupleStorage@@SA_NV?$basic_string_view@DU?$char_traits@D@std@@@std@@@Z 00000001400d85f0 f   storage.obj
 0001:000d7678       ??0__non_rtti_object@std@@QEAA@AEBV01@@Z 00000001400d8678 f i libvcruntime:rtti.obj
 0001:000d76b4       ??0bad_typeid@std@@QEAA@AEBV01@@Z 00000001400d86b4 f i libvcruntime:rtti.obj
 0001:000d7bdc       ?__construct_from_string_literal@__non_rtti_object@std@@SA?AV12@QEBD@Z 00000001400d8bdc f i libvcruntime:rtti.obj
 0001:000d7bf4       ?__construct_from_string_literal@bad_cast@std@@SA?AV12@QEBD@Z 00000001400d8bf4 f i libvcruntime:rtti.obj
 0001:000d7c0c       __RTDynamicCast            00000001400d8c0c f   libvcruntime:rtti.obj
 0001:000d7d74       _fdclass                   00000001400d8d74 f   libucrt:nanf.obj
 0001:000d7d90       ceilf                      00000001400d8d90 f   libucrt:ceilf.obj
 0001:000d7e20       fmod                       00000001400d8e20 f   libucrt:fmod.obj
 0001:000d8100       log                        00000001400d9100 f   libucrt:log.obj
 0001:000d8630       pow                        00000001400d9630 f   libucrt:pow.obj
 0001:000d9cd0       powf                       00000001400dacd0 f   libucrt:powf.obj
 0001:000dab98       sqrtf                      00000001400dbb98 f   libucrt:sqrtf.obj
 0001:000dac40       _pow_special               00000001400dbc40 f   libucrt:pow_special.obj
 0001:000dad74       _powf_special              00000001400dbd74 f   libucrt:pow_special.obj
 0001:000daf00       _guard_dispatch_icall_nop  00000001400dbf00 f   odbccp32:guard_dispatch.obj
 0001:000daf20       _guard_xfg_dispatch_icall_nop 00000001400dbf20 f   odbccp32:guard_xfg_dispatch.obj
 0001:000daf50       memcpy_repmovs             00000001400dbf50 f   libvcruntime:memcpy.obj
 0001:000daf60       memcpy                     00000001400dbf60 f   libvcruntime:memcpy.obj
 0001:000daf60       memcpy_$fo_default$        00000001400dbf60     libvcruntime:memcpy.obj
 0001:000daf60       memmove                    00000001400dbf60 f   libvcruntime:memcpy.obj
 0001:000db5f0       memset_repstos             00000001400dc5f0 f   libvcruntime:memset.obj
 0001:000db600       memset                     00000001400dc600 f   libvcruntime:memset.obj
 0001:000db9a0       memchr                     00000001400dc9a0 f   libvcruntime:memchr.obj
 0001:000dba40       memcmp                     00000001400dca40 f   libvcruntime:memcmp.obj
 0001:000e24a0       ??__Flog@?1??Instance@CLog@Base@@SAPEAV12@PEBDI0@Z@YAXXZ 00000001400e34a0 f i Clip.obj
 0001:000e24b0       ??__Fstorage@?1??Instance@CSettings@@SAPEAV1@XZ@YAXXZ 00000001400e34b0 f i Clip.obj
 0001:000e2610       ??__FnetworkManager@?1??Instance@CManager@Network@@SAPEAV12@PEBDI0@Z@YAXXZ 00000001400e3610 f i ContentDownloader.obj
 0001:000e2720       ??__Finstance@?1??Instance@?$CSingleton@VCContentDownloader@ContentDownloader@@@Base@@SAAEAVCContentDownloader@ContentDownloader@@XZ@YAXXZ 00000001400e3720 f i SheepDownloader.obj
 0001:000e2740       ??__Finstance@?1??Instance@?$CSingleton@VCPlayCounter@@@Base@@SAAEAVCPlayCounter@@XZ@YAXXZ 00000001400e3740 f i SheepDownloader.obj
 0001:000e2750       ??__Finstance@?1??Instance@?$CSingleton@VCPlayer@@@Base@@SAAEAVCPlayer@@XZ@YAXXZ 00000001400e3750 f i SheepDownloader.obj
 0001:000e2a60       ??__Frab@?1??Instance@CReusableAlignedBuffers@Base@@SAPEAV12@PEBDI0@Z@YAXXZ 00000001400e3a60 f i AlignedBuffer.obj
 0001:000e2b40       ??__Finstance@?1??Instance@?$CLinkPool@$07$03@Memory@@SAAEAV12@XZ@YAXXZ 00000001400e3b40 f i DisplayDX.obj
 0001:000e2b90       ??__Finstance@?1??Instance@?$CLinkPool@$0BA@$03@Memory@@SAAEAV12@XZ@YAXXZ 00000001400e3b90 f i DisplayDX.obj
 0001:000e2be0       ??__Finstance@?1??Instance@?$CLinkPool@$0BI@$03@Memory@@SAAEAV12@XZ@YAXXZ 00000001400e3be0 f i DisplayDX.obj
 0001:000e2c30       ??__Fdllfun@?1??Instance@DXDLLFun@Base@@SAPEAV12@XZ@YAXXZ 00000001400e3c30 f i FontDX.obj
 0001:000e2c40       ??__Fsuffix@?1??Init@DXDLLFun@Base@@QEAA_NXZ@YAXXZ 00000001400e3c40 f i RendererDX.obj
 0001:000e2d60       ??__Finit@?1??instance@openssl_init_base@detail@ssl@asio@boost@@KA?AV?$shared_ptr@Vdo_init@openssl_init_base@detail@ssl@asio@boost@@@std@@XZ@YAXXZ 00000001400e3d60 f i EDreamClient.obj
 0002:00000000       __imp_RegOpenKeyA          00000001400e5000     advapi32:ADVAPI32.dll
 0002:00000008       __imp_RegQueryValueExA     00000001400e5008     advapi32:ADVAPI32.dll
 0002:00000010       __imp_RegCloseKey          00000001400e5010     advapi32:ADVAPI32.dll
 0002:00000018       \177ADVAPI32_NULL_THUNK_DATA 00000001400e5018     advapi32:ADVAPI32.dll
 0002:00000020       __imp_GetStockObject       00000001400e5020     gdi32:GDI32.dll
 0002:00000028       \177GDI32_NULL_THUNK_DATA  00000001400e5028     gdi32:GDI32.dll
 0002:00000030       __imp_GetFullPathNameW     00000001400e5030     kernel32:KERNEL32.dll
 0002:00000038       __imp_GetFileInformationByHandle 00000001400e5038     kernel32:KERNEL32.dll
 0002:00000040       __imp_GetFileAttributesExW 00000001400e5040     kernel32:KERNEL32.dll
 0002:00000048       __imp_WriteConsoleW        00000001400e5048     kernel32:KERNEL32.dll
 0002:00000050       __imp_SetEndOfFile         00000001400e5050     kernel32:KERNEL32.dll
 0002:00000058       __imp_HeapSize             00000001400e5058     kernel32:KERNEL32.dll
 0002:00000060       __imp_FreeEnvironmentStringsW 00000001400e5060     kernel32:KERNEL32.dll
 0002:00000068       __imp_GetEnvironmentStringsW 00000001400e5068     kernel32:KERNEL32.dll
 0002:00000070       __imp_GetCommandLineW      00000001400e5070     kernel32:KERNEL32.dll
 0002:00000078       __imp_GetOEMCP             00000001400e5078     kernel32:KERNEL32.dll
 0002:00000080       __imp_GetACP               00000001400e5080     kernel32:KERNEL32.dll
 0002:00000088       __imp_IsValidCodePage      00000001400e5088     kernel32:KERNEL32.dll
 0002:00000090       __imp_HeapReAlloc          00000001400e5090     kernel32:KERNEL32.dll
 0002:00000098       __imp_ReadConsoleW         00000001400e5098     kernel32:KERNEL32.dll
 0002:000000a0       __imp_SetStdHandle         00000001400e50a0     kernel32:KERNEL32.dll
 0002:000000a8       __imp_ReadFile             00000001400e50a8     kernel32:KERNEL32.dll
 0002:000000b0       __imp_DeleteFileW          00000001400e50b0     kernel32:KERNEL32.dll
 0002:000000b8       __imp_GetConsoleMode       00000001400e50b8     kernel32:KERNEL32.dll
 0002:000000c0       __imp_GetConsoleOutputCP   00000001400e50c0     kernel32:KERNEL32.dll
 0002:000000c8       __imp_FlushFileBuffers     00000001400e50c8     kernel32:KERNEL32.dll
 0002:000000d0       __imp_SetFilePointerEx     00000001400e50d0     kernel32:KERNEL32.dll
 0002:000000d8       __imp_GetFileSizeEx        00000001400e50d8     kernel32:KERNEL32.dll
 0002:000000e0       __imp_EnumSystemLocalesW   00000001400e50e0     kernel32:KERNEL32.dll
 0002:000000e8       __imp_EnterCriticalSection 00000001400e50e8     kernel32:KERNEL32.dll
 0002:000000f0       __imp_LeaveCriticalSection 00000001400e50f0     kernel32:KERNEL32.dll
 0002:000000f8       __imp_InitializeCriticalSection 00000001400e50f8     kernel32:KERNEL32.dll
 0002:00000100       __imp_FormatMessageW       00000001400e5100     kernel32:KERNEL32.dll
 0002:00000108       __imp_SetEvent             00000001400e5108     kernel32:KERNEL32.dll
 0002:00000110       __imp_QueryPerformanceFrequency 00000001400e5110     kernel32:KERNEL32.dll
 0002:00000118       __imp_CloseHandle          00000001400e5118     kernel32:KERNEL32.dll
 0002:00000120       __imp_LocalFree            00000001400e5120     kernel32:KERNEL32.dll
 0002:00000128       __imp_DeleteCriticalSection 00000001400e5128     kernel32:KERNEL32.dll
 0002:00000130       __imp_WideCharToMultiByte  00000001400e5130     kernel32:KERNEL32.dll
 0002:00000138       __imp_FormatMessageA       00000001400e5138     kernel32:KERNEL32.dll
 0002:00000140       __imp_CreateEventA         00000001400e5140     kernel32:KERNEL32.dll
 0002:00000148       __imp_QueryPerformanceCounter 00000001400e5148     kernel32:KERNEL32.dll
 0002:00000150       __imp_HeapFree             00000001400e5150     kernel32:KERNEL32.dll
 0002:00000158       __imp_SetThreadPriority    00000001400e5158     kernel32:KERNEL32.dll
 0002:00000160       __imp_HeapAlloc            00000001400e5160     kernel32:KERNEL32.dll
 0002:00000168       __imp_SetThreadPriorityBoost 00000001400e5168     kernel32:KERNEL32.dll
 0002:00000170       __imp_GetProcessHeap       00000001400e5170     kernel32:KERNEL32.dll
 0002:00000178       __imp_GetSystemTime        00000001400e5178     kernel32:KERNEL32.dll
 0002:00000180       __imp_GetSystemTimeAsFileTime 00000001400e5180     kernel32:KERNEL32.dll
 0002:00000188       __imp_GetDiskFreeSpaceExA  00000001400e5188     kernel32:KERNEL32.dll
 0002:00000190       __imp_GetCurrentProcess    00000001400e5190     kernel32:KERNEL32.dll
 0002:00000198       __imp_ReleaseSemaphore     00000001400e5198     kernel32:KERNEL32.dll
 0002:000001a0       __imp_DuplicateHandle      00000001400e51a0     kernel32:KERNEL32.dll
 0002:000001a8       __imp_WaitForSingleObjectEx 00000001400e51a8     kernel32:KERNEL32.dll
 0002:000001b0       __imp_CreateDirectoryA     00000001400e51b0     kernel32:KERNEL32.dll
 0002:000001b8       __imp_CreateSemaphoreA     00000001400e51b8     kernel32:KERNEL32.dll
 0002:000001c0       __imp_GetSystemInfo        00000001400e51c0     kernel32:KERNEL32.dll
 0002:000001c8       __imp_GetModuleFileNameA   00000001400e51c8     kernel32:KERNEL32.dll
 0002:000001d0       __imp_SetPriorityClass     00000001400e51d0     kernel32:KERNEL32.dll
 0002:000001d8       __imp_GetSystemTimes       00000001400e51d8     kernel32:KERNEL32.dll
 0002:000001e0       __imp_GetSystemPowerStatus 00000001400e51e0     kernel32:KERNEL32.dll
 0002:000001e8       __imp_CreateMutexA         00000001400e51e8     kernel32:KERNEL32.dll
 0002:000001f0       __imp_WaitForSingleObject  00000001400e51f0     kernel32:KERNEL32.dll
 0002:000001f8       __imp_OpenProcess          00000001400e51f8     kernel32:KERNEL32.dll
 0002:00000200       __imp_GetCommandLineA      00000001400e5200     kernel32:KERNEL32.dll
 0002:00000208       __imp_CreateToolhelp32Snapshot 00000001400e5208     kernel32:KERNEL32.dll
 0002:00000210       __imp_Sleep                00000001400e5210     kernel32:KERNEL32.dll
 0002:00000218       __imp_K32GetModuleFileNameExA 00000001400e5218     kernel32:KERNEL32.dll
 0002:00000220       __imp_GetLastError         00000001400e5220     kernel32:KERNEL32.dll
 0002:00000228       __imp_Process32FirstW      00000001400e5228     kernel32:KERNEL32.dll
 0002:00000230       __imp_GetWindowsDirectoryA 00000001400e5230     kernel32:KERNEL32.dll
 0002:00000238       __imp_GetCurrentProcessId  00000001400e5238     kernel32:KERNEL32.dll
 0002:00000240       __imp_K32EnumProcessModules 00000001400e5240     kernel32:KERNEL32.dll
 0002:00000248       __imp_GetProcessTimes      00000001400e5248     kernel32:KERNEL32.dll
 0002:00000250       __imp_MultiByteToWideChar  00000001400e5250     kernel32:KERNEL32.dll
 0002:00000258       __imp_GetVersionExA        00000001400e5258     kernel32:KERNEL32.dll
 0002:00000260       __imp_GetProcAddress       00000001400e5260     kernel32:KERNEL32.dll
 0002:00000268       __imp_GetModuleHandleW     00000001400e5268     kernel32:KERNEL32.dll
 0002:00000270       __imp_lstrcpyW             00000001400e5270     kernel32:KERNEL32.dll
 0002:00000278       __imp_FreeLibrary          00000001400e5278     kernel32:KERNEL32.dll
 0002:00000280       __imp_FindNextFileW        00000001400e5280     kernel32:KERNEL32.dll
 0002:00000288       __imp_FindFirstFileExW     00000001400e5288     kernel32:KERNEL32.dll
 0002:00000290       __imp_FindFirstFileW       00000001400e5290     kernel32:KERNEL32.dll
 0002:00000298       __imp_FindClose            00000001400e5298     kernel32:KERNEL32.dll
 0002:000002a0       __imp_CreateFileW          00000001400e52a0     kernel32:KERNEL32.dll
 0002:000002a8       __imp_CreateDirectoryW     00000001400e52a8     kernel32:KERNEL32.dll
 0002:000002b0       __imp_GetCurrentDirectoryW 00000001400e52b0     kernel32:KERNEL32.dll
 0002:000002b8       __imp_SetCurrentDirectoryW 00000001400e52b8     kernel32:KERNEL32.dll
 0002:000002c0       __imp_GetCurrentThreadId   00000001400e52c0     kernel32:KERNEL32.dll
 0002:000002c8       __imp_GetLocaleInfoEx      00000001400e52c8     kernel32:KERNEL32.dll
 0002:000002d0       __imp_TryAcquireSRWLockExclusive 00000001400e52d0     kernel32:KERNEL32.dll
 0002:000002d8       __imp_AcquireSRWLockShared 00000001400e52d8     kernel32:KERNEL32.dll
 0002:000002e0       __imp_AcquireSRWLockExclusive 00000001400e52e0     kernel32:KERNEL32.dll
 0002:000002e8       __imp_ReleaseSRWLockShared 00000001400e52e8     kernel32:KERNEL32.dll
 0002:000002f0       __imp_ReleaseSRWLockExclusive 00000001400e52f0     kernel32:KERNEL32.dll
 0002:000002f8       __imp_LoadLibraryExA       00000001400e52f8     kernel32:KERNEL32.dll
 0002:00000300       __imp_VirtualQuery         00000001400e5300     kernel32:KERNEL32.dll
 0002:00000308       __imp_VirtualProtect       00000001400e5308     kernel32:KERNEL32.dll
 0002:00000310       __imp_RaiseException       00000001400e5310     kernel32:KERNEL32.dll
 0002:00000318       __imp_LoadLibraryExW       00000001400e5318     kernel32:KERNEL32.dll
 0002:00000320       __imp_WakeAllConditionVariable 00000001400e5320     kernel32:KERNEL32.dll
 0002:00000328       __imp_SleepConditionVariableSRW 00000001400e5328     kernel32:KERNEL32.dll
 0002:00000330       __imp_IsProcessorFeaturePresent 00000001400e5330     kernel32:KERNEL32.dll
 0002:00000338       __imp_RtlPcToFileHeader    00000001400e5338     kernel32:KERNEL32.dll
 0002:00000340       __imp_InitializeCriticalSectionEx 00000001400e5340     kernel32:KERNEL32.dll
 0002:00000348       __imp_EncodePointer        00000001400e5348     kernel32:KERNEL32.dll
 0002:00000350       __imp_DecodePointer        00000001400e5350     kernel32:KERNEL32.dll
 0002:00000358       __imp_LCMapStringEx        00000001400e5358     kernel32:KERNEL32.dll
 0002:00000360       __imp_SetLastError         00000001400e5360     kernel32:KERNEL32.dll
 0002:00000368       __imp_GetStringTypeW       00000001400e5368     kernel32:KERNEL32.dll
 0002:00000370       __imp_GetUserDefaultLCID   00000001400e5370     kernel32:KERNEL32.dll
 0002:00000378       __imp_IsValidLocale        00000001400e5378     kernel32:KERNEL32.dll
 0002:00000380       __imp_GetLocaleInfoW       00000001400e5380     kernel32:KERNEL32.dll
 0002:00000388       __imp_LCMapStringW         00000001400e5388     kernel32:KERNEL32.dll
 0002:00000390       __imp_CompareStringW       00000001400e5390     kernel32:KERNEL32.dll
 0002:00000398       __imp_GetTimeFormatW       00000001400e5398     kernel32:KERNEL32.dll
 0002:000003a0       __imp_GetDateFormatW       00000001400e53a0     kernel32:KERNEL32.dll
 0002:000003a8       __imp_FlsFree              00000001400e53a8     kernel32:KERNEL32.dll
 0002:000003b0       __imp_FlsSetValue          00000001400e53b0     kernel32:KERNEL32.dll
 0002:000003b8       __imp_FlsGetValue          00000001400e53b8     kernel32:KERNEL32.dll
 0002:000003c0       __imp_FlsAlloc             00000001400e53c0     kernel32:KERNEL32.dll
 0002:000003c8       __imp_WriteFile            00000001400e53c8     kernel32:KERNEL32.dll
 0002:000003d0       __imp_GetStdHandle         00000001400e53d0     kernel32:KERNEL32.dll
 0002:000003d8       __imp_GetModuleFileNameW   00000001400e53d8     kernel32:KERNEL32.dll
 0002:000003e0       __imp_GetModuleHandleExW   00000001400e53e0     kernel32:KERNEL32.dll
 0002:000003e8       __imp_ExitProcess          00000001400e53e8     kernel32:KERNEL32.dll
 0002:000003f0       __imp_AreFileApisANSI      00000001400e53f0     kernel32:KERNEL32.dll
 0002:000003f8       __imp_LoadLibraryA         00000001400e53f8     kernel32:KERNEL32.dll
 0002:00000400       __imp_GetFileInformationByHandleEx 00000001400e5400     kernel32:KERNEL32.dll
 0002:00000408       __imp_Process32NextW       00000001400e5408     kernel32:KERNEL32.dll
 0002:00000410       __imp_RtlUnwind            00000001400e5410     kernel32:KERNEL32.dll
 0002:00000418       __imp_CompareStringEx      00000001400e5418     kernel32:KERNEL32.dll
 0002:00000420       __imp_GetTimeZoneInformation 00000001400e5420     kernel32:KERNEL32.dll
 0002:00000428       __imp_SetEnvironmentVariableW 00000001400e5428     kernel32:KERNEL32.dll
 0002:00000430       __imp_FileTimeToSystemTime 00000001400e5430     kernel32:KERNEL32.dll
 0002:00000438       __imp_SystemTimeToTzSpecificLocalTime 00000001400e5438     kernel32:KERNEL32.dll
 0002:00000440       __imp_PeekNamedPipe        00000001400e5440     kernel32:KERNEL32.dll
 0002:00000448       __imp_GetCPInfo            00000001400e5448     kernel32:KERNEL32.dll
 0002:00000450       __imp_GetFileType          00000001400e5450     kernel32:KERNEL32.dll
 0002:00000458       __imp_GetDriveTypeW        00000001400e5458     kernel32:KERNEL32.dll
 0002:00000460       __imp_TlsFree              00000001400e5460     kernel32:KERNEL32.dll
 0002:00000468       __imp_TlsSetValue          00000001400e5468     kernel32:KERNEL32.dll
 0002:00000470       __imp_TlsGetValue          00000001400e5470     kernel32:KERNEL32.dll
 0002:00000478       __imp_TlsAlloc             00000001400e5478     kernel32:KERNEL32.dll
 0002:00000480       __imp_InitializeCriticalSectionAndSpinCount 00000001400e5480     kernel32:KERNEL32.dll
 0002:00000488       __imp_RtlUnwindEx          00000001400e5488     kernel32:KERNEL32.dll
 0002:00000490       __imp_InitializeSListHead  00000001400e5490     kernel32:KERNEL32.dll
 0002:00000498       __imp_GetStartupInfoW      00000001400e5498     kernel32:KERNEL32.dll
 0002:000004a0       __imp_IsDebuggerPresent    00000001400e54a0     kernel32:KERNEL32.dll
 0002:000004a8       __imp_TerminateProcess     00000001400e54a8     kernel32:KERNEL32.dll
 0002:000004b0       __imp_SetUnhandledExceptionFilter 00000001400e54b0     kernel32:KERNEL32.dll
 0002:000004b8       __imp_UnhandledExceptionFilter 00000001400e54b8     kernel32:KERNEL32.dll
 0002:000004c0       __imp_RtlVirtualUnwind     00000001400e54c0     kernel32:KERNEL32.dll
 0002:000004c8       __imp_RtlLookupFunctionEntry 00000001400e54c8     kernel32:KERNEL32.dll
 0002:000004d0       __imp_RtlCaptureContext    00000001400e54d0     kernel32:KERNEL32.dll
 0002:000004d8       \177KERNEL32_NULL_THUNK_DATA 00000001400e54d8     kernel32:KERNEL32.dll
 0002:000004e0       __imp_IsUserAnAdmin        00000001400e54e0     shell32:SHELL32.dll
 0002:000004e8       __imp_ShellExecuteA        00000001400e54e8     shell32:SHELL32.dll
 0002:000004f0       __imp_SHGetFolderPathA     00000001400e54f0     shell32:SHELL32.dll
 0002:000004f8       __imp_ShellExecuteExA      00000001400e54f8     shell32:SHELL32.dll
 0002:00000500       \177SHELL32_NULL_THUNK_DATA 00000001400e5500     shell32:SHELL32.dll
 0002:00000508       __imp_PathAppendA          00000001400e5508     shlwapi:SHLWAPI.dll
 0002:00000510       \177SHLWAPI_NULL_THUNK_DATA 00000001400e5510     shlwapi:SHLWAPI.dll
 0002:00000518       __imp_SetRect              00000001400e5518     user32:USER32.dll
 0002:00000520       __imp_GetMessageW          00000001400e5520     user32:USER32.dll
 0002:00000528       __imp_DefWindowProcW       00000001400e5528     user32:USER32.dll
 0002:00000530       __imp_AdjustWindowRectEx   00000001400e5530     user32:USER32.dll
 0002:00000538       __imp_PostMessageW         00000001400e5538     user32:USER32.dll
 0002:00000540       __imp_GetWindowRect        00000001400e5540     user32:USER32.dll
 0002:00000548       __imp_DestroyWindow        00000001400e5548     user32:USER32.dll
 0002:00000550       __imp_CreateWindowExW      00000001400e5550     user32:USER32.dll
 0002:00000558       __imp_GetSystemMetrics     00000001400e5558     user32:USER32.dll
 0002:00000560       __imp_ShowWindow           00000001400e5560     user32:USER32.dll
 0002:00000568       __imp_DispatchMessageW     00000001400e5568     user32:USER32.dll
 0002:00000570       __imp_SetTimer             00000001400e5570     user32:USER32.dll
 0002:00000578       __imp_PeekMessageW         00000001400e5578     user32:USER32.dll
 0002:00000580       __imp_RegisterClassW       00000001400e5580     user32:USER32.dll
 0002:00000588       __imp_SetWindowTextA       00000001400e5588     user32:USER32.dll
 0002:00000590       __imp_AdjustWindowRect     00000001400e5590     user32:USER32.dll
 0002:00000598       __imp_SetFocus             00000001400e5598     user32:USER32.dll
 0002:000005a0       __imp_TranslateMessage     00000001400e55a0     user32:USER32.dll
 0002:000005a8       __imp_LoadIconW            00000001400e55a8     user32:USER32.dll
 0002:000005b0       __imp_SystemParametersInfoA 00000001400e55b0     user32:USER32.dll
 0002:000005b8       __imp_GetClientRect        00000001400e55b8     user32:USER32.dll
 0002:000005c0       __imp_SetWindowPos         00000001400e55c0     user32:USER32.dll
 0002:000005c8       __imp_KillTimer            00000001400e55c8     user32:USER32.dll
 0002:000005d0       __imp_PostQuitMessage      00000001400e55d0     user32:USER32.dll
 0002:000005d8       __imp_EnumDisplaySettingsW 00000001400e55d8     user32:USER32.dll
 0002:000005e0       __imp_GetParent            00000001400e55e0     user32:USER32.dll
 0002:000005e8       __imp_UpdateWindow         00000001400e55e8     user32:USER32.dll
 0002:000005f0       __imp_SetForegroundWindow  00000001400e55f0     user32:USER32.dll
 0002:000005f8       __imp_ShowCursor           00000001400e55f8     user32:USER32.dll
 0002:00000600       __imp_InvalidateRect       00000001400e5600     user32:USER32.dll
 0002:00000608       __imp_BeginPaint           00000001400e5608     user32:USER32.dll
 0002:00000610       __imp_EndPaint             00000001400e5610     user32:USER32.dll
 0002:00000618       __imp_MessageBoxW          00000001400e5618     user32:USER32.dll
 0002:00000620       \177USER32_NULL_THUNK_DATA 00000001400e5620     user32:USER32.dll
 0002:00000628       __imp_av_bsf_send_packet   00000001400e5628     avcodec:avcodec-60.dll
 0002:00000630       __imp_av_packet_unref      00000001400e5630     avcodec:avcodec-60.dll
 0002:00000638       __imp_av_bsf_init          00000001400e5638     avcodec:avcodec-60.dll
 0002:00000640       __imp_avcodec_send_packet  00000001400e5640     avcodec:avcodec-60.dll
 0002:00000648       __imp_avcodec_free_context 00000001400e5648     avcodec:avcodec-60.dll
 0002:00000650       __imp_av_bsf_get_by_name   00000001400e5650     avcodec:avcodec-60.dll
 0002:00000658       __imp_av_packet_alloc      00000001400e5658     avcodec:avcodec-60.dll
 0002:00000660       __imp_avcodec_alloc_context3 00000001400e5660     avcodec:avcodec-60.dll
 0002:00000668       __imp_av_bsf_receive_packet 00000001400e5668     avcodec:avcodec-60.dll
 0002:00000670       __imp_avcodec_parameters_copy 00000001400e5670     avcodec:avcodec-60.dll
 0002:00000678       __imp_av_bsf_alloc         00000001400e5678     avcodec:avcodec-60.dll
 0002:00000680       __imp_avcodec_close        00000001400e5680     avcodec:avcodec-60.dll
 0002:00000688       __imp_avcodec_open2        00000001400e5688     avcodec:avcodec-60.dll
 0002:00000690       __imp_avcodec_receive_frame 00000001400e5690     avcodec:avcodec-60.dll
 0002:00000698       __imp_av_packet_free       00000001400e5698     avcodec:avcodec-60.dll
 0002:000006a0       __imp_avcodec_find_decoder 00000001400e56a0     avcodec:avcodec-60.dll
 0002:000006a8       __imp_avcodec_flush_buffers 00000001400e56a8     avcodec:avcodec-60.dll
 0002:000006b0       __imp_av_bsf_flush         00000001400e56b0     avcodec:avcodec-60.dll
 0002:000006b8       __imp_av_bsf_free          00000001400e56b8     avcodec:avcodec-60.dll
 0002:000006c0       \177avcodec-60_NULL_THUNK_DATA 00000001400e56c0     avcodec:avcodec-60.dll
 0002:000006c8       __imp_avformat_open_input  00000001400e56c8     avformat:avformat-60.dll
 0002:000006d0       __imp_av_read_frame        00000001400e56d0     avformat:avformat-60.dll
 0002:000006d8       __imp_avformat_close_input 00000001400e56d8     avformat:avformat-60.dll
 0002:000006e0       __imp_avformat_seek_file   00000001400e56e0     avformat:avformat-60.dll
 0002:000006e8       __imp_avformat_find_stream_info 00000001400e56e8     avformat:avformat-60.dll
 0002:000006f0       \177avformat-60_NULL_THUNK_DATA 00000001400e56f0     avformat:avformat-60.dll
 0002:000006f8       __imp_av_log_set_level     00000001400e56f8     avutil:avutil-58.dll
 0002:00000700       __imp_av_log_set_callback  00000001400e5700     avutil:avutil-58.dll
 0002:00000708       __imp_av_image_get_buffer_size 00000001400e5708     avutil:avutil-58.dll
 0002:00000710       __imp_av_frame_free        00000001400e5710     avutil:avutil-58.dll
 0002:00000718       __imp_av_image_fill_arrays 00000001400e5718     avutil:avutil-58.dll
 0002:00000720       __imp_av_frame_unref       00000001400e5720     avutil:avutil-58.dll
 0002:00000728       __imp_av_frame_alloc       00000001400e5728     avutil:avutil-58.dll
 0002:00000730       \177avutil-58_NULL_THUNK_DATA 00000001400e5730     avutil:avutil-58.dll
 0002:00000738       __imp_?refresh_impl@directory_entry@filesystem@boost@@AEBAXPEAVerror_code@system@3@@Z 00000001400e5738     boost_filesystem-vc140-mt:boost_filesystem-vc143-mt-x64-1_84.dll
 0002:00000740       __imp_?status@detail@filesystem@boost@@YA?AVfile_status@23@AEBVpath@23@PEAVerror_code@system@3@@Z 00000001400e5740     boost_filesystem-vc140-mt:boost_filesystem-vc143-mt-x64-1_84.dll
 0002:00000748       __imp_?convert@path_traits@detail@filesystem@boost@@YAXPEBD0AEAV?$basic_string@_WU?$char_traits@_W@std@@V?$allocator@_W@2@@std@@PEBV?$codecvt@_WDU_Mbstatet@@@6@@Z 00000001400e5748     boost_filesystem-vc140-mt:boost_filesystem-vc143-mt-x64-1_84.dll
 0002:00000750       __imp_?convert@path_traits@detail@filesystem@boost@@YAXPEB_W0AEAV?$basic_string@DU?$char_traits@D@std@@V?$allocator@D@2@@std@@PEBV?$codecvt@_WDU_Mbstatet@@@6@@Z 00000001400e5750     boost_filesystem-vc140-mt:boost_filesystem-vc143-mt-x64-1_84.dll
 0002:00000758       __imp_?last_write_time@detail@filesystem@boost@@YA_JAEBVpath@23@PEAVerror_code@system@3@@Z 00000001400e5758     boost_filesystem-vc140-mt:boost_filesystem-vc143-mt-x64-1_84.dll
 0002:00000760       __imp_?file_size@detail@filesystem@boost@@YA_KAEBVpath@23@PEAVerror_code@system@3@@Z 00000001400e5760     boost_filesystem-vc140-mt:boost_filesystem-vc143-mt-x64-1_84.dll
 0002:00000768       __imp_?compare_v3@path_algorithms@detail@filesystem@boost@@SAHAEBVpath@34@0@Z 00000001400e5768     boost_filesystem-vc140-mt:boost_filesystem-vc143-mt-x64-1_84.dll
 0002:00000770       __imp_?extension_v3@path_algorithms@detail@filesystem@boost@@SA?AVpath@34@AEBV534@@Z 00000001400e5770     boost_filesystem-vc140-mt:boost_filesystem-vc143-mt-x64-1_84.dll
 0002:00000778       __imp_?stem_v3@path_algorithms@detail@filesystem@boost@@SA?AVpath@34@AEBV534@@Z 00000001400e5778     boost_filesystem-vc140-mt:boost_filesystem-vc143-mt-x64-1_84.dll
 0002:00000780       __imp_?filename_v3@path_algorithms@detail@filesystem@boost@@SA?AVpath@34@AEBV534@@Z 00000001400e5780     boost_filesystem-vc140-mt:boost_filesystem-vc143-mt-x64-1_84.dll
 0002:00000788       __imp_??3dir_itr_imp@detail@filesystem@boost@@SAXPEAX@Z 00000001400e5788     boost_filesystem-vc140-mt:boost_filesystem-vc143-mt-x64-1_84.dll
 0002:00000790       __imp_??1dir_itr_imp@detail@filesystem@boost@@QEAA@XZ 00000001400e5790     boost_filesystem-vc140-mt:boost_filesystem-vc143-mt-x64-1_84.dll
 0002:00000798       __imp_?directory_iterator_construct@detail@filesystem@boost@@YAXAEAVdirectory_iterator@23@AEBVpath@23@IPEAUdirectory_iterator_params@123@PEAVerror_code@system@3@@Z 00000001400e5798     boost_filesystem-vc140-mt:boost_filesystem-vc143-mt-x64-1_84.dll
 0002:000007a0       __imp_?remove_all@detail@filesystem@boost@@YA_KAEBVpath@23@PEAVerror_code@system@3@@Z 00000001400e57a0     boost_filesystem-vc140-mt:boost_filesystem-vc143-mt-x64-1_84.dll
 0002:000007a8       __imp_?directory_iterator_increment@detail@filesystem@boost@@YAXAEAVdirectory_iterator@23@PEAVerror_code@system@3@@Z 00000001400e57a8     boost_filesystem-vc140-mt:boost_filesystem-vc143-mt-x64-1_84.dll
 0002:000007b0       \177boost_filesystem-vc143-mt-x64-1_84_NULL_THUNK_DATA 00000001400e57b0     boost_filesystem-vc140-mt:boost_filesystem-vc143-mt-x64-1_84.dll
 0002:000007b8       __imp_?interrupt@thread@boost@@QEAAXXZ 00000001400e57b8     boost_thread-vc140-mt:boost_thread-vc143-mt-x64-1_84.dll
 0002:000007c0       __imp_?native_handle@thread@boost@@QEAAPEAXXZ 00000001400e57c0     boost_thread-vc140-mt:boost_thread-vc143-mt-x64-1_84.dll
 0002:000007c8       __imp_?detach@thread@boost@@QEAAXXZ 00000001400e57c8     boost_thread-vc140-mt:boost_thread-vc143-mt-x64-1_84.dll
 0002:000007d0       __imp_?do_try_join_until_noexcept@thread@boost@@AEAA_NAEBUmono_platform_timepoint@detail@2@AEA_N@Z 00000001400e57d0     boost_thread-vc140-mt:boost_thread-vc143-mt-x64-1_84.dll
 0002:000007d8       __imp_?get_id@thread@boost@@QEBA?AVid@12@XZ 00000001400e57d8     boost_thread-vc140-mt:boost_thread-vc143-mt-x64-1_84.dll
 0002:000007e0       __imp_?start_thread_noexcept@thread@boost@@AEAA_NXZ 00000001400e57e0     boost_thread-vc140-mt:boost_thread-vc143-mt-x64-1_84.dll
 0002:000007e8       __imp_??1thread_data_base@detail@boost@@UEAA@XZ 00000001400e57e8     boost_thread-vc140-mt:boost_thread-vc143-mt-x64-1_84.dll
 0002:000007f0       __imp_?get_id@this_thread@boost@@YA?AVid@thread@2@XZ 00000001400e57f0     boost_thread-vc140-mt:boost_thread-vc143-mt-x64-1_84.dll
 0002:000007f8       __imp_?interruption_point@this_thread@boost@@YAXXZ 00000001400e57f8     boost_thread-vc140-mt:boost_thread-vc143-mt-x64-1_84.dll
 0002:00000800       __imp_?interruptible_wait@this_thread@boost@@YA_NPEAXAEBUmono_platform_timepoint@detail@2@@Z 00000001400e5800     boost_thread-vc140-mt:boost_thread-vc143-mt-x64-1_84.dll
 0002:00000808       __imp_?join_noexcept@thread@boost@@AEAA_NXZ 00000001400e5808     boost_thread-vc140-mt:boost_thread-vc143-mt-x64-1_84.dll
 0002:00000810       \177boost_thread-vc143-mt-x64-1_84_NULL_THUNK_DATA 00000001400e5810     boost_thread-vc140-mt:boost_thread-vc143-mt-x64-1_84.dll
 0002:00000818       __imp_curl_easy_setopt     00000001400e5818     libcurl:libcurl.dll
 0002:00000820       __imp_curl_multi_perform   00000001400e5820     libcurl:libcurl.dll
 0002:00000828       __imp_curl_easy_cleanup    00000001400e5828     libcurl:libcurl.dll
 0002:00000830       __imp_curl_slist_free_all  00000001400e5830     libcurl:libcurl.dll
 0002:00000838       __imp_curl_easy_strerror   00000001400e5838     libcurl:libcurl.dll
 0002:00000840       __imp_curl_multi_init      00000001400e5840     libcurl:libcurl.dll
 0002:00000848       __imp_curl_multi_strerror  00000001400e5848     libcurl:libcurl.dll
 0002:00000850       __imp_curl_multi_cleanup   00000001400e5850     libcurl:libcurl.dll
 0002:00000858       __imp_curl_slist_append    00000001400e5858     libcurl:libcurl.dll
 0002:00000860       __imp_curl_easy_init       00000001400e5860     libcurl:libcurl.dll
 0002:00000868       __imp_curl_global_cleanup  00000001400e5868     libcurl:libcurl.dll
 0002:00000870       __imp_curl_global_init     00000001400e5870     libcurl:libcurl.dll
 0002:00000878       __imp_curl_easy_getinfo    00000001400e5878     libcurl:libcurl.dll
 0002:00000880       __imp_curl_multi_add_handle 00000001400e5880     libcurl:libcurl.dll
 0002:00000888       __imp_curl_multi_fdset     00000001400e5888     libcurl:libcurl.dll
 0002:00000890       __imp_curl_multi_remove_handle 00000001400e5890     libcurl:libcurl.dll
 0002:00000898       \177libcurl_NULL_THUNK_DATA 00000001400e5898     libcurl:libcurl.dll
 0002:000008a0       __imp_png_get_bKGD         00000001400e58a0     libpng16:libpng16.dll
 0002:000008a8       __imp_png_set_expand       00000001400e58a8     libpng16:libpng16.dll
 0002:000008b0       __imp_png_read_image       00000001400e58b0     libpng16:libpng16.dll
 0002:000008b8       __imp_png_init_io          00000001400e58b8     libpng16:libpng16.dll
 0002:000008c0       __imp_png_set_strip_16     00000001400e58c0     libpng16:libpng16.dll
 0002:000008c8       __imp_png_set_gamma        00000001400e58c8     libpng16:libpng16.dll
 0002:000008d0       __imp_png_read_info        00000001400e58d0     libpng16:libpng16.dll
 0002:000008d8       __imp_png_sig_cmp          00000001400e58d8     libpng16:libpng16.dll
 0002:000008e0       __imp_png_get_gAMA         00000001400e58e0     libpng16:libpng16.dll
 0002:000008e8       __imp_png_read_update_info 00000001400e58e8     libpng16:libpng16.dll
 0002:000008f0       __imp_png_set_sig_bytes    00000001400e58f0     libpng16:libpng16.dll
 0002:000008f8       __imp_png_get_channels     00000001400e58f8     libpng16:libpng16.dll
 0002:00000900       __imp_png_get_IHDR         00000001400e5900     libpng16:libpng16.dll
 0002:00000908       __imp_png_create_info_struct 00000001400e5908     libpng16:libpng16.dll
 0002:00000910       __imp_png_create_read_struct 00000001400e5910     libpng16:libpng16.dll
 0002:00000918       __imp_png_read_end         00000001400e5918     libpng16:libpng16.dll
 0002:00000920       __imp_png_set_background   00000001400e5920     libpng16:libpng16.dll
 0002:00000928       __imp_png_destroy_read_struct 00000001400e5928     libpng16:libpng16.dll
 0002:00000930       __imp_png_get_valid        00000001400e5930     libpng16:libpng16.dll
 0002:00000938       \177libpng16_NULL_THUNK_DATA 00000001400e5938     libpng16:libpng16.dll
 0002:00000940       __imp_sws_freeContext      00000001400e5940     swscale:swscale-7.dll
 0002:00000948       __imp_sws_scale            00000001400e5948     swscale:swscale-7.dll
 0002:00000950       __imp_sws_getContext       00000001400e5950     swscale:swscale-7.dll
 0002:00000958       \177swscale-7_NULL_THUNK_DATA 00000001400e5958     swscale:swscale-7.dll
 0002:00000960       __guard_check_icall_fptr   00000001400e5960     odbccp32:guard_support.obj
 0002:00000968       __guard_dispatch_icall_fptr 00000001400e5968     odbccp32:guard_support.obj
 0002:00000970       __guard_xfg_check_icall_fptr 00000001400e5970     odbccp32:guard_support.obj
 0002:00000978       __guard_xfg_dispatch_icall_fptr 00000001400e5978     odbccp32:guard_support.obj
 0002:00000980       __guard_xfg_table_dispatch_icall_fptr 00000001400e5980     odbccp32:guard_support.obj
 0002:00000988       __castguard_check_failure_os_handled_fptr 00000001400e5988     odbccp32:guard_support.obj
 0002:00000990       __guard_memcpy_fptr        00000001400e5990     libvcruntime:softmemtag.obj
 0002:00000998       __xc_a                     00000001400e5998     LIBCMT:initializers.obj
 0002:00000b00       __xc_z                     00000001400e5b00     LIBCMT:initializers.obj
 0002:00000b08       __xi_a                     00000001400e5b08     LIBCMT:initializers.obj
 0002:00000b28       __acrt_stdio_initializer   00000001400e5b28     libucrt:stdio_initializer.obj
 0002:00000b30       __acrt_timeset_initializer 00000001400e5b30     libucrt:timeset_initializer.obj
 0002:00000b38       __acrt_multibyte_initializer 00000001400e5b38     libucrt:multibyte_initializer.obj
 0002:00000b40       __acrt_fmode_initializer   00000001400e5b40     libucrt:fmode_initializer.obj
 0002:00000b48       __acrt_tran_fma3_initializer 00000001400e5b48     libucrt:fma3_initializer.obj
 0002:00000b50       __xi_z                     00000001400e5b50     LIBCMT:initializers.obj
 0002:00000b58       __xl_a                     00000001400e5b58     LIBCMT:tlssup.obj
 0002:00000b60       __xl_z                     00000001400e5b60     LIBCMT:tlssup.obj
 0002:00000b68       __xp_a                     00000001400e5b68     LIBCMT:initializers.obj
 0002:00000b70       __acrt_locale_terminator   00000001400e5b70     libucrt:locale_initializer.obj
 0002:00000b78       __dcrt_console_output_terminator 00000001400e5b78     libucrt:console_output_initializer.obj
 0002:00000b80       __acrt_stdio_terminator    00000001400e5b80     libucrt:stdio_initializer.obj
 0002:00000b88       __xp_z                     00000001400e5b88     LIBCMT:initializers.obj
 0002:00000b90       __xt_a                     00000001400e5b90     LIBCMT:initializers.obj
 0002:00000b98       __xt_z                     00000001400e5b98     LIBCMT:initializers.obj
 0002:00000ba0       __sz_d3d9_dll              00000001400e5ba0     d3d9:d3d9.dll
 0002:00000bb0       __sz_WS2_32_dll            00000001400e5bb0     ws2_32:WS2_32.dll
 0002:00000bc0       ??_C@_1BK@DBDEIDLH@?$AAK?$AAE?$AAR?$AAN?$AAE?$AAL?$AA3?$AA2?$AA?4?$AAD?$AAL?$AAL@ 00000001400e5bc0     delayimp:delayhlp.obj
 0002:00000be0       ??_C@_0BI@OMNLIJDB@AcquireSRWLockExclusive@ 00000001400e5be0     delayimp:delayhlp.obj
 0002:00000bf8       ??_C@_0BI@HMIEPCNJ@ReleaseSRWLockExclusive@ 00000001400e5bf8     delayimp:delayhlp.obj
 0002:00000c10       __pfnDliNotifyHook2        00000001400e5c10     delayimp:delayhk2.obj
 0002:00000c18       __pfnDliFailureHook2       00000001400e5c18     delayimp:delayhk1.obj
 0002:00000c28       ??_7exception@std@@6B@     00000001400e5c28     libcpmt:xthrow.obj
 0002:00000c40       ??_7bad_alloc@std@@6B@     00000001400e5c40     libcpmt:xthrow.obj
 0002:00000c58       ??_7bad_function_call@std@@6B@ 00000001400e5c58     libcpmt:xthrow.obj
 0002:00000c68       ??_C@_0BC@DPJNKNAF@bad?5function?5call@ 00000001400e5c68     libcpmt:xthrow.obj
 0002:00000c88       ??_7logic_error@std@@6B@   00000001400e5c88     libcpmt:xthrow.obj
 0002:00000ca0       ??_7length_error@std@@6B@  00000001400e5ca0     libcpmt:xthrow.obj
 0002:00000cb8       ??_7out_of_range@std@@6B@  00000001400e5cb8     libcpmt:xthrow.obj
 0002:00000cd0       ??_7runtime_error@std@@6B@ 00000001400e5cd0     libcpmt:xthrow.obj
 0002:00000ce8       ??_7bad_array_new_length@std@@6B@ 00000001400e5ce8     libcpmt:locale.obj
 0002:00000d00       ??_7bad_cast@std@@6B@      00000001400e5d00     libcpmt:locale.obj
 0002:00000d18       ??_7_Facet_base@std@@6B@   00000001400e5d18     libcpmt:locale.obj
 0002:00000d30       ??_C@_01GFHCPBMG@C@        00000001400e5d30     libcpmt:locale.obj
 0002:00000d40       ??_7?$ctype@D@std@@6B@     00000001400e5d40     libcpmt:locale.obj
 0002:00000da0       ??_7?$num_get@DV?$istreambuf_iterator@DU?$char_traits@D@std@@@std@@@std@@6B@ 00000001400e5da0     libcpmt:locale.obj
 0002:00000e18       ??_7?$num_put@DV?$ostreambuf_iterator@DU?$char_traits@D@std@@@std@@@std@@6B@ 00000001400e5e18     libcpmt:locale.obj
 0002:00000e78       ??_7?$numpunct@D@std@@6B@  00000001400e5e78     libcpmt:locale.obj
 0002:00000ec0       ??_7?$codecvt@DDU_Mbstatet@@@std@@6B@ 00000001400e5ec0     libcpmt:locale.obj
 0002:00000f10       ?_Src@?1???$_Parse_int_with_locale@$0A@@?$num_get@DV?$istreambuf_iterator@DU?$char_traits@D@std@@@std@@@std@@CA?AU_Num_get_parse_result@2@QEADAEAV?$istreambuf_iterator@DU?$char_traits@D@std@@@2@1HAEBVlocale@2@@Z@4QBDB 00000001400e5f10     libcpmt:locale.obj
 0002:00000f30       ?_Src@?1???$_Parse_fp_with_locale@$0A@@?$num_get@DV?$istreambuf_iterator@DU?$char_traits@D@std@@@std@@@std@@CA?AU_Num_get_parse_result@2@QEADHAEAV?$istreambuf_iterator@DU?$char_traits@D@std@@@2@1AEBVlocale@2@@Z@4QBDB 00000001400e5f30     libcpmt:locale.obj
 0002:00000f50       __xmm@000000000000000f0000000000000001 00000001400e5f50     libcpmt:locale.obj
 0002:00000f68       ??_7_Locimp@locale@std@@6B@ 00000001400e5f68     libcpmt:locale0.obj
 0002:00000f80       ?_BADOFF@std@@3_JB         00000001400e5f80     libcpmt:ios.obj
 0002:00001720       ??_C@_0BN@LKKBCCDB@address?5family?5not?5supported@ 00000001400e6720     libcpmt:syserror.obj
 0002:00001740       ??_C@_0P@LDMLAFHI@address?5in?5use@ 00000001400e6740     libcpmt:syserror.obj
 0002:00001750       ??_C@_0BG@DHPCNBJB@address?5not?5available@ 00000001400e6750     libcpmt:syserror.obj
 0002:00001768       ??_C@_0BC@DFIBIBIL@already?5connected@ 00000001400e6768     libcpmt:syserror.obj
 0002:00001780       ??_C@_0BH@CAKOHOMI@argument?5list?5too?5long@ 00000001400e6780     libcpmt:syserror.obj
 0002:00001798       ??_C@_0BH@CGIMPKIM@argument?5out?5of?5domain@ 00000001400e6798     libcpmt:syserror.obj
 0002:000017b0       ??_C@_0M@KGHGGJGL@bad?5address@ 00000001400e67b0     libcpmt:syserror.obj
 0002:000017c0       ??_C@_0BE@MPJPGCEO@bad?5file?5descriptor@ 00000001400e67c0     libcpmt:syserror.obj
 0002:000017d8       ??_C@_0M@PMMIEFCP@bad?5message@ 00000001400e67d8     libcpmt:syserror.obj
 0002:000017e8       ??_C@_0M@KPHOFDBE@broken?5pipe@ 00000001400e67e8     libcpmt:syserror.obj
 0002:000017f8       ??_C@_0BD@MGNDDEGM@connection?5aborted@ 00000001400e67f8     libcpmt:syserror.obj
 0002:00001810       ??_C@_0BP@KAIHPOGN@connection?5already?5in?5progress@ 00000001400e6810     libcpmt:syserror.obj
